 opencv

 Timestamp is 5a5b1f1c (Sun Jan 14 16:13:00 2018)

 Preferred load address is 0000000180000000

 Start         Length     Name                   Class
 0001:00000000 000001e0H .text                   CODE
 0001:000001e0 000002d0H .text$di                CODE
 0001:000004b0 0004b210H .text$mn                CODE
 0001:0004b6c0 00000020H .text$mn$00             CODE
 0001:0004b6e0 00004a10H .text$x                 CODE
 0001:000500f0 0000028cH .text$yd                CODE
 0002:00000000 000007e8H .idata$5                DATA
 0002:000007e8 00000010H .00cfg                  DATA
 0002:000007f8 00000008H .CRT$XCA                DATA
 0002:00000800 00000018H .CRT$XCC                DATA
 0002:00000818 00000010H .CRT$XCL                DATA
 0002:00000828 00000070H .CRT$XCU                DATA
 0002:00000898 00000008H .CRT$XCZ                DATA
 0002:000008a0 00000008H .CRT$XIA                DATA
 0002:000008a8 00000030H .CRT$XIC                DATA
 0002:000008d8 00000008H .CRT$XIZ                DATA
 0002:000008e0 00000008H .CRT$XLA                DATA
 0002:000008e8 00000008H .CRT$XLZ                DATA
 0002:000008f0 00000008H .CRT$XPA                DATA
 0002:000008f8 00000010H .CRT$XPX                DATA
 0002:00000908 00000008H .CRT$XPXA               DATA
 0002:00000910 00000008H .CRT$XPZ                DATA
 0002:00000918 00000008H .CRT$XTA                DATA
 0002:00000920 00000010H .CRT$XTZ                DATA
 0002:00000930 00013c58H .rdata                  DATA
 0002:00014588 00000028H .rdata$T                DATA
 0002:000145b0 00000408H .rdata$r                DATA
 0002:000149b8 00000010H .rdata$zETW0            DATA
 0002:000149c8 00000077H .rdata$zETW1            DATA
 0002:00014a3f 0000002cH .rdata$zETW2            DATA
 0002:00014a6b 00000001H .rdata$zETW9            DATA
 0002:00014a6c 0000051cH .rdata$zzzdbg           DATA
 0002:00014f88 00000008H .rtc$IAA                DATA
 0002:00014f90 00000008H .rtc$IZZ                DATA
 0002:00014f98 00000008H .rtc$TAA                DATA
 0002:00014fa0 00000010H .rtc$TZZ                DATA
 0002:00014fb0 00009b48H .xdata                  DATA
 0002:0001eaf8 00000244H .xdata$x                DATA
 0002:0001ed3c 00000020H .didat$2                DATA
 0002:0001ed5c 00000024H .didat$3                DATA
 0002:0001ed80 000002d0H .didat$4                DATA
 0002:0001f050 00001588H .didat$6                DATA
 0002:000205d8 000002d8H .didat$7                DATA
 0002:000208b0 00000050H .edata                  DATA
 0002:00020900 000000dcH .idata$2                DATA
 0002:000209dc 00000014H .idata$3                DATA
 0002:000209f0 000007e8H .idata$4                DATA
 0002:000211d8 00002f62H .idata$6                DATA
 0003:00000000 00000af0H .data                   DATA
 0003:00000af0 00000168H .data$r                 DATA
 0003:00000c58 000002d8H .didat$5                DATA
 0003:00000f30 00001874H .bss                    DATA
 0004:00000000 000030ccH .pdata                  DATA
 0005:00000000 00000088H .gfids$x                DATA
 0005:00000088 00000094H .gfids$y                DATA
 0006:00000000 00000004H .tls                    DATA
 0006:00000004 00000004H .tls$                   DATA
 0006:00000008 00000001H .tls$ZZZ                DATA
 0007:00000000 00000060H .rsrc$01                DATA
 0007:00000060 00000180H .rsrc$02                DATA

  Address         Publics by Value              Rva+Base               Lib:Object

 0000:00000000       __guard_iat_table          0000000000000000     <absolute>
 0000:00000000       __dynamic_value_reloc_table 0000000000000000     <absolute>
 0000:00000000       __guard_longjmp_table      0000000000000000     <absolute>
 0000:00000000       __guard_longjmp_count      0000000000000000     <absolute>
 0000:00000000       __guard_iat_count          0000000000000000     <absolute>
 0000:00000000       __guard_fids_count         0000000000000000     <absolute>
 0000:00000000       ___safe_se_handler_table   0000000000000000     <absolute>
 0000:00000000       ___safe_se_handler_count   0000000000000000     <absolute>
 0000:00000000       __guard_fids_table         0000000000000000     <absolute>
 0000:00000100       __guard_flags              0000000000000100     <absolute>
 0000:00000000       __ImageBase                0000000180000000     <linker-defined>
 0001:00000000       ?TraceLoggingRegister@__vcrt_trace_logging_provider@@YAJPEBU_TlgProvider_t@1@PEBU_GUID@@P6AX1KE_K2PEAU_EVENT_FILTER_DESCRIPTOR@@PEAX@Z4@Z 0000000180001000 f i libvcruntime:telemetry.obj
 0001:0000007c       ?_TlgEnableCallback@__vcrt_trace_logging_provider@@YAXPEBU_GUID@@KE_K1PEAU_EVENT_FILTER_DESCRIPTOR@@PEAX@Z 000000018000107c f i libvcruntime:telemetry.obj
 0001:00000140       ?_TlgWrite@__vcrt_trace_logging_provider@@YAJPEBU_TlgProvider_t@1@PEFBXPEBU_GUID@@2IPEAU_EVENT_DATA_DESCRIPTOR@@@Z 0000000180001140 f i libvcruntime:telemetry.obj
 0001:000004b0       __local_stdio_printf_options 00000001800014b0 f i init.obj
 0001:000004c0       ??1HandleScope@Nan@@QEAA@XZ 00000001800014c0 f i init.obj
 0001:000004e0       init                       00000001800014e0 f   init.obj
 0001:00000610       ??1?$basic_string@DU?$char_traits@D@std@@V?$allocator@D@2@@std@@QEAA@XZ 0000000180001610 f i init.obj
 0001:00000650       ?assign@?$basic_string@DU?$char_traits@D@std@@V?$allocator@D@2@@std@@QEAAAEAV12@PEBD_K@Z 0000000180001650 f i init.obj
 0001:00000790       ?assign@?$basic_string@DU?$char_traits@D@std@@V?$allocator@D@2@@std@@QEAAAEAV12@AEBV12@_K1@Z 0000000180001790 f i init.obj
 0001:000008c0       ?_Assign_rv@?$basic_string@DU?$char_traits@D@std@@V?$allocator@D@2@@std@@QEAAX$$QEAV12@@Z 00000001800018c0 f i init.obj
 0001:00000930       ?deallocate@?$_Wrap_alloc@V?$allocator@D@std@@@std@@QEAAXPEAD_K@Z 0000000180001930 f i init.obj
 0001:00000930       ?deallocate@?$_Wrap_alloc@V?$allocator@E@std@@@std@@QEAAXPEAE_K@Z 0000000180001930 f i Matrix.obj
 0001:00000990       ?erase@?$basic_string@DU?$char_traits@D@std@@V?$allocator@D@2@@std@@QEAAAEAV12@_K0@Z 0000000180001990 f i init.obj
 0001:00000a60       ?_Copy@?$basic_string@DU?$char_traits@D@std@@V?$allocator@D@2@@std@@QEAAX_K0@Z 0000000180001a60 f i init.obj
 0001:00000b40       ?allocate@?$_Wrap_alloc@V?$allocator@D@std@@@std@@QEAAPEAD_K@Z 0000000180001b40 f i init.obj
 0001:00000bb0       printf                     0000000180001bb0 f i Matrix.obj
 0001:00000c10       __except_validate_context_record 0000000180001c10 f i libvcruntime:jbcxrval.obj
 0001:00000c10       _guard_check_icall_nop     0000000180001c10 f i LIBCMT:guard_support.obj
 0001:00000c10       ??3@YAXPEAX0@Z             0000000180001c10 f i Matrix.obj
 0001:00000c20       ??0Mat@cv@@QEAA@HHH@Z      0000000180001c20 f i Matrix.obj
 0001:00000ca0       ??0Mat@cv@@QEAA@AEBV01@@Z  0000000180001ca0 f i Matrix.obj
 0001:00000d80       ??1Mat@cv@@QEAA@XZ         0000000180001d80 f i Matrix.obj
 0001:00000dc0       ??4Mat@cv@@QEAAAEAV01@AEBV01@@Z 0000000180001dc0 f i Matrix.obj
 0001:00000e80       ?clone@Mat@cv@@QEBA?AV12@XZ 0000000180001e80 f i Matrix.obj
 0001:00000f20       ?release@Mat@cv@@QEAAXXZ   0000000180001f20 f i Matrix.obj
 0001:00000f90       ??RMat@cv@@QEBA?AV01@AEBV?$Rect_@H@1@@Z 0000000180001f90 f i Matrix.obj
 0001:00000fd0       ??BMatExpr@cv@@QEBA?AVMat@1@XZ 0000000180001fd0 f i Matrix.obj
 0001:00001130       ?NewInstance@Nan@@YA?AV?$MaybeLocal@VObject@v8@@@v8@@V?$Local@VObjectTemplate@v8@@@3@@Z 0000000180002130 f i Matrix.obj
 0001:000011b0       ?convert@?$ToFactory@VInteger@v8@@@imp@Nan@@SA?AV?$MaybeLocal@VInteger@v8@@@v8@@V?$Local@VValue@v8@@@5@@Z 00000001800021b0 f i Matrix.obj
 0001:00001240       ?New@?$Factory@VFunctionTemplate@v8@@@imp@Nan@@SA?AV?$Local@VFunctionTemplate@v8@@@v8@@P6AXAEBV?$FunctionCallbackInfo@VValue@v8@@@3@@ZV?$Local@VValue@v8@@@5@V?$Local@VSignature@v8@@@5@@Z 0000000180002240 f i Matrix.obj
 0001:000013c0       ??1EscapableHandleScope@Nan@@QEAA@XZ 00000001800023c0 f i Matrix.obj
 0001:000013f0       ?ThrowError@Nan@@YAXPEBD@Z 00000001800023f0 f i Matrix.obj
 0001:00001490       ?ThrowTypeError@Nan@@YAXPEBD@Z 0000000180002490 f i Matrix.obj
 0001:00001530       ??0Utf8String@Nan@@QEAA@V?$Local@VValue@v8@@@v8@@@Z 0000000180002530 f i Matrix.obj
 0001:00001640       ??1Utf8String@Nan@@QEAA@XZ 0000000180002640 f i Matrix.obj
 0001:00001670       ?Call@Callback@Nan@@QEBA?AV?$Local@VValue@v8@@@v8@@HQEAV34@@Z 0000000180002670 f i Matrix.obj
 0001:00001720       ?Call_@Callback@Nan@@AEBA?AV?$Local@VValue@v8@@@v8@@PEAVIsolate@4@V?$Local@VObject@v8@@@4@HQEAV34@@Z 0000000180002720 f i Matrix.obj
 0001:000017e0       ??1?$Persistent@VFunction@v8@@V?$NonCopyablePersistentTraits@VFunction@v8@@@2@@Nan@@QEAA@XZ 00000001800027e0 f i Matrix.obj
 0001:000017e0       ??1?$Persistent@VObject@v8@@V?$NonCopyablePersistentTraits@VObject@v8@@@2@@Nan@@QEAA@XZ 00000001800027e0 f i Matrix.obj
 0001:00001800       ??0AsyncWorker@Nan@@QEAA@PEAVCallback@1@@Z 0000000180002800 f i Matrix.obj
 0001:000018c0       ??1AsyncWorker@Nan@@UEAA@XZ 00000001800028c0 f i Matrix.obj
 0001:00001990       ?WorkComplete@AsyncWorker@Nan@@UEAAXXZ 0000000180002990 f i Matrix.obj
 0001:00001a30       ?Destroy@AsyncWorker@Nan@@UEAAXXZ 0000000180002a30 f i Matrix.obj
 0001:00001a50       ?HandleOKCallback@AsyncWorker@Nan@@MEAAXXZ 0000000180002a50 f i Matrix.obj
 0001:00001aa0       ?HandleErrorCallback@AsyncWorker@Nan@@MEAAXXZ 0000000180002aa0 f i Matrix.obj
 0001:00001b50       ??_GAsyncWorker@Nan@@UEAAPEAXI@Z 0000000180002b50 f i Matrix.obj
 0001:00001b50       ??_EAsyncWorker@Nan@@UEAAPEAXI@Z 0000000180002b50 f i * CIL library *:* CIL module *
 0001:00001b90       ?AsyncExecute@Nan@@YAXPEAUuv_work_s@@@Z 0000000180002b90 f i Matrix.obj
 0001:00001ba0       ?AsyncExecuteComplete@Nan@@YAXPEAUuv_work_s@@@Z 0000000180002ba0 f i Matrix.obj
 0001:00001be0       ?SetPrototypeMethod@Nan@@YAXV?$Local@VFunctionTemplate@v8@@@v8@@PEBDP6AXAEBV?$FunctionCallbackInfo@VValue@v8@@@1@@Z@Z 0000000180002be0 f i Matrix.obj
 0001:00001cf0       ??1ObjectWrap@Nan@@UEAA@XZ 0000000180002cf0 f i Matrix.obj
 0001:00001d70       ?Wrap@ObjectWrap@Nan@@IEAAXV?$Local@VObject@v8@@@v8@@@Z 0000000180002d70 f i Matrix.obj
 0001:00001e50       ?Ref@ObjectWrap@Nan@@MEAAXXZ 0000000180002e50 f i Matrix.obj
 0001:00001e90       ?Unref@ObjectWrap@Nan@@MEAAXXZ 0000000180002e90 f i Matrix.obj
 0001:00001f40       ?WeakCallback@ObjectWrap@Nan@@CAXAEBV?$WeakCallbackInfo@VObjectWrap@Nan@@@v8@@@Z 0000000180002f40 f i Matrix.obj
 0001:00001fd0       ??_GObjectWrap@Nan@@UEAAPEAXI@Z 0000000180002fd0 f i Matrix.obj
 0001:00001fd0       ??_EObjectWrap@Nan@@UEAAPEAXI@Z 0000000180002fd0 f i * CIL library *:* CIL module *
 0001:00002010       ??_EMatrix@node_opencv@@UEAAPEAXI@Z 0000000180003010 f i * CIL library *:* CIL module *
 0001:00002010       ??_GMatrix@node_opencv@@UEAAPEAXI@Z 0000000180003010 f i Matrix.obj
 0001:00002080       ??1Matrix@node_opencv@@UEAA@XZ 0000000180003080 f i Matrix.obj
 0001:000020d0       ?Init@Matrix@@SAXV?$Local@VObject@v8@@@v8@@@Z 00000001800030d0 f   Matrix.obj
 0001:00002ae0       ?New@Matrix@@SAXAEBV?$FunctionCallbackInfo@VValue@v8@@@Nan@@@Z 0000000180003ae0 f   Matrix.obj
 0001:00003050       ??0Matrix@@QEAA@XZ         0000000180004050 f   Matrix.obj
 0001:000031d0       ??_EMatrix@@UEAAPEAXI@Z    00000001800041d0 f i * CIL library *:* CIL module *
 0001:000031d0       ??_GMatrix@@UEAAPEAXI@Z    00000001800041d0 f i Matrix.obj
 0001:00003240       ??0Matrix@@QEAA@HH@Z       0000000180004240 f   Matrix.obj
 0001:000033e0       ??0Matrix@@QEAA@HHH@Z      00000001800043e0 f   Matrix.obj
 0001:00003580       ??0Matrix@@QEAA@VMat@cv@@V?$Rect_@H@2@@Z 0000000180004580 f   Matrix.obj
 0001:00003710       ??0Matrix@@QEAA@HHHV?$Local@VObject@v8@@@v8@@@Z 0000000180004710 f   Matrix.obj
 0001:00003a80       ?Empty@Matrix@@SAXAEBV?$FunctionCallbackInfo@VValue@v8@@@Nan@@@Z 0000000180004a80 f   Matrix.obj
 0001:00003b50       ?DblGet@Matrix@@SANVMat@cv@@HH@Z 0000000180004b50 f   Matrix.obj
 0001:00003c70       ?Pixel@Matrix@@SAXAEBV?$FunctionCallbackInfo@VValue@v8@@@Nan@@@Z 0000000180004c70 f   Matrix.obj
 0001:00003ff0       ?Get@Matrix@@SAXAEBV?$FunctionCallbackInfo@VValue@v8@@@Nan@@@Z 0000000180004ff0 f   Matrix.obj
 0001:00004120       ?Set@Matrix@@SAXAEBV?$FunctionCallbackInfo@VValue@v8@@@Nan@@@Z 0000000180005120 f   Matrix.obj
 0001:00004330       ?Put@Matrix@@SAXAEBV?$FunctionCallbackInfo@VValue@v8@@@Nan@@@Z 0000000180005330 f   Matrix.obj
 0001:00004420       ?GetData@Matrix@@SAXAEBV?$FunctionCallbackInfo@VValue@v8@@@Nan@@@Z 0000000180005420 f   Matrix.obj
 0001:00004710       ?Brightness@Matrix@@SAXAEBV?$FunctionCallbackInfo@VValue@v8@@@Nan@@@Z 0000000180005710 f   Matrix.obj
 0001:00005080       ??1MatExpr@cv@@QEAA@XZ     0000000180006080 f i Matrix.obj
 0001:00005110       ?Normalize@Matrix@@SAXAEBV?$FunctionCallbackInfo@VValue@v8@@@Nan@@@Z 0000000180006110 f   Matrix.obj
 0001:00005560       ?Norm@Matrix@@SAXAEBV?$FunctionCallbackInfo@VValue@v8@@@Nan@@@Z 0000000180006560 f   Matrix.obj
 0001:00005970       ?Size@Matrix@@SAXAEBV?$FunctionCallbackInfo@VValue@v8@@@Nan@@@Z 0000000180006970 f   Matrix.obj
 0001:00005a80       ?Clone@Matrix@@SAXAEBV?$FunctionCallbackInfo@VValue@v8@@@Nan@@@Z 0000000180006a80 f   Matrix.obj
 0001:00005c20       ?Crop@Matrix@@SAXAEBV?$FunctionCallbackInfo@VValue@v8@@@Nan@@@Z 0000000180006c20 f   Matrix.obj
 0001:00005f40       ?Row@Matrix@@SAXAEBV?$FunctionCallbackInfo@VValue@v8@@@Nan@@@Z 0000000180006f40 f   Matrix.obj
 0001:00006090       ?PixelRow@Matrix@@SAXAEBV?$FunctionCallbackInfo@VValue@v8@@@Nan@@@Z 0000000180007090 f   Matrix.obj
 0001:00006270       ?Col@Matrix@@SAXAEBV?$FunctionCallbackInfo@VValue@v8@@@Nan@@@Z 0000000180007270 f   Matrix.obj
 0001:000063b0       ?PixelCol@Matrix@@SAXAEBV?$FunctionCallbackInfo@VValue@v8@@@Nan@@@Z 00000001800073b0 f   Matrix.obj
 0001:00006590       ?Width@Matrix@@SAXAEBV?$FunctionCallbackInfo@VValue@v8@@@Nan@@@Z 0000000180007590 f   Matrix.obj
 0001:00006630       ?Height@Matrix@@SAXAEBV?$FunctionCallbackInfo@VValue@v8@@@Nan@@@Z 0000000180007630 f   Matrix.obj
 0001:000066d0       ?Channels@Matrix@@SAXAEBV?$FunctionCallbackInfo@VValue@v8@@@Nan@@@Z 00000001800076d0 f   Matrix.obj
 0001:00006770       ?ToBuffer@Matrix@@SAXAEBV?$FunctionCallbackInfo@VValue@v8@@@Nan@@@Z 0000000180007770 f   Matrix.obj
 0001:00007420       ??0AsyncToBufferWorker@@QEAA@PEAVCallback@Nan@@PEAVMatrix@@V?$basic_string@DU?$char_traits@D@std@@V?$allocator@D@2@@std@@V?$vector@HV?$allocator@H@std@@@5@@Z 0000000180008420 f i Matrix.obj
 0001:00007540       ??1AsyncToBufferWorker@@UEAA@XZ 0000000180008540 f i Matrix.obj
 0001:00007600       ?Execute@AsyncToBufferWorker@@UEAAXXZ 0000000180008600 f i Matrix.obj
 0001:00007700       ?HandleOKCallback@AsyncToBufferWorker@@UEAAXXZ 0000000180008700 f i Matrix.obj
 0001:00007970       ??_EAsyncToBufferWorker@@UEAAPEAXI@Z 0000000180008970 f i * CIL library *:* CIL module *
 0001:00007970       ??_GAsyncToBufferWorker@@UEAAPEAXI@Z 0000000180008970 f i Matrix.obj
 0001:000079b0       ??1TryCatch@Nan@@QEAA@XZ   00000001800089b0 f i Matrix.obj
 0001:000079d0       ?ToBufferAsync@Matrix@@SAXAEBV?$FunctionCallbackInfo@VValue@v8@@@Nan@@@Z 00000001800089d0 f   Matrix.obj
 0001:000082a0       ?Ellipse@Matrix@@SAXAEBV?$FunctionCallbackInfo@VValue@v8@@@Nan@@@Z 00000001800092a0 f   Matrix.obj
 0001:00008df0       ?Rectangle@Matrix@@SAXAEBV?$FunctionCallbackInfo@VValue@v8@@@Nan@@@Z 0000000180009df0 f   Matrix.obj
 0001:000090e0       ?Line@Matrix@@SAXAEBV?$FunctionCallbackInfo@VValue@v8@@@Nan@@@Z 000000018000a0e0 f   Matrix.obj
 0001:000093d0       ?FillPoly@Matrix@@SAXAEBV?$FunctionCallbackInfo@VValue@v8@@@Nan@@@Z 000000018000a3d0 f   Matrix.obj
 0001:000097f0       ?Save@Matrix@@SAXAEBV?$FunctionCallbackInfo@VValue@v8@@@Nan@@@Z 000000018000a7f0 f   Matrix.obj
 0001:00009a30       ??0AsyncSaveWorker@@QEAA@PEAVCallback@Nan@@PEAVMatrix@@PEAD@Z 000000018000aa30 f i Matrix.obj
 0001:00009ac0       ?Execute@AsyncSaveWorker@@UEAAXXZ 000000018000aac0 f i Matrix.obj
 0001:00009b50       ?HandleOKCallback@AsyncSaveWorker@@UEAAXXZ 000000018000ab50 f i Matrix.obj
 0001:00009c50       ??_GAsyncSaveWorker@@UEAAPEAXI@Z 000000018000ac50 f i Matrix.obj
 0001:00009c50       ??_EAsyncSaveWorker@@UEAAPEAXI@Z 000000018000ac50 f i * CIL library *:* CIL module *
 0001:00009ce0       ?SaveAsync@Matrix@@SAXAEBV?$FunctionCallbackInfo@VValue@v8@@@Nan@@@Z 000000018000ace0 f   Matrix.obj
 0001:00009ec0       ?Zeros@Matrix@@SAXAEBV?$FunctionCallbackInfo@VValue@v8@@@Nan@@@Z 000000018000aec0 f   Matrix.obj
 0001:0000a270       ?Ones@Matrix@@SAXAEBV?$FunctionCallbackInfo@VValue@v8@@@Nan@@@Z 000000018000b270 f   Matrix.obj
 0001:0000a620       ?Eye@Matrix@@SAXAEBV?$FunctionCallbackInfo@VValue@v8@@@Nan@@@Z 000000018000b620 f   Matrix.obj
 0001:0000a9d0       ?ConvertGrayscale@Matrix@@SAXAEBV?$FunctionCallbackInfo@VValue@v8@@@Nan@@@Z 000000018000b9d0 f   Matrix.obj
 0001:0000aab0       ?ConvertHSVscale@Matrix@@SAXAEBV?$FunctionCallbackInfo@VValue@v8@@@Nan@@@Z 000000018000bab0 f   Matrix.obj
 0001:0000ac80       ?GaussianBlur@Matrix@@SAXAEBV?$FunctionCallbackInfo@VValue@v8@@@Nan@@@Z 000000018000bc80 f   Matrix.obj
 0001:0000af40       ?MedianBlur@Matrix@@SAXAEBV?$FunctionCallbackInfo@VValue@v8@@@Nan@@@Z 000000018000bf40 f   Matrix.obj
 0001:0000b160       ?BilateralFilter@Matrix@@SAXAEBV?$FunctionCallbackInfo@VValue@v8@@@Nan@@@Z 000000018000c160 f   Matrix.obj
 0001:0000b420       ?Sobel@Matrix@@SAXAEBV?$FunctionCallbackInfo@VValue@v8@@@Nan@@@Z 000000018000c420 f   Matrix.obj
 0001:0000b680       ?Copy@Matrix@@SAXAEBV?$FunctionCallbackInfo@VValue@v8@@@Nan@@@Z 000000018000c680 f   Matrix.obj
 0001:0000b770       ?Flip@Matrix@@SAXAEBV?$FunctionCallbackInfo@VValue@v8@@@Nan@@@Z 000000018000c770 f   Matrix.obj
 0001:0000b8f0       ?ROI@Matrix@@SAXAEBV?$FunctionCallbackInfo@VValue@v8@@@Nan@@@Z 000000018000c8f0 f   Matrix.obj
 0001:0000bb40       ?Ptr@Matrix@@SAXAEBV?$FunctionCallbackInfo@VValue@v8@@@Nan@@@Z 000000018000cb40 f   Matrix.obj
 0001:0000bc50       ?AbsDiff@Matrix@@SAXAEBV?$FunctionCallbackInfo@VValue@v8@@@Nan@@@Z 000000018000cc50 f   Matrix.obj
 0001:0000bd90       ?AddWeighted@Matrix@@SAXAEBV?$FunctionCallbackInfo@VValue@v8@@@Nan@@@Z 000000018000cd90 f   Matrix.obj
 0001:0000bf70       ?BitwiseXor@Matrix@@SAXAEBV?$FunctionCallbackInfo@VValue@v8@@@Nan@@@Z 000000018000cf70 f   Matrix.obj
 0001:0000c150       ?BitwiseNot@Matrix@@SAXAEBV?$FunctionCallbackInfo@VValue@v8@@@Nan@@@Z 000000018000d150 f   Matrix.obj
 0001:0000c2d0       ?BitwiseAnd@Matrix@@SAXAEBV?$FunctionCallbackInfo@VValue@v8@@@Nan@@@Z 000000018000d2d0 f   Matrix.obj
 0001:0000c4b0       ?CountNonZero@Matrix@@SAXAEBV?$FunctionCallbackInfo@VValue@v8@@@Nan@@@Z 000000018000d4b0 f   Matrix.obj
 0001:0000c570       ?Moments@Matrix@@SAXAEBV?$FunctionCallbackInfo@VValue@v8@@@Nan@@@Z 000000018000d570 f   Matrix.obj
 0001:0000cfa0       ?Canny@Matrix@@SAXAEBV?$FunctionCallbackInfo@VValue@v8@@@Nan@@@Z 000000018000dfa0 f   Matrix.obj
 0001:0000d0d0       ?Dilate@Matrix@@SAXAEBV?$FunctionCallbackInfo@VValue@v8@@@Nan@@@Z 000000018000e0d0 f   Matrix.obj
 0001:0000d310       ?Erode@Matrix@@SAXAEBV?$FunctionCallbackInfo@VValue@v8@@@Nan@@@Z 000000018000e310 f   Matrix.obj
 0001:0000d550       ?FindContours@Matrix@@SAXAEBV?$FunctionCallbackInfo@VValue@v8@@@Nan@@@Z 000000018000e550 f   Matrix.obj
 0001:0000d740       ?DrawContour@Matrix@@SAXAEBV?$FunctionCallbackInfo@VValue@v8@@@Nan@@@Z 000000018000e740 f   Matrix.obj
 0001:0000d9f0       ?DrawAllContours@Matrix@@SAXAEBV?$FunctionCallbackInfo@VValue@v8@@@Nan@@@Z 000000018000e9f0 f   Matrix.obj
 0001:0000dc70       ?GoodFeaturesToTrack@Matrix@@SAXAEBV?$FunctionCallbackInfo@VValue@v8@@@Nan@@@Z 000000018000ec70 f   Matrix.obj
 0001:0000e040       ?HoughLinesP@Matrix@@SAXAEBV?$FunctionCallbackInfo@VValue@v8@@@Nan@@@Z 000000018000f040 f   Matrix.obj
 0001:0000e560       ?HoughCircles@Matrix@@SAXAEBV?$FunctionCallbackInfo@VValue@v8@@@Nan@@@Z 000000018000f560 f   Matrix.obj
 0001:0000eab0       ?setColor@@YA?AV?$Scalar_@N@cv@@V?$Local@VObject@v8@@@v8@@@Z 000000018000fab0 f   Matrix.obj
 0001:0000eb80       ?setRect@@YAPEAV?$Rect_@H@cv@@V?$Local@VObject@v8@@@v8@@AEAV12@@Z 000000018000fb80 f   Matrix.obj
 0001:0000ecd0       ?Resize@Matrix@@SAXAEBV?$FunctionCallbackInfo@VValue@v8@@@Nan@@@Z 000000018000fcd0 f   Matrix.obj
 0001:0000ef90       ?Rotate@Matrix@@SAXAEBV?$FunctionCallbackInfo@VValue@v8@@@Nan@@@Z 000000018000ff90 f   Matrix.obj
 0001:0000f640       ?GetRotationMatrix2D@Matrix@@SAXAEBV?$FunctionCallbackInfo@VValue@v8@@@Nan@@@Z 0000000180010640 f   Matrix.obj
 0001:0000f910       ?WarpAffine@Matrix@@SAXAEBV?$FunctionCallbackInfo@VValue@v8@@@Nan@@@Z 0000000180010910 f   Matrix.obj
 0001:0000fc60       ?PyrDown@Matrix@@SAXAEBV?$FunctionCallbackInfo@VValue@v8@@@Nan@@@Z 0000000180010c60 f   Matrix.obj
 0001:0000fd00       ?PyrUp@Matrix@@SAXAEBV?$FunctionCallbackInfo@VValue@v8@@@Nan@@@Z 0000000180010d00 f   Matrix.obj
 0001:0000fda0       ?inRange@Matrix@@SAXAEBV?$FunctionCallbackInfo@VValue@v8@@@Nan@@@Z 0000000180010da0 f   Matrix.obj
 0001:00010090       ?AdjustROI@Matrix@@SAXAEBV?$FunctionCallbackInfo@VValue@v8@@@Nan@@@Z 0000000180011090 f   Matrix.obj
 0001:000101e0       ?LocateROI@Matrix@@SAXAEBV?$FunctionCallbackInfo@VValue@v8@@@Nan@@@Z 00000001800111e0 f   Matrix.obj
 0001:00010350       ?Threshold@Matrix@@SAXAEBV?$FunctionCallbackInfo@VValue@v8@@@Nan@@@Z 0000000180011350 f   Matrix.obj
 0001:00010880       ?AdaptiveThreshold@Matrix@@SAXAEBV?$FunctionCallbackInfo@VValue@v8@@@Nan@@@Z 0000000180011880 f   Matrix.obj
 0001:00010ad0       ?MeanStdDev@Matrix@@SAXAEBV?$FunctionCallbackInfo@VValue@v8@@@Nan@@@Z 0000000180011ad0 f   Matrix.obj
 0001:00010cd0       ?CopyTo@Matrix@@SAXAEBV?$FunctionCallbackInfo@VValue@v8@@@Nan@@@Z 0000000180011cd0 f   Matrix.obj
 0001:00010eb0       ?ConvertTo@Matrix@@SAXAEBV?$FunctionCallbackInfo@VValue@v8@@@Nan@@@Z 0000000180011eb0 f   Matrix.obj
 0001:000110b0       ?CvtColor@Matrix@@SAXAEBV?$FunctionCallbackInfo@VValue@v8@@@Nan@@@Z 00000001800120b0 f   Matrix.obj
 0001:00011440       ?Split@Matrix@@SAXAEBV?$FunctionCallbackInfo@VValue@v8@@@Nan@@@Z 0000000180012440 f   Matrix.obj
 0001:00011880       ?Merge@Matrix@@SAXAEBV?$FunctionCallbackInfo@VValue@v8@@@Nan@@@Z 0000000180012880 f   Matrix.obj
 0001:00011b60       ?EqualizeHist@Matrix@@SAXAEBV?$FunctionCallbackInfo@VValue@v8@@@Nan@@@Z 0000000180012b60 f   Matrix.obj
 0001:00011be0       ?FloodFill@Matrix@@SAXAEBV?$FunctionCallbackInfo@VValue@v8@@@Nan@@@Z 0000000180012be0 f   Matrix.obj
 0001:00012010       ?TemplateMatches@Matrix@@SAXAEBV?$FunctionCallbackInfo@VValue@v8@@@Nan@@@Z 0000000180013010 f   Matrix.obj
 0001:00012fc0       ??1?$Mat_@H@cv@@QEAA@XZ    0000000180013fc0 f i Matrix.obj
 0001:00013000       ?MatchTemplateByMatrix@Matrix@@SAXAEBV?$FunctionCallbackInfo@VValue@v8@@@Nan@@@Z 0000000180014000 f   Matrix.obj
 0001:000131f0       ?MatchTemplate@Matrix@@SAXAEBV?$FunctionCallbackInfo@VValue@v8@@@Nan@@@Z 00000001800141f0 f   Matrix.obj
 0001:000139b0       ?MinMaxLoc@Matrix@@SAXAEBV?$FunctionCallbackInfo@VValue@v8@@@Nan@@@Z 00000001800149b0 f   Matrix.obj
 0001:00013eb0       ?PushBack@Matrix@@SAXAEBV?$FunctionCallbackInfo@VValue@v8@@@Nan@@@Z 0000000180014eb0 f   Matrix.obj
 0001:00013f70       ?PutText@Matrix@@SAXAEBV?$FunctionCallbackInfo@VValue@v8@@@Nan@@@Z 0000000180014f70 f   Matrix.obj
 0001:00014430       ?GetPerspectiveTransform@Matrix@@SAXAEBV?$FunctionCallbackInfo@VValue@v8@@@Nan@@@Z 0000000180015430 f   Matrix.obj
 0001:00014970       ?WarpPerspective@Matrix@@SAXAEBV?$FunctionCallbackInfo@VValue@v8@@@Nan@@@Z 0000000180015970 f   Matrix.obj
 0001:00014d80       ?CopyWithMask@Matrix@@SAXAEBV?$FunctionCallbackInfo@VValue@v8@@@Nan@@@Z 0000000180015d80 f   Matrix.obj
 0001:00014e80       ?SetWithMask@Matrix@@SAXAEBV?$FunctionCallbackInfo@VValue@v8@@@Nan@@@Z 0000000180015e80 f   Matrix.obj
 0001:00015010       ?MeanWithMask@Matrix@@SAXAEBV?$FunctionCallbackInfo@VValue@v8@@@Nan@@@Z 0000000180016010 f   Matrix.obj
 0001:000151f0       ?Mean@Matrix@@SAXAEBV?$FunctionCallbackInfo@VValue@v8@@@Nan@@@Z 00000001800161f0 f   Matrix.obj
 0001:000153a0       ?Shift@Matrix@@SAXAEBV?$FunctionCallbackInfo@VValue@v8@@@Nan@@@Z 00000001800163a0 f   Matrix.obj
 0001:00015840       ?Reshape@Matrix@@SAXAEBV?$FunctionCallbackInfo@VValue@v8@@@Nan@@@Z 0000000180016840 f   Matrix.obj
 0001:00015af0       ?Release@Matrix@@SAXAEBV?$FunctionCallbackInfo@VValue@v8@@@Nan@@@Z 0000000180016af0 f   Matrix.obj
 0001:00015b50       ?Subtract@Matrix@@SAXAEBV?$FunctionCallbackInfo@VValue@v8@@@Nan@@@Z 0000000180016b50 f   Matrix.obj
 0001:00015c60       ??1?$vector@V?$Vec@M$02@cv@@V?$allocator@V?$Vec@M$02@cv@@@std@@@std@@QEAA@XZ 0000000180016c60 f i Matrix.obj
 0001:00015c70       ??1?$Persistent@VFunctionTemplate@v8@@V?$NonCopyablePersistentTraits@VFunctionTemplate@v8@@@2@@v8@@QEAA@XZ 0000000180016c70 f i Matrix.obj
 0001:00015c70       ??1?$Persistent@VObject@v8@@V?$NonCopyablePersistentTraits@VObject@v8@@@2@@v8@@QEAA@XZ 0000000180016c70 f i Matrix.obj
 0001:00015c70       ??1?$Persistent@VFunction@v8@@V?$NonCopyablePersistentTraits@VFunction@v8@@@2@@v8@@QEAA@XZ 0000000180016c70 f i Matrix.obj
 0001:00015c90       ??1?$vector@UDMatch@cv@@V?$allocator@UDMatch@cv@@@std@@@std@@QEAA@XZ 0000000180016c90 f i Features2d.obj
 0001:00015c90       ??1?$vector@V?$Vec@H$03@cv@@V?$allocator@V?$Vec@H$03@cv@@@std@@@std@@QEAA@XZ 0000000180016c90 f i Matrix.obj
 0001:00015c90       ??1?$vector@V?$Rect_@H@cv@@V?$allocator@V?$Rect_@H@cv@@@std@@@std@@QEAA@XZ 0000000180016c90 f i CascadeClassifierWrap.obj
 0001:00015cd0       ??1?$vector@V?$Point_@M@cv@@V?$allocator@V?$Point_@M@cv@@@std@@@std@@QEAA@XZ 0000000180016cd0 f i Matrix.obj
 0001:00015cd0       ??1?$vector@V?$Point_@H@cv@@V?$allocator@V?$Point_@H@cv@@@std@@@std@@QEAA@XZ 0000000180016cd0 f i Contours.obj
 0001:00015d10       ??1?$vector@HV?$allocator@H@std@@@std@@QEAA@XZ 0000000180016d10 f i Matrix.obj
 0001:00015d50       ??0?$vector@HV?$allocator@H@std@@@std@@QEAA@AEBV01@@Z 0000000180016d50 f i Matrix.obj
 0001:00015e00       ??1?$vector@VMat@cv@@V?$allocator@VMat@cv@@@std@@@std@@QEAA@XZ 0000000180016e00 f i Matrix.obj
 0001:00015e60       ??4?$vector@EV?$allocator@E@std@@@std@@QEAAAEAV01@AEBV01@@Z 0000000180016e60 f i Matrix.obj
 0001:00015f70       ??1?$vector@EV?$allocator@E@std@@@std@@QEAA@XZ 0000000180016f70 f i Matrix.obj
 0001:00015f80       ?_Tidy@?$vector@V?$Vec@M$02@cv@@V?$allocator@V?$Vec@M$02@cv@@@std@@@std@@IEAAXXZ 0000000180016f80 f i Matrix.obj
 0001:00016030       ?_Reserve@?$vector@HV?$allocator@H@std@@@std@@IEAAX_K@Z 0000000180017030 f i Matrix.obj
 0001:000160c0       ?_Reserve@?$vector@VMat@cv@@V?$allocator@VMat@cv@@@std@@@std@@IEAAX_K@Z 00000001800170c0 f i Matrix.obj
 0001:00016190       ?_Tidy@?$vector@EV?$allocator@E@std@@@std@@IEAAXXZ 0000000180017190 f i Matrix.obj
 0001:00016210       ?_Buy@?$vector@EV?$allocator@E@std@@@std@@IEAA_N_K@Z 0000000180017210 f i Matrix.obj
 0001:000162b0       ?deallocate@?$_Wrap_alloc@V?$allocator@V?$Point_@M@cv@@@std@@@std@@QEAAXPEAV?$Point_@M@cv@@_K@Z 00000001800172b0 f i Matrix.obj
 0001:000162b0       ?deallocate@?$_Wrap_alloc@V?$allocator@V?$Point_@H@cv@@@std@@@std@@QEAAXPEAV?$Point_@H@cv@@_K@Z 00000001800172b0 f i Contours.obj
 0001:00016320       ?deallocate@?$_Wrap_alloc@V?$allocator@UDMatch@cv@@@std@@@std@@QEAAXPEAUDMatch@cv@@_K@Z 0000000180017320 f i Features2d.obj
 0001:00016320       ?deallocate@?$_Wrap_alloc@V?$allocator@V?$Rect_@H@cv@@@std@@@std@@QEAAXPEAV?$Rect_@H@cv@@_K@Z 0000000180017320 f i CascadeClassifierWrap.obj
 0001:00016320       ?deallocate@?$_Wrap_alloc@V?$allocator@V?$Vec@H$03@cv@@@std@@@std@@QEAAXPEAV?$Vec@H$03@cv@@_K@Z 0000000180017320 f i Matrix.obj
 0001:00016390       ?deallocate@?$_Wrap_alloc@V?$allocator@VMat@cv@@@std@@@std@@QEAAXPEAVMat@cv@@_K@Z 0000000180017390 f i Matrix.obj
 0001:00016400       ?deallocate@?$_Wrap_alloc@V?$allocator@H@std@@@std@@QEAAXPEAH_K@Z 0000000180017400 f i Matrix.obj
 0001:00016470       ?_Reallocate@?$vector@HV?$allocator@H@std@@@std@@IEAAX_K@Z 0000000180017470 f i Matrix.obj
 0001:000164f0       ?_Reallocate@?$vector@VMat@cv@@V?$allocator@VMat@cv@@@std@@@std@@IEAAX_K@Z 00000001800174f0 f i Matrix.obj
 0001:000165f0       ?allocate@?$allocator@V?$Point_@M@cv@@@std@@QEAAPEAV?$Point_@M@cv@@_K@Z 00000001800175f0 f i Matrix.obj
 0001:000165f0       ?allocate@?$allocator@V?$Point_@H@cv@@@std@@QEAAPEAV?$Point_@H@cv@@_K@Z 00000001800175f0 f i Contours.obj
 0001:00016670       ?allocate@?$allocator@H@std@@QEAAPEAH_K@Z 0000000180017670 f i Matrix.obj
 0001:000166f0       ?allocate@?$allocator@VMat@cv@@@std@@QEAAPEAVMat@cv@@_K@Z 00000001800176f0 f i Matrix.obj
 0001:00016770       ??$New@VBoolean@v8@@_N@Nan@@YA?AV?$Local@VBoolean@v8@@@v8@@_N@Z 0000000180017770 f i Matrix.obj
 0001:000167c0       ??$New@VNumber@v8@@N@Nan@@YA?AV?$Local@VNumber@v8@@@v8@@N@Z 00000001800177c0 f i Matrix.obj
 0001:00016800       ??$New@VString@v8@@PEBD@Nan@@YA?AV?$MaybeLocal@VString@v8@@@v8@@PEBD@Z 0000000180017800 f i Matrix.obj
 0001:00016840       ??$New@VObject@v8@@@Nan@@YA?AV?$Local@VObject@v8@@@v8@@XZ 0000000180017840 f i Matrix.obj
 0001:00016870       ??$SetMethod@VFunctionTemplate@v8@@VLocal@2@@Nan@@YAXV?$Local@VFunctionTemplate@v8@@@v8@@PEBDP6AXAEBV?$FunctionCallbackInfo@VValue@v8@@@0@@Z@Z 0000000180017870 f i Matrix.obj
 0001:00016940       ??$Unwrap@VStereoBM@@@ObjectWrap@Nan@@SAPEAVStereoBM@@V?$Local@VObject@v8@@@v8@@@Z 0000000180017940 f i Stereo.obj
 0001:00016940       ??$Unwrap@VBackgroundSubtractorWrap@@@ObjectWrap@Nan@@SAPEAVBackgroundSubtractorWrap@@V?$Local@VObject@v8@@@v8@@@Z 0000000180017940 f i BackgroundSubtractor.obj
 0001:00016940       ??$Unwrap@VCascadeClassifierWrap@@@ObjectWrap@Nan@@SAPEAVCascadeClassifierWrap@@V?$Local@VObject@v8@@@v8@@@Z 0000000180017940 f i CascadeClassifierWrap.obj
 0001:00016940       ??$Unwrap@VNamedWindow@@@ObjectWrap@Nan@@SAPEAVNamedWindow@@V?$Local@VObject@v8@@@v8@@@Z 0000000180017940 f i HighGUI.obj
 0001:00016940       ??$Unwrap@VPoint@@@ObjectWrap@Nan@@SAPEAVPoint@@V?$Local@VObject@v8@@@v8@@@Z 0000000180017940 f i Point.obj
 0001:00016940       ??$Unwrap@VVideoCaptureWrap@@@ObjectWrap@Nan@@SAPEAVVideoCaptureWrap@@V?$Local@VObject@v8@@@v8@@@Z 0000000180017940 f i VideoCaptureWrap.obj
 0001:00016940       ??$Unwrap@VMatrix@@@ObjectWrap@Nan@@SAPEAVMatrix@@V?$Local@VObject@v8@@@v8@@@Z 0000000180017940 f i Matrix.obj
 0001:00016940       ??$Unwrap@VStereoSGBM@@@ObjectWrap@Nan@@SAPEAVStereoSGBM@@V?$Local@VObject@v8@@@v8@@@Z 0000000180017940 f i Stereo.obj
 0001:00016940       ??$Unwrap@VStereoGC@@@ObjectWrap@Nan@@SAPEAVStereoGC@@V?$Local@VObject@v8@@@v8@@@Z 0000000180017940 f i Stereo.obj
 0001:00016940       ??$Unwrap@VContour@@@ObjectWrap@Nan@@SAPEAVContour@@V?$Local@VObject@v8@@@v8@@@Z 0000000180017940 f i Matrix.obj
 0001:00016940       ??$Unwrap@VTrackedObject@@@ObjectWrap@Nan@@SAPEAVTrackedObject@@V?$Local@VObject@v8@@@v8@@@Z 0000000180017940 f i CamShift.obj
 0001:00016940       ??$Unwrap@VFaceRecognizerWrap@@@ObjectWrap@Nan@@SAPEAVFaceRecognizerWrap@@V?$Local@VObject@v8@@@v8@@@Z 0000000180017940 f i FaceRecognizer.obj
 0001:000169c0       ??$New@VArray@v8@@_K@Nan@@YA?AV?$Local@VArray@v8@@@v8@@_K@Z 00000001800179c0 f i Matrix.obj
 0001:00016a00       ??$New@VNumber@v8@@M@Nan@@YA?AV?$Local@VNumber@v8@@@v8@@M@Z 0000000180017a00 f i Matrix.obj
 0001:00016a40       ??$New@VNumber@v8@@I@Nan@@YA?AV?$Local@VNumber@v8@@@v8@@I@Z 0000000180017a40 f i Matrix.obj
 0001:00016a80       ??$_Destroy_range@U?$_Wrap_alloc@V?$allocator@VMat@cv@@@std@@@std@@@std@@YAXPEAVMat@cv@@0AEAU?$_Wrap_alloc@V?$allocator@VMat@cv@@@std@@@0@@Z 0000000180017a80 f i Matrix.obj
 0001:00016b30       ??$_Uninitialized_default_fill_n1@PEAVMat@cv@@_KV?$allocator@VMat@cv@@@std@@U?$integral_constant@_N$0A@@4@@std@@YAXPEAVMat@cv@@_KAEAU?$_Wrap_alloc@V?$allocator@VMat@cv@@@std@@@0@U?$integral_constant@_N$0A@@0@@Z 0000000180017b30 f i Matrix.obj
 0001:00016bb0       sprintf                    0000000180017bb0 f i OpenCV.obj
 0001:00016c10       ??0Mat@cv@@QEAA@HHHPEAX_K@Z 0000000180017c10 f i OpenCV.obj
 0001:00016cd0       ?GetFunction@Nan@@YA?AV?$MaybeLocal@VFunction@v8@@@v8@@V?$Local@VFunctionTemplate@v8@@@3@@Z 0000000180017cd0 f i OpenCV.obj
 0001:00016d50       ?Error@Nan@@YA?AV?$Local@VValue@v8@@@v8@@PEBD@Z 0000000180017d50 f i OpenCV.obj
 0001:00016e00       ?Init@OpenCV@@SAXV?$Local@VObject@v8@@@v8@@@Z 0000000180017e00 f   OpenCV.obj
 0001:00016f20       ?ReadImage@OpenCV@@SAXAEBV?$FunctionCallbackInfo@VValue@v8@@@Nan@@@Z 0000000180017f20 f   OpenCV.obj
 0001:00017700       ??$SetMethod@VObject@v8@@VLocal@2@@Nan@@YAXV?$Local@VObject@v8@@@v8@@PEBDP6AXAEBV?$FunctionCallbackInfo@VValue@v8@@@0@@Z@Z 0000000180018700 f i OpenCV.obj
 0001:000177c0       ??$SetMethodAux@V?$Local@VObject@v8@@@v8@@@imp@Nan@@YAXV?$Local@VObject@v8@@@v8@@V?$Local@VString@v8@@@3@V?$Local@VFunctionTemplate@v8@@@3@ZZ 00000001800187c0 f i OpenCV.obj
 0001:00017810       ?SetErrorMessage@AsyncWorker@Nan@@IEAAXPEBD@Z 0000000180018810 f i CascadeClassifierWrap.obj
 0001:00017870       ?Init@CascadeClassifierWrap@@SAXV?$Local@VObject@v8@@@v8@@@Z 0000000180018870 f   CascadeClassifierWrap.obj
 0001:000179e0       ?New@CascadeClassifierWrap@@SAXAEBV?$FunctionCallbackInfo@VValue@v8@@@Nan@@@Z 00000001800189e0 f   CascadeClassifierWrap.obj
 0001:00017aa0       ??0CascadeClassifierWrap@@QEAA@PEAVValue@v8@@@Z 0000000180018aa0 f   CascadeClassifierWrap.obj
 0001:00017d20       ??_GCascadeClassifierWrap@@UEAAPEAXI@Z 0000000180018d20 f i CascadeClassifierWrap.obj
 0001:00017d20       ??_ECascadeClassifierWrap@@UEAAPEAXI@Z 0000000180018d20 f i * CIL library *:* CIL module *
 0001:00017d80       ??0AsyncDetectMultiScale@@QEAA@PEAVCallback@Nan@@PEAVCascadeClassifierWrap@@PEAVMatrix@@NHHH@Z 0000000180018d80 f i CascadeClassifierWrap.obj
 0001:00017e20       ?Execute@AsyncDetectMultiScale@@UEAAXXZ 0000000180018e20 f i CascadeClassifierWrap.obj
 0001:000181d0       ?HandleOKCallback@AsyncDetectMultiScale@@UEAAXXZ 00000001800191d0 f i CascadeClassifierWrap.obj
 0001:00018500       ??_EAsyncDetectMultiScale@@UEAAPEAXI@Z 0000000180019500 f i * CIL library *:* CIL module *
 0001:00018500       ??_GAsyncDetectMultiScale@@UEAAPEAXI@Z 0000000180019500 f i CascadeClassifierWrap.obj
 0001:00018590       ?DetectMultiScale@CascadeClassifierWrap@@SAXAEBV?$FunctionCallbackInfo@VValue@v8@@@Nan@@@Z 0000000180019590 f   CascadeClassifierWrap.obj
 0001:00018870       ?allocate@?$allocator@UDMatch@cv@@@std@@QEAAPEAUDMatch@cv@@_K@Z 0000000180019870 f i Features2d.obj
 0001:00018870       ?allocate@?$allocator@V?$Rect_@H@cv@@@std@@QEAAPEAV?$Rect_@H@cv@@_K@Z 0000000180019870 f i CascadeClassifierWrap.obj
 0001:00018870       ?allocate@?$allocator@V?$Vec@H$03@cv@@@std@@QEAAPEAV?$Vec@H$03@cv@@_K@Z 0000000180019870 f i Contours.obj
 0001:000188f0       ??$_Copy_unchecked@PEAV?$Rect_@H@cv@@PEAV12@@std@@YAPEAV?$Rect_@H@cv@@PEAV12@00@Z 00000001800198f0 f i CascadeClassifierWrap.obj
 0001:00018940       ??$_Ucopy@PEAV?$Vec@H$03@cv@@@?$vector@V?$Vec@H$03@cv@@V?$allocator@V?$Vec@H$03@cv@@@std@@@std@@IEAAPEAV?$Vec@H$03@cv@@PEAV23@00@Z 0000000180019940 f i Contours.obj
 0001:00018940       ??$_Ucopy@PEAV?$Rect_@H@cv@@@?$vector@V?$Rect_@H@cv@@V?$allocator@V?$Rect_@H@cv@@@std@@@std@@IEAAPEAV?$Rect_@H@cv@@PEAV23@00@Z 0000000180019940 f i CascadeClassifierWrap.obj
 0001:000189b0       ?Init@Contour@@SAXV?$Local@VObject@v8@@@v8@@@Z 00000001800199b0 f   Contours.obj
 0001:00018c70       ?New@Contour@@SAXAEBV?$FunctionCallbackInfo@VValue@v8@@@Nan@@@Z 0000000180019c70 f   Contours.obj
 0001:00018da0       ??_EContour@@UEAAPEAXI@Z   0000000180019da0 f i * CIL library *:* CIL module *
 0001:00018da0       ??_GContour@@UEAAPEAXI@Z   0000000180019da0 f i Contours.obj
 0001:00018de0       ??1Contour@@UEAA@XZ        0000000180019de0 f i Contours.obj
 0001:00018ec0       ?Point@Contour@@SAXAEBV?$FunctionCallbackInfo@VValue@v8@@@Nan@@@Z 0000000180019ec0 f   Contours.obj
 0001:000190c0       ?Points@Contour@@SAXAEBV?$FunctionCallbackInfo@VValue@v8@@@Nan@@@Z 000000018001a0c0 f   Contours.obj
 0001:00019350       ?Size@Contour@@SAXAEBV?$FunctionCallbackInfo@VValue@v8@@@Nan@@@Z 000000018001a350 f   Contours.obj
 0001:00019420       ?CornerCount@Contour@@SAXAEBV?$FunctionCallbackInfo@VValue@v8@@@Nan@@@Z 000000018001a420 f   Contours.obj
 0001:00019510       ?Area@Contour@@SAXAEBV?$FunctionCallbackInfo@VValue@v8@@@Nan@@@Z 000000018001a510 f   Contours.obj
 0001:00019720       ?ArcLength@Contour@@SAXAEBV?$FunctionCallbackInfo@VValue@v8@@@Nan@@@Z 000000018001a720 f   Contours.obj
 0001:00019970       ?ApproxPolyDP@Contour@@SAXAEBV?$FunctionCallbackInfo@VValue@v8@@@Nan@@@Z 000000018001a970 f   Contours.obj
 0001:00019cd0       ?ConvexHull@Contour@@SAXAEBV?$FunctionCallbackInfo@VValue@v8@@@Nan@@@Z 000000018001acd0 f   Contours.obj
 0001:0001a000       ?BoundingRect@Contour@@SAXAEBV?$FunctionCallbackInfo@VValue@v8@@@Nan@@@Z 000000018001b000 f   Contours.obj
 0001:0001a3d0       ?MinAreaRect@Contour@@SAXAEBV?$FunctionCallbackInfo@VValue@v8@@@Nan@@@Z 000000018001b3d0 f   Contours.obj
 0001:0001aa30       ?FitEllipse@Contour@@SAXAEBV?$FunctionCallbackInfo@VValue@v8@@@Nan@@@Z 000000018001ba30 f   Contours.obj
 0001:0001af60       ?IsConvex@Contour@@SAXAEBV?$FunctionCallbackInfo@VValue@v8@@@Nan@@@Z 000000018001bf60 f   Contours.obj
 0001:0001b170       ?Moments@Contour@@SAXAEBV?$FunctionCallbackInfo@VValue@v8@@@Nan@@@Z 000000018001c170 f   Contours.obj
 0001:0001b410       ?Hierarchy@Contour@@SAXAEBV?$FunctionCallbackInfo@VValue@v8@@@Nan@@@Z 000000018001c410 f   Contours.obj
 0001:0001b600       ?Serialize@Contour@@SAXAEBV?$FunctionCallbackInfo@VValue@v8@@@Nan@@@Z 000000018001c600 f   Contours.obj
 0001:0001bb80       ?Deserialize@Contour@@SAXAEBV?$FunctionCallbackInfo@VValue@v8@@@Nan@@@Z 000000018001cb80 f   Contours.obj
 0001:0001c8b0       ??4?$vector@V?$Vec@H$03@cv@@V?$allocator@V?$Vec@H$03@cv@@@std@@@std@@QEAAAEAV01@AEBV01@@Z 000000018001d8b0 f i Contours.obj
 0001:0001ca00       ??4?$vector@V?$vector@V?$Point_@H@cv@@V?$allocator@V?$Point_@H@cv@@@std@@@std@@V?$allocator@V?$vector@V?$Point_@H@cv@@V?$allocator@V?$Point_@H@cv@@@std@@@std@@@2@@std@@QEAAAEAV01@AEBV01@@Z 000000018001da00 f i Contours.obj
 0001:0001cbe0       ??1?$vector@V?$vector@V?$Point_@H@cv@@V?$allocator@V?$Point_@H@cv@@@std@@@std@@V?$allocator@V?$vector@V?$Point_@H@cv@@V?$allocator@V?$Point_@H@cv@@@std@@@std@@@2@@std@@QEAA@XZ 000000018001dbe0 f i Contours.obj
 0001:0001cbe0       ??1?$vector@V?$vector@V?$Point_@M@cv@@V?$allocator@V?$Point_@M@cv@@@std@@@std@@V?$allocator@V?$vector@V?$Point_@M@cv@@V?$allocator@V?$Point_@M@cv@@@std@@@std@@@2@@std@@QEAA@XZ 000000018001dbe0 f i Calib3D.obj
 0001:0001cc40       ??0?$vector@V?$Point_@H@cv@@V?$allocator@V?$Point_@H@cv@@@std@@@std@@QEAA@AEBV01@@Z 000000018001dc40 f i Contours.obj
 0001:0001cd10       ?deallocate@?$_Wrap_alloc@V?$allocator@V?$vector@V?$Point3_@M@cv@@V?$allocator@V?$Point3_@M@cv@@@std@@@std@@@std@@@std@@QEAAXPEAV?$vector@V?$Point3_@M@cv@@V?$allocator@V?$Point3_@M@cv@@@std@@@2@_K@Z 000000018001dd10 f i Calib3D.obj
 0001:0001cd10       ?deallocate@?$_Wrap_alloc@V?$allocator@V?$vector@V?$Point_@H@cv@@V?$allocator@V?$Point_@H@cv@@@std@@@std@@@std@@@std@@QEAAXPEAV?$vector@V?$Point_@H@cv@@V?$allocator@V?$Point_@H@cv@@@std@@@2@_K@Z 000000018001dd10 f i Contours.obj
 0001:0001cd10       ?deallocate@?$_Wrap_alloc@V?$allocator@V?$vector@V?$Point_@M@cv@@V?$allocator@V?$Point_@M@cv@@@std@@@std@@@std@@@std@@QEAAXPEAV?$vector@V?$Point_@M@cv@@V?$allocator@V?$Point_@M@cv@@@std@@@2@_K@Z 000000018001dd10 f i Calib3D.obj
 0001:0001cd80       ?_Reallocate@?$vector@V?$Vec@H$03@cv@@V?$allocator@V?$Vec@H$03@cv@@@std@@@std@@IEAAX_K@Z 000000018001dd80 f i Contours.obj
 0001:0001ce50       ?_Reallocate@?$vector@V?$vector@V?$Point_@M@cv@@V?$allocator@V?$Point_@M@cv@@@std@@@std@@V?$allocator@V?$vector@V?$Point_@M@cv@@V?$allocator@V?$Point_@M@cv@@@std@@@std@@@2@@std@@IEAAX_K@Z 000000018001de50 f i Calib3D.obj
 0001:0001ce50       ?_Reallocate@?$vector@V?$vector@V?$Point_@H@cv@@V?$allocator@V?$Point_@H@cv@@@std@@@std@@V?$allocator@V?$vector@V?$Point_@H@cv@@V?$allocator@V?$Point_@H@cv@@@std@@@std@@@2@@std@@IEAAX_K@Z 000000018001de50 f i Contours.obj
 0001:0001cf70       ?allocate@?$allocator@V?$vector@V?$Point_@M@cv@@V?$allocator@V?$Point_@M@cv@@@std@@@std@@@std@@QEAAPEAV?$vector@V?$Point_@M@cv@@V?$allocator@V?$Point_@M@cv@@@std@@@2@_K@Z 000000018001df70 f i Calib3D.obj
 0001:0001cf70       ?allocate@?$allocator@V?$vector@V?$Point_@H@cv@@V?$allocator@V?$Point_@H@cv@@@std@@@std@@@std@@QEAAPEAV?$vector@V?$Point_@H@cv@@V?$allocator@V?$Point_@H@cv@@@std@@@2@_K@Z 000000018001df70 f i Contours.obj
 0001:0001cf70       ?allocate@?$allocator@V?$vector@V?$Point3_@M@cv@@V?$allocator@V?$Point3_@M@cv@@@std@@@std@@@std@@QEAAPEAV?$vector@V?$Point3_@M@cv@@V?$allocator@V?$Point3_@M@cv@@@std@@@2@_K@Z 000000018001df70 f i Calib3D.obj
 0001:0001cff0       ??$_Ucopy@PEAV?$vector@V?$Point_@H@cv@@V?$allocator@V?$Point_@H@cv@@@std@@@std@@@?$vector@V?$vector@V?$Point_@H@cv@@V?$allocator@V?$Point_@H@cv@@@std@@@std@@V?$allocator@V?$vector@V?$Point_@H@cv@@V?$allocator@V?$Point_@H@cv@@@std@@@std@@@2@@std@@IEAAPEAV?$vector@V?$Point_@H@cv@@V?$allocator@V?$Point_@H@cv@@@std@@@1@PEAV21@00@Z 000000018001dff0 f i Contours.obj
 0001:0001d060       ??$_Destroy_range@U?$_Wrap_alloc@V?$allocator@V?$vector@V?$Point_@M@cv@@V?$allocator@V?$Point_@M@cv@@@std@@@std@@@std@@@std@@@std@@YAXPEAV?$vector@V?$Point_@M@cv@@V?$allocator@V?$Point_@M@cv@@@std@@@0@0AEAU?$_Wrap_alloc@V?$allocator@V?$vector@V?$Point_@M@cv@@V?$allocator@V?$Point_@M@cv@@@std@@@std@@@std@@@0@@Z 000000018001e060 f i Calib3D.obj
 0001:0001d060       ??$_Destroy_range@U?$_Wrap_alloc@V?$allocator@V?$vector@V?$Point_@H@cv@@V?$allocator@V?$Point_@H@cv@@@std@@@std@@@std@@@std@@@std@@YAXPEAV?$vector@V?$Point_@H@cv@@V?$allocator@V?$Point_@H@cv@@@std@@@0@0AEAU?$_Wrap_alloc@V?$allocator@V?$vector@V?$Point_@H@cv@@V?$allocator@V?$Point_@H@cv@@@std@@@std@@@std@@@0@@Z 000000018001e060 f i Contours.obj
 0001:0001d130       ??$_Copy_unchecked1@PEAV?$vector@V?$Point_@H@cv@@V?$allocator@V?$Point_@H@cv@@@std@@@std@@PEAV12@@std@@YAPEAV?$vector@V?$Point_@H@cv@@V?$allocator@V?$Point_@H@cv@@@std@@@0@PEAV10@00U_General_ptr_iterator_tag@0@@Z 000000018001e130 f i Contours.obj
 0001:0001d300       ??$_Ucopy@PEAV?$Point_@H@cv@@@?$vector@V?$Point_@H@cv@@V?$allocator@V?$Point_@H@cv@@@std@@@std@@IEAAPEAV?$Point_@H@cv@@PEAV23@00@Z 000000018001e300 f i Contours.obj
 0001:0001d4f0       ?SetAccessor@Nan@@YAXV?$Local@VObjectTemplate@v8@@@v8@@V?$Local@VString@v8@@@3@P6AX1AEBV?$PropertyCallbackInfo@VValue@v8@@@1@@ZP6AX1V?$Local@VValue@v8@@@3@AEBV?$PropertyCallbackInfo@X@1@@Z4W4AccessControl@3@W4PropertyAttribute@3@V?$Local@VAccessorSignature@v8@@@3@@Z 000000018001e4f0 f i Point.obj
 0001:0001d670       ?Init@Point@@SAXV?$Local@VObject@v8@@@v8@@@Z 000000018001e670 f   Point.obj
 0001:0001d890       ?New@Point@@SAXAEBV?$FunctionCallbackInfo@VValue@v8@@@Nan@@@Z 000000018001e890 f   Point.obj
 0001:0001da20       ?GetX@Point@@SAXV?$Local@VString@v8@@@v8@@AEBV?$PropertyCallbackInfo@VValue@v8@@@Nan@@@Z 000000018001ea20 f   Point.obj
 0001:0001dac0       ?GetY@Point@@SAXV?$Local@VString@v8@@@v8@@AEBV?$PropertyCallbackInfo@VValue@v8@@@Nan@@@Z 000000018001eac0 f   Point.obj
 0001:0001db60       ?RaiseImmutable@Point@@SAXV?$Local@VString@v8@@@v8@@V?$Local@VValue@v8@@@3@AEBV?$PropertyCallbackInfo@X@Nan@@@Z 000000018001eb60 f   Point.obj
 0001:0001db80       ?Dot@Point@@SAXAEBV?$FunctionCallbackInfo@VValue@v8@@@Nan@@@Z 000000018001eb80 f   Point.obj
 0001:0001dc60       ??_EPoint@@UEAAPEAXI@Z     000000018001ec60 f i * CIL library *:* CIL module *
 0001:0001dc60       ??_GPoint@@UEAAPEAXI@Z     000000018001ec60 f i Point.obj
 0001:0001dc60       ??_EStereoGC@@UEAAPEAXI@Z  000000018001ec60 f i * CIL library *:* CIL module *
 0001:0001dc60       ??_GStereoGC@@UEAAPEAXI@Z  000000018001ec60 f i Stereo.obj
 0001:0001dcb0       ?Init@VideoCaptureWrap@@SAXV?$Local@VObject@v8@@@v8@@@Z 000000018001ecb0 f   VideoCaptureWrap.obj
 0001:0001dee0       ?New@VideoCaptureWrap@@SAXAEBV?$FunctionCallbackInfo@VValue@v8@@@Nan@@@Z 000000018001eee0 f   VideoCaptureWrap.obj
 0001:0001e140       ??0VideoCaptureWrap@@QEAA@H@Z 000000018001f140 f   VideoCaptureWrap.obj
 0001:0001e1f0       ??_GVideoCaptureWrap@@UEAAPEAXI@Z 000000018001f1f0 f i VideoCaptureWrap.obj
 0001:0001e1f0       ??_EVideoCaptureWrap@@UEAAPEAXI@Z 000000018001f1f0 f i * CIL library *:* CIL module *
 0001:0001e250       ??0VideoCaptureWrap@@QEAA@AEBV?$basic_string@DU?$char_traits@D@std@@V?$allocator@D@2@@std@@@Z 000000018001f250 f   VideoCaptureWrap.obj
 0001:0001e310       ?SetWidth@VideoCaptureWrap@@SAXAEBV?$FunctionCallbackInfo@VValue@v8@@@Nan@@@Z 000000018001f310 f   VideoCaptureWrap.obj
 0001:0001e3d0       ?GetFrameCount@VideoCaptureWrap@@SAXAEBV?$FunctionCallbackInfo@VValue@v8@@@Nan@@@Z 000000018001f3d0 f   VideoCaptureWrap.obj
 0001:0001e480       ?SetHeight@VideoCaptureWrap@@SAXAEBV?$FunctionCallbackInfo@VValue@v8@@@Nan@@@Z 000000018001f480 f   VideoCaptureWrap.obj
 0001:0001e520       ?SetPosition@VideoCaptureWrap@@SAXAEBV?$FunctionCallbackInfo@VValue@v8@@@Nan@@@Z 000000018001f520 f   VideoCaptureWrap.obj
 0001:0001e5c0       ?GetFrameAt@VideoCaptureWrap@@SAXAEBV?$FunctionCallbackInfo@VValue@v8@@@Nan@@@Z 000000018001f5c0 f   VideoCaptureWrap.obj
 0001:0001e660       ?Release@VideoCaptureWrap@@SAXAEBV?$FunctionCallbackInfo@VValue@v8@@@Nan@@@Z 000000018001f660 f   VideoCaptureWrap.obj
 0001:0001e6c0       ??0AsyncVCWorker@@QEAA@PEAVCallback@Nan@@PEAVVideoCaptureWrap@@_NH@Z 000000018001f6c0 f i VideoCaptureWrap.obj
 0001:0001e790       ?Execute@AsyncVCWorker@@UEAAXXZ 000000018001f790 f i VideoCaptureWrap.obj
 0001:0001e810       ?HandleOKCallback@AsyncVCWorker@@UEAAXXZ 000000018001f810 f i VideoCaptureWrap.obj
 0001:0001e930       ??_GAsyncVCWorker@@UEAAPEAXI@Z 000000018001f930 f i VideoCaptureWrap.obj
 0001:0001e930       ??_EAsyncVCWorker@@UEAAPEAXI@Z 000000018001f930 f i * CIL library *:* CIL module *
 0001:0001e9c0       ?Read@VideoCaptureWrap@@SAXAEBV?$FunctionCallbackInfo@VValue@v8@@@Nan@@@Z 000000018001f9c0 f   VideoCaptureWrap.obj
 0001:0001eaf0       ?ReadSync@VideoCaptureWrap@@SAXAEBV?$FunctionCallbackInfo@VValue@v8@@@Nan@@@Z 000000018001faf0 f   VideoCaptureWrap.obj
 0001:0001ebc0       ?Execute@AsyncGrabWorker@@UEAAXXZ 000000018001fbc0 f i VideoCaptureWrap.obj
 0001:0001ec20       ??_EAsyncGrabWorker@@UEAAPEAXI@Z 000000018001fc20 f i * CIL library *:* CIL module *
 0001:0001ec20       ??_GAsyncGrabWorker@@UEAAPEAXI@Z 000000018001fc20 f i VideoCaptureWrap.obj
 0001:0001ec70       ?Grab@VideoCaptureWrap@@SAXAEBV?$FunctionCallbackInfo@VValue@v8@@@Nan@@@Z 000000018001fc70 f   VideoCaptureWrap.obj
 0001:0001eda0       ?Retrieve@VideoCaptureWrap@@SAXAEBV?$FunctionCallbackInfo@VValue@v8@@@Nan@@@Z 000000018001fda0 f   VideoCaptureWrap.obj
 0001:0001ef20       ?Init@TrackedObject@@SAXV?$Local@VObject@v8@@@v8@@@Z 000000018001ff20 f   CamShift.obj
 0001:0001f090       ?New@TrackedObject@@SAXAEBV?$FunctionCallbackInfo@VValue@v8@@@Nan@@@Z 0000000180020090 f   CamShift.obj
 0001:0001f670       ?update_chann_image@@YAXPEAVTrackedObject@@VMat@cv@@@Z 0000000180020670 f   CamShift.obj
 0001:0001f860       ??0TrackedObject@@QEAA@VMat@cv@@V?$Rect_@H@2@H@Z 0000000180020860 f   CamShift.obj
 0001:0001fcc0       ??_GTrackedObject@@UEAAPEAXI@Z 0000000180020cc0 f i CamShift.obj
 0001:0001fcc0       ??_ETrackedObject@@UEAAPEAXI@Z 0000000180020cc0 f i * CIL library *:* CIL module *
 0001:0001fd00       ??1TrackedObject@@UEAA@XZ  0000000180020d00 f i CamShift.obj
 0001:0001fdf0       ?Track@TrackedObject@@SAXAEBV?$FunctionCallbackInfo@VValue@v8@@@Nan@@@Z 0000000180020df0 f   CamShift.obj
 0001:000201f0       ?Init@NamedWindow@@SAXV?$Local@VObject@v8@@@v8@@@Z 00000001800211f0 f   HighGUI.obj
 0001:00020390       ?New@NamedWindow@@SAXAEBV?$FunctionCallbackInfo@VValue@v8@@@Nan@@@Z 0000000180021390 f   HighGUI.obj
 0001:00020680       ??0NamedWindow@@QEAA@AEBV?$basic_string@DU?$char_traits@D@std@@V?$allocator@D@2@@std@@H@Z 0000000180021680 f   HighGUI.obj
 0001:000207b0       ??_ENamedWindow@@UEAAPEAXI@Z 00000001800217b0 f i * CIL library *:* CIL module *
 0001:000207b0       ??_GNamedWindow@@UEAAPEAXI@Z 00000001800217b0 f i HighGUI.obj
 0001:00020840       ?Show@NamedWindow@@SAXAEBV?$FunctionCallbackInfo@VValue@v8@@@Nan@@@Z 0000000180021840 f   HighGUI.obj
 0001:00020920       ?Destroy@NamedWindow@@SAXAEBV?$FunctionCallbackInfo@VValue@v8@@@Nan@@@Z 0000000180021920 f   HighGUI.obj
 0001:000209a0       ?BlockingWaitKey@NamedWindow@@SAXAEBV?$FunctionCallbackInfo@VValue@v8@@@Nan@@@Z 00000001800219a0 f   HighGUI.obj
 0001:00020a60       ?fromMatrixOrFilename@@YA?AVMat@cv@@V?$Local@VValue@v8@@@v8@@@Z 0000000180021a60 f   FaceRecognizer.obj
 0001:00020cb0       ?Init@FaceRecognizerWrap@@SAXV?$Local@VObject@v8@@@v8@@@Z 0000000180021cb0 f   FaceRecognizer.obj
 0001:00020f80       ?New@FaceRecognizerWrap@@SAXAEBV?$FunctionCallbackInfo@VValue@v8@@@Nan@@@Z 0000000180021f80 f   FaceRecognizer.obj
 0001:00021100       ?CreateLBPH@FaceRecognizerWrap@@SAXAEBV?$FunctionCallbackInfo@VValue@v8@@@Nan@@@Z 0000000180022100 f   FaceRecognizer.obj
 0001:00021430       ?CreateEigen@FaceRecognizerWrap@@SAXAEBV?$FunctionCallbackInfo@VValue@v8@@@Nan@@@Z 0000000180022430 f   FaceRecognizer.obj
 0001:00021660       ?CreateFisher@FaceRecognizerWrap@@SAXAEBV?$FunctionCallbackInfo@VValue@v8@@@Nan@@@Z 0000000180022660 f   FaceRecognizer.obj
 0001:00021890       ??0FaceRecognizerWrap@@QEAA@V?$Ptr@VFaceRecognizer@cv@@@cv@@H@Z 0000000180022890 f   FaceRecognizer.obj
 0001:00021940       ??_GFaceRecognizerWrap@@UEAAPEAXI@Z 0000000180022940 f i FaceRecognizer.obj
 0001:00021940       ??_EFaceRecognizerWrap@@UEAAPEAXI@Z 0000000180022940 f i * CIL library *:* CIL module *
 0001:000219d0       ?UnwrapTrainingData@@YA?AV?$Local@VValue@v8@@@v8@@AEBV?$FunctionCallbackInfo@VValue@v8@@@Nan@@PEAV?$vector@VMat@cv@@V?$allocator@VMat@cv@@@std@@@std@@PEAV?$vector@HV?$allocator@H@std@@@6@@Z 00000001800229d0 f   FaceRecognizer.obj
 0001:00021fc0       ?TrainSync@FaceRecognizerWrap@@SAXAEBV?$FunctionCallbackInfo@VValue@v8@@@Nan@@@Z 0000000180022fc0 f   FaceRecognizer.obj
 0001:00022140       ??0TrainASyncWorker@@QEAA@PEAVCallback@Nan@@V?$Ptr@VFaceRecognizer@cv@@@cv@@V?$vector@VMat@cv@@V?$allocator@VMat@cv@@@std@@@std@@V?$vector@HV?$allocator@H@std@@@6@@Z 0000000180023140 f i FaceRecognizer.obj
 0001:00022280       ??1TrainASyncWorker@@UEAA@XZ 0000000180023280 f i FaceRecognizer.obj
 0001:000223a0       ?Execute@TrainASyncWorker@@UEAAXXZ 00000001800233a0 f i FaceRecognizer.obj
 0001:00022400       ??_GTrainASyncWorker@@UEAAPEAXI@Z 0000000180023400 f i FaceRecognizer.obj
 0001:00022400       ??_ETrainASyncWorker@@UEAAPEAXI@Z 0000000180023400 f i * CIL library *:* CIL module *
 0001:00022440       ?Train@FaceRecognizerWrap@@SAXAEBV?$FunctionCallbackInfo@VValue@v8@@@Nan@@@Z 0000000180023440 f   FaceRecognizer.obj
 0001:000226e0       ?UpdateSync@FaceRecognizerWrap@@SAXAEBV?$FunctionCallbackInfo@VValue@v8@@@Nan@@@Z 00000001800236e0 f   FaceRecognizer.obj
 0001:00022890       ?PredictSync@FaceRecognizerWrap@@SAXAEBV?$FunctionCallbackInfo@VValue@v8@@@Nan@@@Z 0000000180023890 f   FaceRecognizer.obj
 0001:00022b50       ??0PredictASyncWorker@@QEAA@PEAVCallback@Nan@@V?$Ptr@VFaceRecognizer@cv@@@cv@@VMat@4@@Z 0000000180023b50 f i FaceRecognizer.obj
 0001:00022c60       ??1PredictASyncWorker@@UEAA@XZ 0000000180023c60 f i FaceRecognizer.obj
 0001:00022d10       ?Execute@PredictASyncWorker@@UEAAXXZ 0000000180023d10 f i FaceRecognizer.obj
 0001:00022d60       ?HandleOKCallback@PredictASyncWorker@@UEAAXXZ 0000000180023d60 f i FaceRecognizer.obj
 0001:00022f40       ??_GPredictASyncWorker@@UEAAPEAXI@Z 0000000180023f40 f i FaceRecognizer.obj
 0001:00022f40       ??_EPredictASyncWorker@@UEAAPEAXI@Z 0000000180023f40 f i * CIL library *:* CIL module *
 0001:00022f80       ?Predict@FaceRecognizerWrap@@SAXAEBV?$FunctionCallbackInfo@VValue@v8@@@Nan@@@Z 0000000180023f80 f   FaceRecognizer.obj
 0001:00023240       ?SaveSync@FaceRecognizerWrap@@SAXAEBV?$FunctionCallbackInfo@VValue@v8@@@Nan@@@Z 0000000180024240 f   FaceRecognizer.obj
 0001:000233e0       ?LoadSync@FaceRecognizerWrap@@SAXAEBV?$FunctionCallbackInfo@VValue@v8@@@Nan@@@Z 00000001800243e0 f   FaceRecognizer.obj
 0001:00023580       ?GetMat@FaceRecognizerWrap@@SAXAEBV?$FunctionCallbackInfo@VValue@v8@@@Nan@@@Z 0000000180024580 f   FaceRecognizer.obj
 0001:000238d0       ??0?$vector@VMat@cv@@V?$allocator@VMat@cv@@@std@@@std@@QEAA@AEBV01@@Z 00000001800248d0 f i FaceRecognizer.obj
 0001:000239c0       ??1?$Ptr@VFaceRecognizer@cv@@@cv@@QEAA@XZ 00000001800249c0 f i FaceRecognizer.obj
 0001:000239c0       ??1?$Ptr@VDescriptorMatcher@cv@@@cv@@QEAA@XZ 00000001800249c0 f i Features2d.obj
 0001:000239c0       ??1?$Ptr@VBackgroundSubtractor@cv@@@cv@@QEAA@XZ 00000001800249c0 f i BackgroundSubtractor.obj
 0001:00023a20       ??4?$Ptr@VFaceRecognizer@cv@@@cv@@QEAAAEAV01@AEBV01@@Z 0000000180024a20 f i FaceRecognizer.obj
 0001:00023a20       ??4?$Ptr@VBackgroundSubtractor@cv@@@cv@@QEAAAEAV01@AEBV01@@Z 0000000180024a20 f i BackgroundSubtractor.obj
 0001:00023ab0       ??0AsyncDetectSimilarity@@QEAA@PEAVCallback@Nan@@VMat@cv@@1@Z 0000000180024ab0 f i Features2d.obj
 0001:00023b80       ??1AsyncDetectSimilarity@@UEAA@XZ 0000000180024b80 f i Features2d.obj
 0001:00023c10       ?Execute@AsyncDetectSimilarity@@UEAAXXZ 0000000180024c10 f i Features2d.obj
 0001:000248b0       ?HandleOKCallback@AsyncDetectSimilarity@@UEAAXXZ 00000001800258b0 f i Features2d.obj
 0001:00024960       ??_GAsyncDetectSimilarity@@UEAAPEAXI@Z 0000000180025960 f i Features2d.obj
 0001:00024960       ??_EAsyncDetectSimilarity@@UEAAPEAXI@Z 0000000180025960 f i * CIL library *:* CIL module *
 0001:000249a0       ?Similarity@Features@@SAXAEBV?$FunctionCallbackInfo@VValue@v8@@@Nan@@@Z 00000001800259a0 f   Features2d.obj
 0001:00024ca0       ??1?$vector@VKeyPoint@cv@@V?$allocator@VKeyPoint@cv@@@std@@@std@@QEAA@XZ 0000000180025ca0 f i Features2d.obj
 0001:00024cb0       ?_Tidy@?$vector@VKeyPoint@cv@@V?$allocator@VKeyPoint@cv@@@std@@@std@@IEAAXXZ 0000000180025cb0 f i Features2d.obj
 0001:00024d60       ??1?$Ptr@VFeatureDetector@cv@@@cv@@QEAA@XZ 0000000180025d60 f i Features2d.obj
 0001:00024d60       ??1?$Ptr@VDescriptorExtractor@cv@@@cv@@QEAA@XZ 0000000180025d60 f i Features2d.obj
 0001:00024dd0       ?Init@BackgroundSubtractorWrap@@SAXV?$Local@VObject@v8@@@v8@@@Z 0000000180025dd0 f   BackgroundSubtractor.obj
 0001:00024fd0       ?New@BackgroundSubtractorWrap@@SAXAEBV?$FunctionCallbackInfo@VValue@v8@@@Nan@@@Z 0000000180025fd0 f   BackgroundSubtractor.obj
 0001:000250b0       ?CreateMOG@BackgroundSubtractorWrap@@SAXAEBV?$FunctionCallbackInfo@VValue@v8@@@Nan@@@Z 00000001800260b0 f   BackgroundSubtractor.obj
 0001:000251b0       ?ApplyMOG@BackgroundSubtractorWrap@@SAXAEBV?$FunctionCallbackInfo@VValue@v8@@@Nan@@@Z 00000001800261b0 f   BackgroundSubtractor.obj
 0001:00025a40       ??0BackgroundSubtractorWrap@@QEAA@V?$Ptr@VBackgroundSubtractor@cv@@@cv@@@Z 0000000180026a40 f   BackgroundSubtractor.obj
 0001:00025ae0       ??_GBackgroundSubtractorWrap@@UEAAPEAXI@Z 0000000180026ae0 f i BackgroundSubtractor.obj
 0001:00025ae0       ??_EBackgroundSubtractorWrap@@UEAAPEAXI@Z 0000000180026ae0 f i * CIL library *:* CIL module *
 0001:00025b70       ?Init@Constants@@SAXV?$Local@VObject@v8@@@v8@@@Z 0000000180026b70 f   Constants.obj
 0001:00027940       ?matrixFromMat@@YA?AV?$Local@VObject@v8@@@v8@@AEAVMat@cv@@@Z 0000000180028940 f i Calib3D.obj
 0001:000279b0       ?matFromMatrix@@YA?AVMat@cv@@V?$Local@VValue@v8@@@v8@@@Z 00000001800289b0 f i Calib3D.obj
 0001:00027a10       ?sizeFromArray@@YA?AV?$Size_@H@cv@@V?$Local@VValue@v8@@@v8@@@Z 0000000180028a10 f i Calib3D.obj
 0001:00027ac0       ?points2fFromArray@@YA?AV?$vector@V?$Point_@M@cv@@V?$allocator@V?$Point_@M@cv@@@std@@@std@@V?$Local@VValue@v8@@@v8@@@Z 0000000180028ac0 f i Calib3D.obj
 0001:00027d00       ?points3fFromArray@@YA?AV?$vector@V?$Point3_@M@cv@@V?$allocator@V?$Point3_@M@cv@@@std@@@std@@V?$Local@VValue@v8@@@v8@@@Z 0000000180028d00 f i Calib3D.obj
 0001:00028010       ?points2fFromArrayOfArrays@@YA?AV?$vector@V?$vector@V?$Point_@M@cv@@V?$allocator@V?$Point_@M@cv@@@std@@@std@@V?$allocator@V?$vector@V?$Point_@M@cv@@V?$allocator@V?$Point_@M@cv@@@std@@@std@@@2@@std@@V?$Local@VValue@v8@@@v8@@@Z 0000000180029010 f i Calib3D.obj
 0001:00028170       ?points3fFromArrayOfArrays@@YA?AV?$vector@V?$vector@V?$Point3_@M@cv@@V?$allocator@V?$Point3_@M@cv@@@std@@@std@@V?$allocator@V?$vector@V?$Point3_@M@cv@@V?$allocator@V?$Point3_@M@cv@@@std@@@std@@@2@@std@@V?$Local@VValue@v8@@@v8@@@Z 0000000180029170 f i Calib3D.obj
 0001:000282f0       ?Init@Calib3D@@SAXV?$Local@VObject@v8@@@v8@@@Z 00000001800292f0 f   Calib3D.obj
 0001:00028470       ?FindChessboardCorners@Calib3D@@SAXAEBV?$FunctionCallbackInfo@VValue@v8@@@Nan@@@Z 0000000180029470 f   Calib3D.obj
 0001:00028920       ?DrawChessboardCorners@Calib3D@@SAXAEBV?$FunctionCallbackInfo@VValue@v8@@@Nan@@@Z 0000000180029920 f   Calib3D.obj
 0001:00028bb0       ?CalibrateCamera@Calib3D@@SAXAEBV?$FunctionCallbackInfo@VValue@v8@@@Nan@@@Z 0000000180029bb0 f   Calib3D.obj
 0001:00029290       ?SolvePnP@Calib3D@@SAXAEBV?$FunctionCallbackInfo@VValue@v8@@@Nan@@@Z 000000018002a290 f   Calib3D.obj
 0001:00029960       ?GetOptimalNewCameraMatrix@Calib3D@@SAXAEBV?$FunctionCallbackInfo@VValue@v8@@@Nan@@@Z 000000018002a960 f   Calib3D.obj
 0001:00029d30       ?StereoCalibrate@Calib3D@@SAXAEBV?$FunctionCallbackInfo@VValue@v8@@@Nan@@@Z 000000018002ad30 f   Calib3D.obj
 0001:0002b080       ?StereoRectify@Calib3D@@SAXAEBV?$FunctionCallbackInfo@VValue@v8@@@Nan@@@Z 000000018002c080 f   Calib3D.obj
 0001:0002beb0       ?ComputeCorrespondEpilines@Calib3D@@SAXAEBV?$FunctionCallbackInfo@VValue@v8@@@Nan@@@Z 000000018002ceb0 f   Calib3D.obj
 0001:0002c440       ?ReprojectImageTo3D@Calib3D@@SAXAEBV?$FunctionCallbackInfo@VValue@v8@@@Nan@@@Z 000000018002d440 f   Calib3D.obj
 0001:0002c7e0       ??1?$vector@V?$vector@V?$Point3_@M@cv@@V?$allocator@V?$Point3_@M@cv@@@std@@@std@@V?$allocator@V?$vector@V?$Point3_@M@cv@@V?$allocator@V?$Point3_@M@cv@@@std@@@std@@@2@@std@@QEAA@XZ 000000018002d7e0 f i Calib3D.obj
 0001:0002c840       ?push_back@?$vector@V?$vector@V?$Point3_@M@cv@@V?$allocator@V?$Point3_@M@cv@@@std@@@std@@V?$allocator@V?$vector@V?$Point3_@M@cv@@V?$allocator@V?$Point3_@M@cv@@@std@@@std@@@2@@std@@QEAAX$$QEAV?$vector@V?$Point3_@M@cv@@V?$allocator@V?$Point3_@M@cv@@@std@@@2@@Z 000000018002d840 f i Calib3D.obj
 0001:0002c950       ??1?$vector@V?$Point3_@M@cv@@V?$allocator@V?$Point3_@M@cv@@@std@@@std@@QEAA@XZ 000000018002d950 f i Calib3D.obj
 0001:0002c9a0       ?push_back@?$vector@V?$vector@V?$Point_@M@cv@@V?$allocator@V?$Point_@M@cv@@@std@@@std@@V?$allocator@V?$vector@V?$Point_@M@cv@@V?$allocator@V?$Point_@M@cv@@@std@@@std@@@2@@std@@QEAAX$$QEAV?$vector@V?$Point_@M@cv@@V?$allocator@V?$Point_@M@cv@@@std@@@2@@Z 000000018002d9a0 f i Calib3D.obj
 0001:0002cab0       ?_Reserve@?$vector@V?$vector@V?$Point3_@M@cv@@V?$allocator@V?$Point3_@M@cv@@@std@@@std@@V?$allocator@V?$vector@V?$Point3_@M@cv@@V?$allocator@V?$Point3_@M@cv@@@std@@@std@@@2@@std@@IEAAX_K@Z 000000018002dab0 f i Calib3D.obj
 0001:0002cb80       ?_Reserve@?$vector@V?$Point3_@M@cv@@V?$allocator@V?$Point3_@M@cv@@@std@@@std@@IEAAX_K@Z 000000018002db80 f i Calib3D.obj
 0001:0002cc50       ?_Reserve@?$vector@V?$vector@V?$Point_@M@cv@@V?$allocator@V?$Point_@M@cv@@@std@@@std@@V?$allocator@V?$vector@V?$Point_@M@cv@@V?$allocator@V?$Point_@M@cv@@@std@@@std@@@2@@std@@IEAAX_K@Z 000000018002dc50 f i Calib3D.obj
 0001:0002cd20       ?_Reserve@?$vector@V?$Point_@M@cv@@V?$allocator@V?$Point_@M@cv@@@std@@@std@@IEAAX_K@Z 000000018002dd20 f i Calib3D.obj
 0001:0002cdb0       ?_Reallocate@?$vector@V?$vector@V?$Point3_@M@cv@@V?$allocator@V?$Point3_@M@cv@@@std@@@std@@V?$allocator@V?$vector@V?$Point3_@M@cv@@V?$allocator@V?$Point3_@M@cv@@@std@@@std@@@2@@std@@IEAAX_K@Z 000000018002ddb0 f i Calib3D.obj
 0001:0002ced0       ?deallocate@?$_Wrap_alloc@V?$allocator@V?$Point3_@M@cv@@@std@@@std@@QEAAXPEAV?$Point3_@M@cv@@_K@Z 000000018002ded0 f i Calib3D.obj
 0001:0002cf40       ?_Reallocate@?$vector@V?$Point3_@M@cv@@V?$allocator@V?$Point3_@M@cv@@@std@@@std@@IEAAX_K@Z 000000018002df40 f i Calib3D.obj
 0001:0002d030       ?_Reallocate@?$vector@V?$Point_@M@cv@@V?$allocator@V?$Point_@M@cv@@@std@@@std@@IEAAX_K@Z 000000018002e030 f i Calib3D.obj
 0001:0002d0e0       ?allocate@?$allocator@V?$Point3_@M@cv@@@std@@QEAAPEAV?$Point3_@M@cv@@_K@Z 000000018002e0e0 f i Calib3D.obj
 0001:0002d160       ??$_Destroy_range@U?$_Wrap_alloc@V?$allocator@V?$vector@V?$Point3_@M@cv@@V?$allocator@V?$Point3_@M@cv@@@std@@@std@@@std@@@std@@@std@@YAXPEAV?$vector@V?$Point3_@M@cv@@V?$allocator@V?$Point3_@M@cv@@@std@@@0@0AEAU?$_Wrap_alloc@V?$allocator@V?$vector@V?$Point3_@M@cv@@V?$allocator@V?$Point3_@M@cv@@@std@@@std@@@std@@@0@@Z 000000018002e160 f i Calib3D.obj
 0001:0002d250       ?Init@ImgProc@@SAXV?$Local@VObject@v8@@@v8@@@Z 000000018002e250 f   ImgProc.obj
 0001:0002d360       ?Undistort@ImgProc@@SAXAEBV?$FunctionCallbackInfo@VValue@v8@@@Nan@@@Z 000000018002e360 f   ImgProc.obj
 0001:0002d860       ?InitUndistortRectifyMap@ImgProc@@SAXAEBV?$FunctionCallbackInfo@VValue@v8@@@Nan@@@Z 000000018002e860 f   ImgProc.obj
 0001:0002e190       ?Remap@ImgProc@@SAXAEBV?$FunctionCallbackInfo@VValue@v8@@@Nan@@@Z 000000018002f190 f   ImgProc.obj
 0001:0002e710       ?GetStructuringElement@ImgProc@@SAXAEBV?$FunctionCallbackInfo@VValue@v8@@@Nan@@@Z 000000018002f710 f   ImgProc.obj
 0001:0002ea00       ??BMat@cv@@QEBA?AUCvMat@@XZ 000000018002fa00 f i Stereo.obj
 0001:0002eb10       ?Init@StereoBM@@SAXV?$Local@VObject@v8@@@v8@@@Z 000000018002fb10 f   Stereo.obj
 0001:0002ede0       ?New@StereoBM@@SAXAEBV?$FunctionCallbackInfo@VValue@v8@@@Nan@@@Z 000000018002fde0 f   Stereo.obj
 0001:0002f080       ??0StereoBM@@QEAA@HHH@Z    0000000180030080 f   Stereo.obj
 0001:0002f0d0       ??_EStereoBM@@UEAAPEAXI@Z  00000001800300d0 f i * CIL library *:* CIL module *
 0001:0002f0d0       ??_GStereoBM@@UEAAPEAXI@Z  00000001800300d0 f i Stereo.obj
 0001:0002f170       ??1StereoBM@cv@@QEAA@XZ    0000000180030170 f i Stereo.obj
 0001:0002f1d0       ?Compute@StereoBM@@SAXAEBV?$FunctionCallbackInfo@VValue@v8@@@Nan@@@Z 00000001800301d0 f   Stereo.obj
 0001:0002f610       ?Init@StereoSGBM@@SAXV?$Local@VObject@v8@@@v8@@@Z 0000000180030610 f   Stereo.obj
 0001:0002f780       ?New@StereoSGBM@@SAXAEBV?$FunctionCallbackInfo@VValue@v8@@@Nan@@@Z 0000000180030780 f   Stereo.obj
 0001:000306b0       ??_GStereoSGBM@@UEAAPEAXI@Z 00000001800316b0 f i Stereo.obj
 0001:000306b0       ??_EStereoSGBM@@UEAAPEAXI@Z 00000001800316b0 f i * CIL library *:* CIL module *
 0001:00030710       ??0StereoSGBM@@QEAA@HHHHHHHHHH_N@Z 0000000180031710 f   Stereo.obj
 0001:000307c0       ?Compute@StereoSGBM@@SAXAEBV?$FunctionCallbackInfo@VValue@v8@@@Nan@@@Z 00000001800317c0 f   Stereo.obj
 0001:00030bd0       ?Init@StereoGC@@SAXV?$Local@VObject@v8@@@v8@@@Z 0000000180031bd0 f   Stereo.obj
 0001:00030d40       ?New@StereoGC@@SAXAEBV?$FunctionCallbackInfo@VValue@v8@@@Nan@@@Z 0000000180031d40 f   Stereo.obj
 0001:00030f30       ?Compute@StereoGC@@SAXAEBV?$FunctionCallbackInfo@VValue@v8@@@Nan@@@Z 0000000180031f30 f   Stereo.obj
 0001:00031410       ??1?$Ptr@UCvStereoBMState@@@cv@@QEAA@XZ 0000000180032410 f i Stereo.obj
 0001:00031460       ?Init@LDAWrap@@SAXV?$Local@VObject@v8@@@v8@@@Z 0000000180032460 f   LDAWrap.obj
 0001:00031660       ?New@LDAWrap@@SAXAEBV?$FunctionCallbackInfo@VValue@v8@@@Nan@@@Z 0000000180032660 f   LDAWrap.obj
 0001:00031730       ??_ELDAWrap@@UEAAPEAXI@Z   0000000180032730 f i * CIL library *:* CIL module *
 0001:00031730       ??_GLDAWrap@@UEAAPEAXI@Z   0000000180032730 f i LDAWrap.obj
 0001:00031780       ?SubspaceProject@LDAWrap@@SAXAEBV?$FunctionCallbackInfo@VValue@v8@@@Nan@@@Z 0000000180032780 f   LDAWrap.obj
 0001:000319b0       ?SubspaceReconstruct@LDAWrap@@SAXAEBV?$FunctionCallbackInfo@VValue@v8@@@Nan@@@Z 00000001800329b0 f   LDAWrap.obj
 0001:00031c2c       __imp_load_?GetCurrent@Isolate@v8@@SAPEAV12@XZ 0000000180032c2c f   node:node.exe
 0001:00031c38       __tailMerge_node_exe       0000000180032c38 f i node:node.exe
 0001:00031cb1       __imp_load_??1HandleScope@v8@@QEAA@XZ 0000000180032cb1 f   node:node.exe
 0001:00031cbd       __imp_load_??0HandleScope@v8@@QEAA@PEAVIsolate@1@@Z 0000000180032cbd f   node:node.exe
 0001:00031cc9       __imp_load_node_module_register 0000000180032cc9 f   node:node.exe
 0001:00031cd5       __imp_load_uv_queue_work   0000000180032cd5 f   node:node.exe
 0001:00031ce1       __imp_load_?Global@Context@v8@@QEAA?AV?$Local@VObject@v8@@@2@XZ 0000000180032ce1 f   node:node.exe
 0001:00031ced       __imp_load_?Value@External@v8@@QEBAPEAXXZ 0000000180032ced f   node:node.exe
 0001:00031cf9       __imp_load_?New@External@v8@@SA?AV?$Local@VExternal@v8@@@2@PEAVIsolate@2@PEAX@Z 0000000180032cf9 f   node:node.exe
 0001:00031d05       __imp_load_?NewFromUnsigned@Integer@v8@@SA?AV?$Local@VInteger@v8@@@2@PEAVIsolate@2@I@Z 0000000180032d05 f   node:node.exe
 0001:00031d11       __imp_load_?New@Integer@v8@@SA?AV?$Local@VInteger@v8@@@2@PEAVIsolate@2@H@Z 0000000180032d11 f   node:node.exe
 0001:00031d1d       __imp_load_?New@Signature@v8@@SA?AV?$Local@VSignature@v8@@@2@PEAVIsolate@2@V?$Local@VFunctionTemplate@v8@@@2@@Z 0000000180032d1d f   node:node.exe
 0001:00031d29       __imp_load_?ThrowException@Isolate@v8@@QEAA?AV?$Local@VValue@v8@@@2@V32@@Z 0000000180032d29 f   node:node.exe
 0001:00031d35       __imp_load_?GetCurrentContext@Isolate@v8@@QEAA?AV?$Local@VContext@v8@@@2@XZ 0000000180032d35 f   node:node.exe
 0001:00031d41       __imp_load_?CreateHandle@HandleScope@v8@@KAPEAPEAVObject@internal@2@PEAVIsolate@42@PEAV342@@Z 0000000180032d41 f   node:node.exe
 0001:00031d4d       __imp_load_?CreateHandle@HandleScope@v8@@CAPEAPEAVObject@internal@2@PEAVHeapObject@42@PEAV342@@Z 0000000180032d4d f   node:node.exe
 0001:00031d59       __imp_load_?Set@Template@v8@@QEAAXV?$Local@VName@v8@@@2@V?$Local@VData@v8@@@2@W4PropertyAttribute@2@@Z 0000000180032d59 f   node:node.exe
 0001:00031d65       __imp_load_?Error@Exception@v8@@SA?AV?$Local@VValue@v8@@@2@V?$Local@VString@v8@@@2@@Z 0000000180032d65 f   node:node.exe
 0001:00031d71       __imp_load_?TypeError@Exception@v8@@SA?AV?$Local@VValue@v8@@@2@V?$Local@VString@v8@@@2@@Z 0000000180032d71 f   node:node.exe
 0001:00031d7d       __imp_load_?New@Array@v8@@SA?AV?$Local@VArray@v8@@@2@PEAVIsolate@2@H@Z 0000000180032d7d f   node:node.exe
 0001:00031d89       __imp_load_?Length@Array@v8@@QEBAIXZ 0000000180032d89 f   node:node.exe
 0001:00031d95       __imp_load_?SetClassName@FunctionTemplate@v8@@QEAAXV?$Local@VString@v8@@@2@@Z 0000000180032d95 f   node:node.exe
 0001:00031da1       __imp_load_?PrototypeTemplate@FunctionTemplate@v8@@QEAA?AV?$Local@VObjectTemplate@v8@@@2@XZ 0000000180032da1 f   node:node.exe
 0001:00031dad       __imp_load_?InstanceTemplate@FunctionTemplate@v8@@QEAA?AV?$Local@VObjectTemplate@v8@@@2@XZ 0000000180032dad f   node:node.exe
 0001:00031db9       __imp_load_?GetFunction@FunctionTemplate@v8@@QEAA?AV?$Local@VFunction@v8@@@2@XZ 0000000180032db9 f   node:node.exe
 0001:00031dc5       __imp_load_?New@FunctionTemplate@v8@@SA?AV?$Local@VFunctionTemplate@v8@@@2@PEAVIsolate@2@P6AXAEBV?$FunctionCallbackInfo@VValue@v8@@@2@@ZV?$Local@VValue@v8@@@2@V?$Local@VSignature@v8@@@2@HW4ConstructorBehavior@2@@Z 0000000180032dc5 f   node:node.exe
 0001:00031dd1       __imp_load_?ToLocalEmpty@V8@v8@@CAXXZ 0000000180032dd1 f   node:node.exe
 0001:00031ddd       __imp_load_?ClearWeak@V8@v8@@CAPEAXPEAPEAVObject@internal@2@@Z 0000000180032ddd f   node:node.exe
 0001:00031de9       __imp_load_?MakeWeak@V8@v8@@CAXPEAPEAVObject@internal@2@PEAXP6AXAEBV?$WeakCallbackInfo@X@2@@ZW4WeakCallbackType@2@@Z 0000000180032de9 f   node:node.exe
 0001:00031df5       __imp_load_?DisposeGlobal@V8@v8@@CAXPEAPEAVObject@internal@2@@Z 0000000180032df5 f   node:node.exe
 0001:00031e01       __imp_load_?GlobalizeReference@V8@v8@@CAPEAPEAVObject@internal@2@PEAVIsolate@42@PEAPEAV342@@Z 0000000180032e01 f   node:node.exe
 0001:00031e0d       __imp_load_?Uint32Value@Value@v8@@QEBAIXZ 0000000180032e0d f   node:node.exe
 0001:00031e19       __imp_load_?IntegerValue@Value@v8@@QEBA_JXZ 0000000180032e19 f   node:node.exe
 0001:00031e25       __imp_load_?NumberValue@Value@v8@@QEBANXZ 0000000180032e25 f   node:node.exe
 0001:00031e31       __imp_load_?BooleanValue@Value@v8@@QEBA_NXZ 0000000180032e31 f   node:node.exe
 0001:00031e3d       __imp_load_?ToInteger@Value@v8@@QEBA?AV?$MaybeLocal@VInteger@v8@@@2@V?$Local@VContext@v8@@@2@@Z 0000000180032e3d f   node:node.exe
 0001:00031e49       __imp_load_?IsInt32@Value@v8@@QEBA_NXZ 0000000180032e49 f   node:node.exe
 0001:00031e55       __imp_load_?IsNumber@Value@v8@@QEBA_NXZ 0000000180032e55 f   node:node.exe
 0001:00031e61       __imp_load_?IsObject@Value@v8@@QEBA_NXZ 0000000180032e61 f   node:node.exe
 0001:00031e6d       __imp_load_?IsArray@Value@v8@@QEBA_NXZ 0000000180032e6d f   node:node.exe
 0001:00031e79       __imp_load_?IsFunction@Value@v8@@QEBA_NXZ 0000000180032e79 f   node:node.exe
 0001:00031e85       __imp_load_?HasCaught@TryCatch@v8@@QEBA_NXZ 0000000180032e85 f   node:node.exe
 0001:00031e91       __imp_load_??1TryCatch@v8@@QEAA@XZ 0000000180032e91 f   node:node.exe
 0001:00031e9d       __imp_load_??0TryCatch@v8@@QEAA@PEAVIsolate@1@@Z 0000000180032e9d f   node:node.exe
 0001:00031ea9       __imp_load_?Escape@EscapableHandleScope@v8@@AEAAPEAPEAVObject@internal@2@PEAPEAV342@@Z 0000000180032ea9 f   node:node.exe
 0001:00031eb5       __imp_load_??0EscapableHandleScope@v8@@QEAA@PEAVIsolate@1@@Z 0000000180032eb5 f   node:node.exe
 0001:00031ec1       __imp_load_??1Utf8Value@String@v8@@QEAA@XZ 0000000180032ec1 f   node:node.exe
 0001:00031ecd       __imp_load_??0Utf8Value@String@v8@@QEAA@V?$Local@VValue@v8@@@2@@Z 0000000180032ecd f   node:node.exe
 0001:00031ed9       __imp_load_?NewFromUtf8@String@v8@@SA?AV?$MaybeLocal@VString@v8@@@2@PEAVIsolate@2@PEBDW4NewStringType@2@H@Z 0000000180032ed9 f   node:node.exe
 0001:00031ee5       __imp_load_?WriteUtf8@String@v8@@QEBAHPEADHPEAHH@Z 0000000180032ee5 f   node:node.exe
 0001:00031ef1       __imp_load_?Length@String@v8@@QEBAHXZ 0000000180032ef1 f   node:node.exe
 0001:00031efd       __imp_load_?Value@Int32@v8@@QEBAHXZ 0000000180032efd f   node:node.exe
 0001:00031f09       __imp_load_?New@Number@v8@@SA?AV?$Local@VNumber@v8@@@2@PEAVIsolate@2@N@Z 0000000180032f09 f   node:node.exe
 0001:00031f15       __imp_load_?Value@Number@v8@@QEBANXZ 0000000180032f15 f   node:node.exe
 0001:00031f21       __imp_load_?SlowGetAlignedPointerFromInternalField@Object@v8@@AEAAPEAXH@Z 0000000180032f21 f   node:node.exe
 0001:00031f2d       __imp_load_?SlowGetInternalField@Object@v8@@AEAA?AV?$Local@VValue@v8@@@2@H@Z 0000000180032f2d f   node:node.exe
 0001:00031f39       __imp_load_?New@Object@v8@@SA?AV?$Local@VObject@v8@@@2@PEAVIsolate@2@@Z 0000000180032f39 f   node:node.exe
 0001:00031f45       __imp_load_?SetAlignedPointerInInternalField@Object@v8@@QEAAXHPEAX@Z 0000000180032f45 f   node:node.exe
 0001:00031f51       __imp_load_?SetInternalField@Object@v8@@QEAAXHV?$Local@VValue@v8@@@2@@Z 0000000180032f51 f   node:node.exe
 0001:00031f5d       __imp_load_?InternalFieldCount@Object@v8@@QEAAHXZ 0000000180032f5d f   node:node.exe
 0001:00031f69       __imp_load_?Has@Object@v8@@QEAA_NV?$Local@VValue@v8@@@2@@Z 0000000180032f69 f   node:node.exe
 0001:00031f75       __imp_load_?Get@Object@v8@@QEAA?AV?$Local@VValue@v8@@@2@V32@@Z 0000000180032f75 f   node:node.exe
 0001:00031f81       __imp_load_?Get@Object@v8@@QEAA?AV?$Local@VValue@v8@@@2@I@Z 0000000180032f81 f   node:node.exe
 0001:00031f8d       __imp_load_?Set@Object@v8@@QEAA_NV?$Local@VValue@v8@@@2@0@Z 0000000180032f8d f   node:node.exe
 0001:00031f99       __imp_load_?Set@Object@v8@@QEAA_NIV?$Local@VValue@v8@@@2@@Z 0000000180032f99 f   node:node.exe
 0001:00031fa5       __imp_load_?NewInstance@Function@v8@@QEBA?AV?$Local@VObject@v8@@@2@HQEAV?$Local@VValue@v8@@@2@@Z 0000000180032fa5 f   node:node.exe
 0001:00031fb1       __imp_load_?NewInstance@Function@v8@@QEBA?AV?$Local@VObject@v8@@@2@XZ 0000000180032fb1 f   node:node.exe
 0001:00031fbd       __imp_load_?SetInternalFieldCount@ObjectTemplate@v8@@QEAAXH@Z 0000000180032fbd f   node:node.exe
 0001:00031fc9       __imp_load_?NewInstance@ObjectTemplate@v8@@QEAA?AV?$MaybeLocal@VObject@v8@@@2@V?$Local@VContext@v8@@@2@@Z 0000000180032fc9 f   node:node.exe
 0001:00031fd5       __imp_load_?New@ObjectTemplate@v8@@SA?AV?$Local@VObjectTemplate@v8@@@2@PEAVIsolate@2@V?$Local@VFunctionTemplate@v8@@@2@@Z 0000000180032fd5 f   node:node.exe
 0001:00031fe1       __imp_load_?FatalException@node@@YAXPEAVIsolate@v8@@AEBVTryCatch@3@@Z 0000000180032fe1 f   node:node.exe
 0001:00031fed       __imp_load_?HasInstance@Buffer@node@@YA_NV?$Local@VValue@v8@@@v8@@@Z 0000000180032fed f   node:node.exe
 0001:00031ff9       __imp_load_?New@Buffer@node@@YA?AV?$MaybeLocal@VObject@v8@@@v8@@PEAVIsolate@4@_K@Z 0000000180032ff9 f   node:node.exe
 0001:00032005       __imp_load_?New@Buffer@node@@YA?AV?$MaybeLocal@VObject@v8@@@v8@@PEAVIsolate@4@PEAD_K@Z 0000000180033005 f   node:node.exe
 0001:00032011       __imp_load_?Data@Buffer@node@@YAPEADV?$Local@VValue@v8@@@v8@@@Z 0000000180033011 f   node:node.exe
 0001:0003201d       __imp_load_?Data@Buffer@node@@YAPEADV?$Local@VObject@v8@@@v8@@@Z 000000018003301d f   node:node.exe
 0001:00032029       __imp_load_?Length@Buffer@node@@YA_KV?$Local@VValue@v8@@@v8@@@Z 0000000180033029 f   node:node.exe
 0001:00032035       __imp_load_?MakeCallback@node@@YA?AV?$Local@VValue@v8@@@v8@@PEAVIsolate@3@V?$Local@VObject@v8@@@3@V?$Local@VFunction@v8@@@3@HPEAV23@@Z 0000000180033035 f   node:node.exe
 0001:00032041       __imp_load_uv_default_loop 0000000180033041 f   node:node.exe
 0001:0003204d       __imp_load_?ToInt32@Value@v8@@QEBA?AV?$Local@VInt32@v8@@@2@XZ 000000018003304d f   node:node.exe
 0001:00032059       __imp_load_?ToObject@Value@v8@@QEBA?AV?$Local@VObject@v8@@@2@XZ 0000000180033059 f   node:node.exe
 0001:00032065       __imp_load_?ToString@Value@v8@@QEBA?AV?$Local@VString@v8@@@2@XZ 0000000180033065 f   node:node.exe
 0001:00032071       __imp_load_?ToNumber@Value@v8@@QEBA?AV?$Local@VNumber@v8@@@2@XZ 0000000180033071 f   node:node.exe
 0001:0003207d       __imp_load_??1EscapableHandleScope@v8@@QEAA@XZ 000000018003307d f   node:node.exe
 0001:00032089       __imp_load_?GetFunction@FunctionTemplate@v8@@QEAA?AV?$MaybeLocal@VFunction@v8@@@2@V?$Local@VContext@v8@@@2@@Z 0000000180033089 f   node:node.exe
 0001:00032095       __imp_load_?Call@Function@v8@@QEAA?AV?$Local@VValue@v8@@@2@V32@HQEAV32@@Z 0000000180033095 f   node:node.exe
 0001:000320a1       __imp_load_?Length@Buffer@node@@YA_KV?$Local@VObject@v8@@@v8@@@Z 00000001800330a1 f   node:node.exe
 0001:000320ad       __imp_load_?SetAccessor@ObjectTemplate@v8@@QEAAXV?$Local@VName@v8@@@2@P6AX0AEBV?$PropertyCallbackInfo@VValue@v8@@@2@@ZP6AX0V?$Local@VValue@v8@@@2@AEBV?$PropertyCallbackInfo@X@2@@Z3W4AccessControl@2@W4PropertyAttribute@2@V?$Local@VAccessorSignature@v8@@@2@@Z 00000001800330ad f   node:node.exe
 0001:000320b9       __imp_load_?Value@Boolean@v8@@QEBA_NXZ 00000001800330b9 f   node:node.exe
 0001:000320c5       __imp_load_?ToBoolean@Value@v8@@QEBA?AV?$Local@VBoolean@v8@@@2@XZ 00000001800330c5 f   node:node.exe
 0001:000320d2       ?clear@_OutputArray@cv@@UEBAXXZ 00000001800330d2 f   opencv_core2413:opencv_core2413.dll
 0001:000320d8       ?release@_OutputArray@cv@@UEBAXXZ 00000001800330d8 f   opencv_core2413:opencv_core2413.dll
 0001:000320de       ?create@_OutputArray@cv@@UEBAXV?$Size_@H@2@HH_NH@Z 00000001800330de f   opencv_core2413:opencv_core2413.dll
 0001:000320e4       ?create@_OutputArray@cv@@UEBAXHHHH_NH@Z 00000001800330e4 f   opencv_core2413:opencv_core2413.dll
 0001:000320ea       ?create@_OutputArray@cv@@UEBAXHPEBHHH_NH@Z 00000001800330ea f   opencv_core2413:opencv_core2413.dll
 0001:000320f0       ?getMatRef@_OutputArray@cv@@UEBAAEAVMat@2@H@Z 00000001800330f0 f   opencv_core2413:opencv_core2413.dll
 0001:000320f6       ?needed@_OutputArray@cv@@UEBA_NXZ 00000001800330f6 f   opencv_core2413:opencv_core2413.dll
 0001:000320fc       ?fixedType@_OutputArray@cv@@UEBA_NXZ 00000001800330fc f   opencv_core2413:opencv_core2413.dll
 0001:00032102       ?fixedSize@_OutputArray@cv@@UEBA_NXZ 0000000180033102 f   opencv_core2413:opencv_core2413.dll
 0001:00032108       ?empty@_InputArray@cv@@UEBA_NXZ 0000000180033108 f   opencv_core2413:opencv_core2413.dll
 0001:0003210e       ?channels@_InputArray@cv@@UEBAHH@Z 000000018003310e f   opencv_core2413:opencv_core2413.dll
 0001:00032114       ?depth@_InputArray@cv@@UEBAHH@Z 0000000180033114 f   opencv_core2413:opencv_core2413.dll
 0001:0003211a       ?type@_InputArray@cv@@UEBAHH@Z 000000018003311a f   opencv_core2413:opencv_core2413.dll
 0001:00032120       ?total@_InputArray@cv@@UEBA_KH@Z 0000000180033120 f   opencv_core2413:opencv_core2413.dll
 0001:00032126       ?size@_InputArray@cv@@UEBA?AV?$Size_@H@2@H@Z 0000000180033126 f   opencv_core2413:opencv_core2413.dll
 0001:0003212c       ?kind@_InputArray@cv@@UEBAHXZ 000000018003312c f   opencv_core2413:opencv_core2413.dll
 0001:00032132       ?getGpuMat@_InputArray@cv@@UEBA?AVGpuMat@gpu@2@XZ 0000000180033132 f   opencv_core2413:opencv_core2413.dll
 0001:00032138       ?getGlTexture@_InputArray@cv@@UEBA?AVGlTexture@2@XZ 0000000180033138 f   opencv_core2413:opencv_core2413.dll
 0001:0003213e       ?getGlBuffer@_InputArray@cv@@UEBA?AVGlBuffer@2@XZ 000000018003313e f   opencv_core2413:opencv_core2413.dll
 0001:00032144       ?getMatVector@_InputArray@cv@@UEBAXAEAV?$vector@VMat@cv@@V?$allocator@VMat@cv@@@std@@@std@@@Z 0000000180033144 f   opencv_core2413:opencv_core2413.dll
 0001:0003214a       ?getMat@_InputArray@cv@@UEBA?AVMat@2@H@Z 000000018003314a f   opencv_core2413:opencv_core2413.dll
 0001:00032150       ??0_Init_locks@std@@QEAA@XZ 0000000180033150 f   libcpmt:xlock.obj
 0001:0003219c       ??1_Init_locks@std@@QEAA@XZ 000000018003319c f   libcpmt:xlock.obj
 0001:000321e0       ??_G_Fac_node@std@@QEAAPEAXI@Z 00000001800331e0 f i libcpmt:locale0.obj
 0001:0003226c       ??0bad_alloc@std@@QEAA@AEBV01@@Z 000000018003326c f i libcpmt:xthrow.obj
 0001:000322ac       ??0bad_alloc@std@@QEAA@XZ  00000001800332ac f i libcpmt:xthrow.obj
 0001:000322cc       ??0exception@std@@QEAA@AEBV01@@Z 00000001800332cc f i libcpmt:xthrow.obj
 0001:00032304       ??0length_error@std@@QEAA@AEBV01@@Z 0000000180033304 f i libcpmt:xthrow.obj
 0001:00032344       ??0length_error@std@@QEAA@PEBD@Z 0000000180033344 f i libcpmt:xthrow.obj
 0001:00032390       ??0logic_error@std@@QEAA@AEBV01@@Z 0000000180033390 f i libcpmt:xthrow.obj
 0001:000323d0       ??0out_of_range@std@@QEAA@AEBV01@@Z 00000001800333d0 f i libcpmt:xthrow.obj
 0001:00032410       ??0out_of_range@std@@QEAA@PEBD@Z 0000000180033410 f i libcpmt:xthrow.obj
 0001:0003245c       ??1length_error@std@@UEAA@XZ 000000018003345c f i libcpmt:xthrow.obj
 0001:0003245c       ??1bad_array_new_length@std@@UEAA@XZ 000000018003345c f i LIBCMT:throw_bad_alloc.obj
 0001:0003245c       ??1bad_alloc@std@@UEAA@XZ  000000018003345c f i libcpmt:xthrow.obj
 0001:0003245c       ??1out_of_range@std@@UEAA@XZ 000000018003345c f i libcpmt:xthrow.obj
 0001:0003245c       ??1bad_exception@std@@UEAA@XZ 000000018003345c f i libvcruntime:frame.obj
 0001:00032470       ?_Xlength_error@std@@YAXPEBD@Z 0000000180033470 f   libcpmt:xthrow.obj
 0001:00032494       ?_Xout_of_range@std@@YAXPEBD@Z 0000000180033494 f   libcpmt:xthrow.obj
 0001:000324b8       ?what@exception@std@@UEBAPEBDXZ 00000001800334b8 f i libcpmt:xthrow.obj
 0001:000324cc       _Mtxdst                    00000001800334cc f   libcpmt:xmtx.obj
 0001:000324d4       _Mtxinit                   00000001800334d4 f   libcpmt:xmtx.obj
 0001:000329b4       __crtInitializeCriticalSectionEx 00000001800339b4 f   libcpmt:winapisupp.obj
 0001:00032a30       __security_check_cookie    0000000180033a30 f   LIBCMT:_amdsecgs_.obj
 0001:00032a54       ??_V@YAXPEAX@Z             0000000180033a54 f   LIBCMT:delete_array.obj
 0001:00032a54       ??3@YAXPEAX_K@Z            0000000180033a54 f   LIBCMT:delete_scalar_size.obj
 0001:00032ba4       ??2@YAPEAX_K@Z             0000000180033ba4 f   LIBCMT:new_scalar.obj
 0001:00032be0       __scrt_acquire_startup_lock 0000000180033be0 f   LIBCMT:utility.obj
 0001:00032c1c       __scrt_dllmain_after_initialize_c 0000000180033c1c f   LIBCMT:utility.obj
 0001:00032c50       __scrt_dllmain_before_initialize_c 0000000180033c50 f   LIBCMT:utility.obj
 0001:00032c68       __scrt_dllmain_crt_thread_attach 0000000180033c68 f   LIBCMT:utility.obj
 0001:00032c90       __scrt_dllmain_crt_thread_detach 0000000180033c90 f   LIBCMT:utility.obj
 0001:00032ca8       __scrt_dllmain_exception_filter 0000000180033ca8 f   LIBCMT:utility.obj
 0001:00032d0c       __scrt_dllmain_uninitialize_c 0000000180033d0c f   LIBCMT:utility.obj
 0001:00032d3c       __scrt_dllmain_uninitialize_critical 0000000180033d3c f   LIBCMT:utility.obj
 0001:00032d50       __scrt_initialize_crt      0000000180033d50 f   LIBCMT:utility.obj
 0001:00032d9c       __scrt_initialize_onexit_tables 0000000180033d9c f   LIBCMT:utility.obj
 0001:00032e68       __scrt_is_nonwritable_in_current_image 0000000180033e68 f   LIBCMT:utility.obj
 0001:00032f04       __scrt_release_startup_lock 0000000180033f04 f   LIBCMT:utility.obj
 0001:00032f28       __scrt_uninitialize_crt    0000000180033f28 f   LIBCMT:utility.obj
 0001:00032f54       _onexit                    0000000180033f54 f   LIBCMT:utility.obj
 0001:00032fa4       atexit                     0000000180033fa4 f   LIBCMT:utility.obj
 0001:00032fbc       ??3@YAXPEAX@Z              0000000180033fbc f   LIBCMT:delete_scalar.obj
 0001:00032fc4       ??_Gtype_info@@UEAAPEAXI@Z 0000000180033fc4 f i LIBCMT:std_type_info_static.obj
 0001:00032fc4       ??_Etype_info@@UEAAPEAXI@Z 0000000180033fc4 f i LIBCMT:std_type_info_static.obj
 0001:00032ff0       ??_V@YAXPEAX_K@Z           0000000180033ff0 f   LIBCMT:delete_array_size.obj
 0001:00032ff8       ??_U@YAPEAX_K@Z            0000000180033ff8 f   LIBCMT:new_array.obj
 0001:00033370       _DllMainCRTStartup         0000000180034370 f   LIBCMT:dll_dllmain.obj
 0001:000333b0       _guard_check_icall         00000001800343b0 f i LIBCMT:checkcfg.obj
 0001:000333b8       __GSHandlerCheck           00000001800343b8 f   LIBCMT:_gshandler_.obj
 0001:000333d8       __GSHandlerCheckCommon     00000001800343d8 f   LIBCMT:_gshandler_.obj
 0001:00033434       __GSHandlerCheck_EH        0000000180034434 f   LIBCMT:gshandlereh.obj
 0001:000334e0       _alloca_probe              00000001800344e0 f   LIBCMT:_chkstk_.obj
 0001:000334e0       __chkstk                   00000001800344e0 f   LIBCMT:_chkstk_.obj
 0001:00033534       __raise_securityfailure    0000000180034534 f   LIBCMT:gs_report.obj
 0001:00033568       __report_gsfailure         0000000180034568 f   LIBCMT:gs_report.obj
 0001:0003363c       __report_rangecheckfailure 000000018003463c f   LIBCMT:gs_report.obj
 0001:00033650       __report_securityfailure   0000000180034650 f   LIBCMT:gs_report.obj
 0001:000337d0       __crt_debugger_hook        00000001800347d0 f   LIBCMT:utility_desktop.obj
 0001:000337d8       __scrt_fastfail            00000001800347d8 f   LIBCMT:utility_desktop.obj
 0001:00033920       ??0bad_array_new_length@std@@QEAA@AEBV01@@Z 0000000180034920 f i LIBCMT:throw_bad_alloc.obj
 0001:00033960       ??0bad_array_new_length@std@@QEAA@XZ 0000000180034960 f i LIBCMT:throw_bad_alloc.obj
 0001:00033980       ??_Ebad_alloc@std@@UEAAPEAXI@Z 0000000180034980 f i libcpmt:xthrow.obj
 0001:00033980       ??_Gexception@std@@UEAAPEAXI@Z 0000000180034980 f i libcpmt:xthrow.obj
 0001:00033980       ??_Elogic_error@std@@UEAAPEAXI@Z 0000000180034980 f i libcpmt:xthrow.obj
 0001:00033980       ??_Eexception@std@@UEAAPEAXI@Z 0000000180034980 f i libcpmt:xthrow.obj
 0001:00033980       ??_Gbad_alloc@std@@UEAAPEAXI@Z 0000000180034980 f i libcpmt:xthrow.obj
 0001:00033980       ??_Eout_of_range@std@@UEAAPEAXI@Z 0000000180034980 f i libcpmt:xthrow.obj
 0001:00033980       ??_Glength_error@std@@UEAAPEAXI@Z 0000000180034980 f i libcpmt:xthrow.obj
 0001:00033980       ??_Elength_error@std@@UEAAPEAXI@Z 0000000180034980 f i libcpmt:xthrow.obj
 0001:00033980       ??_Gout_of_range@std@@UEAAPEAXI@Z 0000000180034980 f i libcpmt:xthrow.obj
 0001:00033980       ??_Ebad_exception@std@@UEAAPEAXI@Z 0000000180034980 f i libvcruntime:frame.obj
 0001:00033980       ??_Glogic_error@std@@UEAAPEAXI@Z 0000000180034980 f i libcpmt:xthrow.obj
 0001:00033980       ??_Ebad_array_new_length@std@@UEAAPEAXI@Z 0000000180034980 f i LIBCMT:throw_bad_alloc.obj
 0001:00033980       ??_Gbad_exception@std@@UEAAPEAXI@Z 0000000180034980 f i libvcruntime:frame.obj
 0001:00033980       ??_Gbad_array_new_length@std@@UEAAPEAXI@Z 0000000180034980 f i LIBCMT:throw_bad_alloc.obj
 0001:000339c4       ?__scrt_throw_std_bad_alloc@@YAXXZ 00000001800349c4 f   LIBCMT:throw_bad_alloc.obj
 0001:000339c4       ?_Xbad_alloc@std@@YAXXZ    00000001800349c4 f   libcpmt:xthrow.obj
 0001:000339e4       ?__scrt_throw_std_bad_array_new_length@@YAXXZ 00000001800349e4 f   LIBCMT:throw_bad_alloc.obj
 0001:00033a04       __isa_available_init       0000000180034a04 f   LIBCMT:_cpu_disp_.obj
 0001:00033bc8       DllMain                    0000000180034bc8 f   LIBCMT:dll_dllmain_stub.obj
 0001:00033bc8       _get_startup_argv_mode     0000000180034bc8 f   LIBCMT:argv_mode.obj
 0001:00033bd0       __scrt_is_ucrt_dll_in_use  0000000180034bd0 f   LIBCMT:ucrt_detection.obj
 0001:00033bdc       __security_init_cookie     0000000180034bdc f   LIBCMT:gs_support.obj
 0001:00033c88       ?__scrt_initialize_type_info@@YAXXZ 0000000180034c88 f   LIBCMT:tncleanup.obj
 0001:00033c98       ?__scrt_uninitialize_type_info@@YAXXZ 0000000180034c98 f   LIBCMT:tncleanup.obj
 0001:00033ca4       __local_stdio_scanf_options 0000000180034ca4 f i LIBCMT:default_local_stdio_options.obj
 0001:00033cac       __scrt_initialize_default_local_stdio_options 0000000180034cac f   LIBCMT:default_local_stdio_options.obj
 0001:00033cc8       __scrt_get_dyn_tls_init_callback 0000000180034cc8 f   LIBCMT:dyn_tls_init.obj
 0001:00033cd0       _RTC_Initialize            0000000180034cd0 f   LIBCMT:_initsect_.obj
 0001:00033d1c       _RTC_Terminate             0000000180034d1c f   LIBCMT:_initsect_.obj
 0001:00033d80       memcpy                     0000000180034d80 f   libvcruntime:memcpy.obj
 0001:00033d80       memmove                    0000000180034d80 f   libvcruntime:memcpy.obj
 0001:000341b8       _purecall                  00000001800351b8 f   libvcruntime:purevirt.obj
 0001:000341f4       __DestructExceptionObject  00000001800351f4 f   libvcruntime:frame.obj
 0001:0003427c       ??0bad_exception@std@@QEAA@AEBV01@@Z 000000018003527c f i libvcruntime:frame.obj
 0001:000342bc       ??0bad_exception@std@@QEAA@XZ 00000001800352bc f i libvcruntime:frame.obj
 0001:00034c1c       ?_CallMemberFunction0@@YAXPEAXP6AX0@Z@Z 0000000180035c1c f i libvcruntime:frame.obj
 0001:00034c20       ?_CallMemberFunction1@@YAXPEAXP6AX0@Z0@Z 0000000180035c20 f i libvcruntime:frame.obj
 0001:00034c2c       ?_CallMemberFunction2@@YAXPEAXP6AX0@Z0H@Z 0000000180035c2c f i libvcruntime:frame.obj
 0001:00034c3c       __AdjustPointer            0000000180035c3c f   libvcruntime:frame.obj
 0001:00034c60       __BuildCatchObject         0000000180035c60 f   libvcruntime:frame.obj
 0001:00034d28       __BuildCatchObjectHelper   0000000180035d28 f   libvcruntime:frame.obj
 0001:00034f0c       __CxxCallCatchBlock        0000000180035f0c f   libvcruntime:frame.obj
 0001:000350f8       __FrameUnwindFilter        00000001800360f8 f   libvcruntime:frame.obj
 0001:00035144       __FrameUnwindToState       0000000180036144 f   libvcruntime:frame.obj
 0001:000352d8       __InternalCxxFrameHandler  00000001800362d8 f   libvcruntime:frame.obj
 0001:00035530       __TypeMatch                0000000180036530 f   libvcruntime:frame.obj
 0001:00035670       __std_terminate            0000000180036670 f   libvcruntime:frame.obj
 0001:0003567c       ?_GetEstablisherFrame@@YAPEA_KPEA_KPEAU_xDISPATCHER_CONTEXT@@PEBU_s_FuncInfo@@0@Z 000000018003667c f   libvcruntime:trnsctrl.obj
 0001:00035748       ?_GetRangeOfTrysToCheck@@YAPEBU_s_TryBlockMapEntry@@PEA_KPEBU_s_FuncInfo@@HHPEAI2PEAU_xDISPATCHER_CONTEXT@@@Z 0000000180036748 f   libvcruntime:trnsctrl.obj
 0001:00035874       ?__FrameUnwindToEmptyState@@YAXPEA_KPEAU_xDISPATCHER_CONTEXT@@PEBU_s_FuncInfo@@@Z 0000000180036874 f   libvcruntime:trnsctrl.obj
 0001:00035908       ?__SehTransFilter@@YAHPEAU_EXCEPTION_POINTERS@@PEAUEHExceptionRecord@@PEA_KPEAU_CONTEXT@@PEAU_xDISPATCHER_CONTEXT@@PEBU_s_FuncInfo@@PEAH@Z 0000000180036908 f   libvcruntime:trnsctrl.obj
 0001:000359a0       _CallSETranslator          00000001800369a0 f   libvcruntime:trnsctrl.obj
 0001:000359f8       _CreateFrameInfo           00000001800369f8 f   libvcruntime:trnsctrl.obj
 0001:00035a34       _FindAndUnlinkFrame        0000000180036a34 f   libvcruntime:trnsctrl.obj
 0001:00035a8c       _GetImageBase              0000000180036a8c f   libvcruntime:trnsctrl.obj
 0001:00035aa0       _GetThrowImageBase         0000000180036aa0 f   libvcruntime:trnsctrl.obj
 0001:00035ab4       _IsExceptionObjectToBeDestroyed 0000000180036ab4 f   libvcruntime:trnsctrl.obj
 0001:00035ae4       _SetImageBase              0000000180036ae4 f   libvcruntime:trnsctrl.obj
 0001:00035afc       _SetThrowImageBase         0000000180036afc f   libvcruntime:trnsctrl.obj
 0001:00035b14       _UnwindNestedFrames        0000000180036b14 f   libvcruntime:trnsctrl.obj
 0001:00035c38       __CxxFrameHandler3         0000000180036c38 f   libvcruntime:trnsctrl.obj
 0001:00035cb8       __std_exception_copy       0000000180036cb8 f   libvcruntime:std_exception.obj
 0001:00035d48       __std_exception_destroy    0000000180036d48 f   libvcruntime:std_exception.obj
 0001:00035d70       _CxxThrowException         0000000180036d70 f   libvcruntime:throw.obj
 0001:00035e60       memset                     0000000180036e60 f   libvcruntime:memset.obj
 0001:00036010       memcmp                     0000000180037010 f   libvcruntime:memcmp.obj
 0001:000362a0       __vcrt_EventRegister       00000001800372a0 f   libvcruntime:winapi_downlevel.obj
 0001:00036324       __vcrt_EventSetInformation 0000000180037324 f   libvcruntime:winapi_downlevel.obj
 0001:000363a8       __vcrt_EventUnregister     00000001800373a8 f   libvcruntime:winapi_downlevel.obj
 0001:000363fc       __vcrt_EventWriteTransfer  00000001800373fc f   libvcruntime:winapi_downlevel.obj
 0001:00036494       __vcrt_FlsAlloc            0000000180037494 f   libvcruntime:winapi_downlevel.obj
 0001:000364e8       __vcrt_FlsFree             00000001800374e8 f   libvcruntime:winapi_downlevel.obj
 0001:0003653c       __vcrt_FlsGetValue         000000018003753c f   libvcruntime:winapi_downlevel.obj
 0001:00036590       __vcrt_FlsSetValue         0000000180037590 f   libvcruntime:winapi_downlevel.obj
 0001:000365f8       __vcrt_InitializeCriticalSectionEx 00000001800375f8 f   libvcruntime:winapi_downlevel.obj
 0001:00036670       __vcrt_initialize_winapi_thunks 0000000180037670 f   libvcruntime:winapi_downlevel.obj
 0001:000366a8       __vcrt_uninitialize_winapi_thunks 00000001800376a8 f   libvcruntime:winapi_downlevel.obj
 0001:000366e8       __vcrt_initialize          00000001800376e8 f   libvcruntime:initialization.obj
 0001:00036720       __vcrt_thread_attach       0000000180037720 f   libvcruntime:initialization.obj
 0001:00036734       __vcrt_thread_detach       0000000180037734 f   libvcruntime:initialization.obj
 0001:00036748       __vcrt_uninitialize        0000000180037748 f   libvcruntime:initialization.obj
 0001:00036774       __vcrt_uninitialize_critical 0000000180037774 f   libvcruntime:initialization.obj
 0001:00036784       __C_specific_handler       0000000180037784 f   libvcruntime:_chandler_.obj
 0001:00036984       __telemetry_main_invoke_trigger 0000000180037984 f   libvcruntime:telemetry.obj
 0001:00036a9c       __telemetry_main_return_trigger 0000000180037a9c f   libvcruntime:telemetry.obj
 0001:00036bb4       __vcrt_initialize_telemetry_provider 0000000180037bb4 f   libvcruntime:telemetry.obj
 0001:00036bc8       __vcrt_uninitialize_telemetry_provider 0000000180037bc8 f   libvcruntime:telemetry.obj
 0001:00036be8       __std_type_info_compare    0000000180037be8 f   libvcruntime:std_type_info.obj
 0001:00036c10       __std_type_info_destroy_list 0000000180037c10 f   libvcruntime:std_type_info.obj
 0001:00036c3c       __vcrt_initialize_pure_virtual_call_handler 0000000180037c3c f   libvcruntime:purevirt_data.obj
 0001:00036c60       __vcrt_freefls             0000000180037c60 f   libvcruntime:per_thread_data.obj
 0001:00036c80       __vcrt_freeptd             0000000180037c80 f   libvcruntime:per_thread_data.obj
 0001:00036cd0       __vcrt_getptd              0000000180037cd0 f   libvcruntime:per_thread_data.obj
 0001:00036cec       __vcrt_getptd_noexit       0000000180037cec f   libvcruntime:per_thread_data.obj
 0001:00036da4       __vcrt_initialize_ptd      0000000180037da4 f   libvcruntime:per_thread_data.obj
 0001:00036de4       __vcrt_uninitialize_ptd    0000000180037de4 f   libvcruntime:per_thread_data.obj
 0001:00036e08       ?__GetCurrentState@@YAHPEA_KPEAU_xDISPATCHER_CONTEXT@@PEBU_s_FuncInfo@@@Z 0000000180037e08 f   libvcruntime:ehstate.obj
 0001:00036e30       ?__GetUnwindTryBlock@@YAHPEA_KPEAU_xDISPATCHER_CONTEXT@@PEBU_s_FuncInfo@@@Z 0000000180037e30 f   libvcruntime:ehstate.obj
 0001:00036e5c       ?__SetState@@YAXPEA_KPEAU_xDISPATCHER_CONTEXT@@PEBU_s_FuncInfo@@H@Z 0000000180037e5c f   libvcruntime:ehstate.obj
 0001:00036e68       ?__SetUnwindTryBlock@@YAXPEA_KPEAU_xDISPATCHER_CONTEXT@@PEBU_s_FuncInfo@@H@Z 0000000180037e68 f   libvcruntime:ehstate.obj
 0001:00036ea4       ?__StateFromControlPc@@YAHPEBU_s_FuncInfo@@PEAU_xDISPATCHER_CONTEXT@@@Z 0000000180037ea4 f   libvcruntime:ehstate.obj
 0001:00036eac       ?__StateFromIp@@YAHPEBU_s_FuncInfo@@PEAU_xDISPATCHER_CONTEXT@@_J@Z 0000000180037eac f   libvcruntime:ehstate.obj
 0001:00036f30       _CallSettingFrame          0000000180037f30 f   libvcruntime:handlers.obj
 0001:00036f80       _local_unwind              0000000180037f80 f   libvcruntime:_jmpuwind_.obj
 0001:00036fb0       _NLG_Notify                0000000180037fb0 f   libvcruntime:_jmpuwind_.obj
 0001:00036fd0       __NLG_Dispatch2            0000000180037fd0 f   libvcruntime:_jmpuwind_.obj
 0001:00036fe0       __NLG_Return2              0000000180037fe0 f   libvcruntime:_jmpuwind_.obj
 0001:00036fe4       __vcrt_initialize_locks    0000000180037fe4 f   libvcruntime:locks.obj
 0001:0003702c       __vcrt_uninitialize_locks  000000018003802c f   libvcruntime:locks.obj
 0001:00037064       abort                      0000000180038064 f   libucrt:abort.obj
 0001:000370bc       __acrt_call_reportfault    00000001800380bc f   libucrt:invalid_parameter.obj
 0001:00037218       __acrt_initialize_invalid_parameter_handler 0000000180038218 f   libucrt:invalid_parameter.obj
 0001:00037220       _invalid_parameter         0000000180038220 f   libucrt:invalid_parameter.obj
 0001:000372c8       _invalid_parameter_noinfo  00000001800382c8 f   libucrt:invalid_parameter.obj
 0001:000372e8       _invalid_parameter_noinfo_noreturn 00000001800382e8 f   libucrt:invalid_parameter.obj
 0001:00037318       _invoke_watson             0000000180038318 f   libucrt:invalid_parameter.obj
 0001:00037360       ??$?RV<lambda_7b91131dde12e1c3dfc74ff76b3f2eac>@@AEAV<lambda_dd75445284c072d0bd3768540cc698fa>@@V<lambda_16bc4ecb55b4718497c16bceaea2ceaf>@@@?$__crt_seh_guarded_call@H@@QEAAH$$QEAV<lambda_7b91131dde12e1c3dfc74ff76b3f2eac>@@AEAV<lambda_dd75445284c072d0bd3768540cc698fa>@@$$QEAV<lambda_16bc4ecb55b4718497c16bceaea2ceaf>@@@Z 0000000180038360 f i libucrt:output.obj
 0001:000373a0       ??$?RV<lambda_aa279a7bcb127014629d5b1d62c7325d>@@AEAV<lambda_0a64b6a4deda75c01876f29c44fc5eb3>@@V<lambda_3323e69fbefe9d1a11713e670d47cdfa>@@@?$__crt_seh_guarded_call@H@@QEAAH$$QEAV<lambda_aa279a7bcb127014629d5b1d62c7325d>@@AEAV<lambda_0a64b6a4deda75c01876f29c44fc5eb3>@@$$QEAV<lambda_3323e69fbefe9d1a11713e670d47cdfa>@@@Z 00000001800383a0 f i libucrt:output.obj
 0001:000373e0       ??$ensure_buffer_is_big_enough@D@formatting_buffer@__crt_stdio_output@@QEAA_N_K@Z 00000001800383e0 f i libucrt:output.obj
 0001:0003748c       ??$is_wide_character_specifier@D@__crt_stdio_output@@YA_N_KDW4length_modifier@0@@Z 000000018003848c f i libucrt:output.obj
 0001:000374bc       ??$is_wide_character_specifier@_W@__crt_stdio_output@@YA_N_K_WW4length_modifier@0@@Z 00000001800384bc f i libucrt:output.obj
 0001:00037500       ??$type_case_integer_parse_into_buffer@I@?$output_processor@_WV?$string_output_adapter@_W@__crt_stdio_output@@V?$standard_base@_WV?$string_output_adapter@_W@__crt_stdio_output@@@2@@__crt_stdio_output@@AEAAXII_N@Z 0000000180038500 f i libucrt:output.obj
 0001:00037500       ??$type_case_integer_parse_into_buffer@I@?$output_processor@_WV?$stream_output_adapter@_W@__crt_stdio_output@@V?$standard_base@_WV?$stream_output_adapter@_W@__crt_stdio_output@@@2@@__crt_stdio_output@@AEAAXII_N@Z 0000000180038500 f i libucrt:output.obj
 0001:00037500       ??$type_case_integer_parse_into_buffer@I@?$output_processor@DV?$stream_output_adapter@D@__crt_stdio_output@@V?$standard_base@DV?$stream_output_adapter@D@__crt_stdio_output@@@2@@__crt_stdio_output@@AEAAXII_N@Z 0000000180038500 f i libucrt:output.obj
 0001:00037500       ??$type_case_integer_parse_into_buffer@I@?$output_processor@DV?$string_output_adapter@D@__crt_stdio_output@@V?$standard_base@DV?$string_output_adapter@D@__crt_stdio_output@@@2@@__crt_stdio_output@@AEAAXII_N@Z 0000000180038500 f i libucrt:output.obj
 0001:0003759c       ??$type_case_integer_parse_into_buffer@_K@?$output_processor@DV?$stream_output_adapter@D@__crt_stdio_output@@V?$standard_base@DV?$stream_output_adapter@D@__crt_stdio_output@@@2@@__crt_stdio_output@@AEAAX_KI_N@Z 000000018003859c f i libucrt:output.obj
 0001:0003759c       ??$type_case_integer_parse_into_buffer@_K@?$output_processor@_WV?$string_output_adapter@_W@__crt_stdio_output@@V?$standard_base@_WV?$string_output_adapter@_W@__crt_stdio_output@@@2@@__crt_stdio_output@@AEAAX_KI_N@Z 000000018003859c f i libucrt:output.obj
 0001:0003759c       ??$type_case_integer_parse_into_buffer@_K@?$output_processor@_WV?$stream_output_adapter@_W@__crt_stdio_output@@V?$standard_base@_WV?$stream_output_adapter@_W@__crt_stdio_output@@@2@@__crt_stdio_output@@AEAAX_KI_N@Z 000000018003859c f i libucrt:output.obj
 0001:0003759c       ??$type_case_integer_parse_into_buffer@_K@?$output_processor@DV?$string_output_adapter@D@__crt_stdio_output@@V?$standard_base@DV?$string_output_adapter@D@__crt_stdio_output@@@2@@__crt_stdio_output@@AEAAX_KI_N@Z 000000018003859c f i libucrt:output.obj
 0001:00037638       ??$write_multiple_characters@V?$stream_output_adapter@D@__crt_stdio_output@@D@__crt_stdio_output@@YAXAEBV?$stream_output_adapter@D@0@DHQEAH@Z 0000000180038638 f i libucrt:output.obj
 0001:000376bc       ??$write_multiple_characters@V?$stream_output_adapter@_W@__crt_stdio_output@@D@__crt_stdio_output@@YAXAEBV?$stream_output_adapter@_W@0@DHQEAH@Z 00000001800386bc f i libucrt:output.obj
 0001:0003774c       ??$write_multiple_characters@V?$string_output_adapter@D@__crt_stdio_output@@D@__crt_stdio_output@@YAXAEBV?$string_output_adapter@D@0@DHQEAH@Z 000000018003874c f i libucrt:output.obj
 0001:000377a8       ??$write_multiple_characters@V?$string_output_adapter@_W@__crt_stdio_output@@D@__crt_stdio_output@@YAXAEBV?$string_output_adapter@_W@0@DHQEAH@Z 00000001800387a8 f i libucrt:output.obj
 0001:00037818       ??0?$output_processor@DV?$string_output_adapter@D@__crt_stdio_output@@V?$standard_base@DV?$string_output_adapter@D@__crt_stdio_output@@@2@@__crt_stdio_output@@QEAA@AEBV?$string_output_adapter@D@1@_KQEBDQEAU__crt_locale_pointers@@QEAD@Z 0000000180038818 f i libucrt:output.obj
 0001:00037818       ??0?$output_processor@DV?$stream_output_adapter@D@__crt_stdio_output@@V?$standard_base@DV?$stream_output_adapter@D@__crt_stdio_output@@@2@@__crt_stdio_output@@QEAA@AEBV?$stream_output_adapter@D@1@_KQEBDQEAU__crt_locale_pointers@@QEAD@Z 0000000180038818 f i libucrt:output.obj
 0001:00037894       ??0?$output_processor@_WV?$string_output_adapter@_W@__crt_stdio_output@@V?$standard_base@_WV?$string_output_adapter@_W@__crt_stdio_output@@@2@@__crt_stdio_output@@QEAA@AEBV?$string_output_adapter@_W@1@_KQEB_WQEAU__crt_locale_pointers@@QEAD@Z 0000000180038894 f i libucrt:output.obj
 0001:00037894       ??0?$output_processor@_WV?$stream_output_adapter@_W@__crt_stdio_output@@V?$standard_base@_WV?$stream_output_adapter@_W@__crt_stdio_output@@@2@@__crt_stdio_output@@QEAA@AEBV?$stream_output_adapter@_W@1@_KQEB_WQEAU__crt_locale_pointers@@QEAD@Z 0000000180038894 f i libucrt:output.obj
 0001:00037914       ??0_LocaleUpdate@@QEAA@QEAU__crt_locale_pointers@@@Z 0000000180038914 f i libucrt:output.obj
 0001:00037b84       ?force_decimal_point@__crt_stdio_output@@YAXPEADQEAU__crt_locale_pointers@@@Z 0000000180038b84 f i libucrt:output.obj
 0001:00037bf4       ?parse_int_from_format_string@?$output_processor@DV?$stream_output_adapter@D@__crt_stdio_output@@V?$standard_base@DV?$stream_output_adapter@D@__crt_stdio_output@@@2@@__crt_stdio_output@@AEAA_NQEAH@Z 0000000180038bf4 f i libucrt:output.obj
 0001:00037bf4       ?parse_int_from_format_string@?$output_processor@DV?$string_output_adapter@D@__crt_stdio_output@@V?$standard_base@DV?$string_output_adapter@D@__crt_stdio_output@@@2@@__crt_stdio_output@@AEAA_NQEAH@Z 0000000180038bf4 f i libucrt:output.obj
 0001:00037c78       ?parse_int_from_format_string@?$output_processor@_WV?$stream_output_adapter@_W@__crt_stdio_output@@V?$standard_base@_WV?$stream_output_adapter@_W@__crt_stdio_output@@@2@@__crt_stdio_output@@AEAA_NQEAH@Z 0000000180038c78 f i libucrt:output.obj
 0001:00037c78       ?parse_int_from_format_string@?$output_processor@_WV?$string_output_adapter@_W@__crt_stdio_output@@V?$standard_base@_WV?$string_output_adapter@_W@__crt_stdio_output@@@2@@__crt_stdio_output@@AEAA_NQEAH@Z 0000000180038c78 f i libucrt:output.obj
 0001:00037cf8       ?process@?$output_processor@DV?$stream_output_adapter@D@__crt_stdio_output@@V?$standard_base@DV?$stream_output_adapter@D@__crt_stdio_output@@@2@@__crt_stdio_output@@QEAAHXZ 0000000180038cf8 f i libucrt:output.obj
 0001:00037f08       ?process@?$output_processor@DV?$string_output_adapter@D@__crt_stdio_output@@V?$standard_base@DV?$string_output_adapter@D@__crt_stdio_output@@@2@@__crt_stdio_output@@QEAAHXZ 0000000180038f08 f i libucrt:output.obj
 0001:0003810c       ?process@?$output_processor@_WV?$stream_output_adapter@_W@__crt_stdio_output@@V?$standard_base@_WV?$stream_output_adapter@_W@__crt_stdio_output@@@2@@__crt_stdio_output@@QEAAHXZ 000000018003910c f i libucrt:output.obj
 0001:00038384       ?process@?$output_processor@_WV?$string_output_adapter@_W@__crt_stdio_output@@V?$standard_base@_WV?$string_output_adapter@_W@__crt_stdio_output@@@2@@__crt_stdio_output@@QEAAHXZ 0000000180039384 f i libucrt:output.obj
 0001:00038600       ?state_case_normal@?$output_processor@DV?$stream_output_adapter@D@__crt_stdio_output@@V?$standard_base@DV?$stream_output_adapter@D@__crt_stdio_output@@@2@@__crt_stdio_output@@AEAA_NXZ 0000000180039600 f i libucrt:output.obj
 0001:00038670       ?state_case_normal@?$output_processor@DV?$string_output_adapter@D@__crt_stdio_output@@V?$standard_base@DV?$string_output_adapter@D@__crt_stdio_output@@@2@@__crt_stdio_output@@AEAA_NXZ 0000000180039670 f i libucrt:output.obj
 0001:000386e4       ?state_case_normal_tchar@?$output_processor@DV?$stream_output_adapter@D@__crt_stdio_output@@V?$standard_base@DV?$stream_output_adapter@D@__crt_stdio_output@@@2@@__crt_stdio_output@@AEAA_ND@Z 00000001800396e4 f i libucrt:output.obj
 0001:00038778       ?state_case_normal_tchar@?$output_processor@DV?$string_output_adapter@D@__crt_stdio_output@@V?$standard_base@DV?$string_output_adapter@D@__crt_stdio_output@@@2@@__crt_stdio_output@@AEAA_ND@Z 0000000180039778 f i libucrt:output.obj
 0001:00038810       ?state_case_size@?$output_processor@DV?$stream_output_adapter@D@__crt_stdio_output@@V?$standard_base@DV?$stream_output_adapter@D@__crt_stdio_output@@@2@@__crt_stdio_output@@AEAA_NXZ 0000000180039810 f i libucrt:output.obj
 0001:0003898c       ?state_case_size@?$output_processor@DV?$string_output_adapter@D@__crt_stdio_output@@V?$standard_base@DV?$string_output_adapter@D@__crt_stdio_output@@@2@@__crt_stdio_output@@AEAA_NXZ 000000018003998c f i libucrt:output.obj
 0001:00038b08       ?state_case_size@?$output_processor@_WV?$stream_output_adapter@_W@__crt_stdio_output@@V?$standard_base@_WV?$stream_output_adapter@_W@__crt_stdio_output@@@2@@__crt_stdio_output@@AEAA_NXZ 0000000180039b08 f i libucrt:output.obj
 0001:00038cac       ?state_case_size@?$output_processor@_WV?$string_output_adapter@_W@__crt_stdio_output@@V?$standard_base@_WV?$string_output_adapter@_W@__crt_stdio_output@@@2@@__crt_stdio_output@@AEAA_NXZ 0000000180039cac f i libucrt:output.obj
 0001:00038e50       ?state_case_type@?$output_processor@DV?$stream_output_adapter@D@__crt_stdio_output@@V?$standard_base@DV?$stream_output_adapter@D@__crt_stdio_output@@@2@@__crt_stdio_output@@AEAA_NXZ 0000000180039e50 f i libucrt:output.obj
 0001:000390cc       ?state_case_type@?$output_processor@DV?$string_output_adapter@D@__crt_stdio_output@@V?$standard_base@DV?$string_output_adapter@D@__crt_stdio_output@@@2@@__crt_stdio_output@@AEAA_NXZ 000000018003a0cc f i libucrt:output.obj
 0001:00039348       ?state_case_type@?$output_processor@_WV?$stream_output_adapter@_W@__crt_stdio_output@@V?$standard_base@_WV?$stream_output_adapter@_W@__crt_stdio_output@@@2@@__crt_stdio_output@@AEAA_NXZ 000000018003a348 f i libucrt:output.obj
 0001:00039614       ?state_case_type@?$output_processor@_WV?$string_output_adapter@_W@__crt_stdio_output@@V?$standard_base@_WV?$string_output_adapter@_W@__crt_stdio_output@@@2@@__crt_stdio_output@@AEAA_NXZ 000000018003a614 f i libucrt:output.obj
 0001:000398e0       ?type_case_Z@?$output_processor@DV?$stream_output_adapter@D@__crt_stdio_output@@V?$standard_base@DV?$stream_output_adapter@D@__crt_stdio_output@@@2@@__crt_stdio_output@@AEAA_NXZ 000000018003a8e0 f i libucrt:output.obj
 0001:000398e0       ?type_case_Z@?$output_processor@DV?$string_output_adapter@D@__crt_stdio_output@@V?$standard_base@DV?$string_output_adapter@D@__crt_stdio_output@@@2@@__crt_stdio_output@@AEAA_NXZ 000000018003a8e0 f i libucrt:output.obj
 0001:00039960       ?type_case_Z@?$output_processor@_WV?$string_output_adapter@_W@__crt_stdio_output@@V?$standard_base@_WV?$string_output_adapter@_W@__crt_stdio_output@@@2@@__crt_stdio_output@@AEAA_NXZ 000000018003a960 f i libucrt:output.obj
 0001:00039960       ?type_case_Z@?$output_processor@_WV?$stream_output_adapter@_W@__crt_stdio_output@@V?$standard_base@_WV?$stream_output_adapter@_W@__crt_stdio_output@@@2@@__crt_stdio_output@@AEAA_NXZ 000000018003a960 f i libucrt:output.obj
 0001:000399e0       ?type_case_a@?$output_processor@DV?$string_output_adapter@D@__crt_stdio_output@@V?$standard_base@DV?$string_output_adapter@D@__crt_stdio_output@@@2@@__crt_stdio_output@@AEAA_NXZ 000000018003a9e0 f i libucrt:output.obj
 0001:000399e0       ?type_case_a@?$output_processor@DV?$stream_output_adapter@D@__crt_stdio_output@@V?$standard_base@DV?$stream_output_adapter@D@__crt_stdio_output@@@2@@__crt_stdio_output@@AEAA_NXZ 000000018003a9e0 f i libucrt:output.obj
 0001:00039bfc       ?type_case_a@?$output_processor@_WV?$string_output_adapter@_W@__crt_stdio_output@@V?$standard_base@_WV?$string_output_adapter@_W@__crt_stdio_output@@@2@@__crt_stdio_output@@AEAA_NXZ 000000018003abfc f i libucrt:output.obj
 0001:00039bfc       ?type_case_a@?$output_processor@_WV?$stream_output_adapter@_W@__crt_stdio_output@@V?$standard_base@_WV?$stream_output_adapter@_W@__crt_stdio_output@@@2@@__crt_stdio_output@@AEAA_NXZ 000000018003abfc f i libucrt:output.obj
 0001:00039e40       ?type_case_c_tchar@?$output_processor@DV?$string_output_adapter@D@__crt_stdio_output@@V?$standard_base@DV?$string_output_adapter@D@__crt_stdio_output@@@2@@__crt_stdio_output@@AEAA_ND@Z 000000018003ae40 f i libucrt:output.obj
 0001:00039e40       ?type_case_c_tchar@?$output_processor@DV?$stream_output_adapter@D@__crt_stdio_output@@V?$standard_base@DV?$stream_output_adapter@D@__crt_stdio_output@@@2@@__crt_stdio_output@@AEAA_ND@Z 000000018003ae40 f i libucrt:output.obj
 0001:00039ef4       ?type_case_c_tchar@?$output_processor@_WV?$stream_output_adapter@_W@__crt_stdio_output@@V?$standard_base@_WV?$stream_output_adapter@_W@__crt_stdio_output@@@2@@__crt_stdio_output@@AEAA_N_W@Z 000000018003aef4 f i libucrt:output.obj
 0001:00039ef4       ?type_case_c_tchar@?$output_processor@_WV?$string_output_adapter@_W@__crt_stdio_output@@V?$standard_base@_WV?$string_output_adapter@_W@__crt_stdio_output@@@2@@__crt_stdio_output@@AEAA_N_W@Z 000000018003aef4 f i libucrt:output.obj
 0001:00039f9c       ?type_case_integer@?$output_processor@_WV?$string_output_adapter@_W@__crt_stdio_output@@V?$standard_base@_WV?$string_output_adapter@_W@__crt_stdio_output@@@2@@__crt_stdio_output@@AEAA_NI_N@Z 000000018003af9c f i libucrt:output.obj
 0001:00039f9c       ?type_case_integer@?$output_processor@DV?$stream_output_adapter@D@__crt_stdio_output@@V?$standard_base@DV?$stream_output_adapter@D@__crt_stdio_output@@@2@@__crt_stdio_output@@AEAA_NI_N@Z 000000018003af9c f i libucrt:output.obj
 0001:00039f9c       ?type_case_integer@?$output_processor@_WV?$stream_output_adapter@_W@__crt_stdio_output@@V?$standard_base@_WV?$stream_output_adapter@_W@__crt_stdio_output@@@2@@__crt_stdio_output@@AEAA_NI_N@Z 000000018003af9c f i libucrt:output.obj
 0001:00039f9c       ?type_case_integer@?$output_processor@DV?$string_output_adapter@D@__crt_stdio_output@@V?$standard_base@DV?$string_output_adapter@D@__crt_stdio_output@@@2@@__crt_stdio_output@@AEAA_NI_N@Z 000000018003af9c f i libucrt:output.obj
 0001:0003a13c       ?type_case_n@?$output_processor@DV?$string_output_adapter@D@__crt_stdio_output@@V?$standard_base@DV?$string_output_adapter@D@__crt_stdio_output@@@2@@__crt_stdio_output@@AEAA_NXZ 000000018003b13c f i libucrt:output.obj
 0001:0003a13c       ?type_case_n@?$output_processor@_WV?$string_output_adapter@_W@__crt_stdio_output@@V?$standard_base@_WV?$string_output_adapter@_W@__crt_stdio_output@@@2@@__crt_stdio_output@@AEAA_NXZ 000000018003b13c f i libucrt:output.obj
 0001:0003a13c       ?type_case_n@?$output_processor@DV?$stream_output_adapter@D@__crt_stdio_output@@V?$standard_base@DV?$stream_output_adapter@D@__crt_stdio_output@@@2@@__crt_stdio_output@@AEAA_NXZ 000000018003b13c f i libucrt:output.obj
 0001:0003a13c       ?type_case_n@?$output_processor@_WV?$stream_output_adapter@_W@__crt_stdio_output@@V?$standard_base@_WV?$stream_output_adapter@_W@__crt_stdio_output@@@2@@__crt_stdio_output@@AEAA_NXZ 000000018003b13c f i libucrt:output.obj
 0001:0003a218       ?type_case_s@?$output_processor@DV?$string_output_adapter@D@__crt_stdio_output@@V?$standard_base@DV?$string_output_adapter@D@__crt_stdio_output@@@2@@__crt_stdio_output@@AEAA_NXZ 000000018003b218 f i libucrt:output.obj
 0001:0003a218       ?type_case_s@?$output_processor@DV?$stream_output_adapter@D@__crt_stdio_output@@V?$standard_base@DV?$stream_output_adapter@D@__crt_stdio_output@@@2@@__crt_stdio_output@@AEAA_NXZ 000000018003b218 f i libucrt:output.obj
 0001:0003a2a8       ?type_case_s@?$output_processor@_WV?$stream_output_adapter@_W@__crt_stdio_output@@V?$standard_base@_WV?$stream_output_adapter@_W@__crt_stdio_output@@@2@@__crt_stdio_output@@AEAA_NXZ 000000018003b2a8 f i libucrt:output.obj
 0001:0003a2a8       ?type_case_s@?$output_processor@_WV?$string_output_adapter@_W@__crt_stdio_output@@V?$standard_base@_WV?$string_output_adapter@_W@__crt_stdio_output@@@2@@__crt_stdio_output@@AEAA_NXZ 000000018003b2a8 f i libucrt:output.obj
 0001:0003a370       ?validate_stream_is_ansi_if_required@?$__acrt_stdio_char_traits@D@@SA_NQEAU_iobuf@@@Z 000000018003b370 f i libucrt:output.obj
 0001:0003a3fc       ?write_stored_string_tchar@?$output_processor@DV?$stream_output_adapter@D@__crt_stdio_output@@V?$standard_base@DV?$stream_output_adapter@D@__crt_stdio_output@@@2@@__crt_stdio_output@@AEAA_ND@Z 000000018003b3fc f i libucrt:output.obj
 0001:0003a4d4       ?write_stored_string_tchar@?$output_processor@DV?$string_output_adapter@D@__crt_stdio_output@@V?$standard_base@DV?$string_output_adapter@D@__crt_stdio_output@@@2@@__crt_stdio_output@@AEAA_ND@Z 000000018003b4d4 f i libucrt:output.obj
 0001:0003a5ac       ?write_stored_string_tchar@?$output_processor@_WV?$stream_output_adapter@_W@__crt_stdio_output@@V?$standard_base@_WV?$stream_output_adapter@_W@__crt_stdio_output@@@2@@__crt_stdio_output@@AEAA_N_W@Z 000000018003b5ac f i libucrt:output.obj
 0001:0003a698       ?write_stored_string_tchar@?$output_processor@_WV?$string_output_adapter@_W@__crt_stdio_output@@V?$standard_base@_WV?$string_output_adapter@_W@__crt_stdio_output@@@2@@__crt_stdio_output@@AEAA_N_W@Z 000000018003b698 f i libucrt:output.obj
 0001:0003a788       ?write_string@?$stream_output_adapter@D@__crt_stdio_output@@QEBAXQEBDHQEAH1@Z 000000018003b788 f i libucrt:output.obj
 0001:0003a880       ?write_string@?$stream_output_adapter@_W@__crt_stdio_output@@QEBAXQEB_WHQEAH1@Z 000000018003b880 f i libucrt:output.obj
 0001:0003a98c       ?write_string@?$string_output_adapter@D@__crt_stdio_output@@QEBAXQEBDHQEAH1@Z 000000018003b98c f i libucrt:output.obj
 0001:0003aa48       ?write_string@?$string_output_adapter@_W@__crt_stdio_output@@QEBAXQEB_WHQEAH1@Z 000000018003ba48 f i libucrt:output.obj
 0001:0003ab08       __stdio_common_vfprintf    000000018003bb08 f   libucrt:output.obj
 0001:0003ab94       __stdio_common_vfwprintf   000000018003bb94 f   libucrt:output.obj
 0001:0003ac20       __stdio_common_vsprintf    000000018003bc20 f   libucrt:output.obj
 0001:0003ae54       __stdio_common_vswprintf   000000018003be54 f   libucrt:output.obj
 0001:0003b08c       free                       000000018003c08c f   libucrt:free.obj
 0001:0003b094       __acrt_initialize_stdio    000000018003c094 f   libucrt:_file.obj
 0001:0003b1b4       __acrt_iob_func            000000018003c1b4 f   libucrt:_file.obj
 0001:0003b1c8       __acrt_uninitialize_stdio  000000018003c1c8 f   libucrt:_file.obj
 0001:0003b224       _lock_file                 000000018003c224 f   libucrt:_file.obj
 0001:0003b230       _unlock_file               000000018003c230 f   libucrt:_file.obj
 0001:0003b23c       round                      000000018003c23c f   libucrt:round.obj
 0001:0003bc8c       ??$ftprintf@PEAU_iobuf@@PEB_WAEBQEB_WAEBQEB_WAEBI@?$__crt_char_traits@_W@@SAH$$QEAPEAU_iobuf@@$$QEAPEB_WAEBQEB_W2AEBI@Z 000000018003cc8c f i libucrt:assert.obj
 0001:0003bcb4       _wassert                   000000018003ccb4 f   libucrt:assert.obj
 0001:0003bd38       fwprintf                   000000018003cd38 f i libucrt:assert.obj
 0001:0003bd7c       swprintf                   000000018003cd7c f i libucrt:assert.obj
 0001:0003bdd0       malloc                     000000018003cdd0 f   libucrt:malloc.obj
 0001:0003bdd8       __ascii_stricmp            000000018003cdd8 f   libucrt:stricmp.obj
 0001:0003be14       _stricmp                   000000018003ce14 f   libucrt:stricmp.obj
 0001:0003be5c       _stricmp_l                 000000018003ce5c f   libucrt:stricmp.obj
 0001:0003bf10       __acrt_initialize_locks    000000018003cf10 f   libucrt:locks.obj
 0001:0003bf58       __acrt_lock                000000018003cf58 f   libucrt:locks.obj
 0001:0003bf74       __acrt_uninitialize_locks  000000018003cf74 f   libucrt:locks.obj
 0001:0003bfac       __acrt_unlock              000000018003cfac f   libucrt:locks.obj
 0001:0003bfc8       _calloc_base               000000018003cfc8 f   libucrt:calloc_base.obj
 0001:0003c040       __pctype_func              000000018003d040 f   libucrt:ctype.obj
 0001:0003c070       isdigit                    000000018003d070 f i libucrt:_ctype.obj
 0001:0003c0e4       __acrt_errno_from_os_error 000000018003d0e4 f   libucrt:errno.obj
 0001:0003c12c       __acrt_errno_map_os_error  000000018003d12c f   libucrt:errno.obj
 0001:0003c17c       __doserrno                 000000018003d17c f   libucrt:errno.obj
 0001:0003c19c       _errno                     000000018003d19c f   libucrt:errno.obj
 0001:0003c234       _ismbblead                 000000018003d234 f   libucrt:ismbbyte.obj
 0001:0003c248       _malloc_base               000000018003d248 f   libucrt:malloc_base.obj
 0001:0003c2a8       _realloc_base              000000018003d2a8 f   libucrt:realloc_base.obj
 0001:0003c32c       ??$make_c_string_character_source@_WPEAPEA_W@__crt_strtox@@YA?AV?$c_string_character_source@_W@0@QEB_WQEAPEA_W@Z 000000018003d32c f i libucrt:strtod.obj
 0001:0003c32c       ??$make_c_string_character_source@DPEAPEAD@__crt_strtox@@YA?AV?$c_string_character_source@D@0@QEBDQEAPEAD@Z 000000018003d32c f i libucrt:strtod.obj
 0001:0003c340       ?divide@__crt_strtox@@YA_KAEAUbig_integer@1@AEBU21@@Z 000000018003d340 f i libucrt:strtod.obj
 0001:0003c810       pow                        000000018003d810 f   libucrt:pow.obj
 0001:0003deb0       powf                       000000018003eeb0 f   libucrt:powf.obj
 0001:0003ed78       __strncnt                  000000018003fd78 f   libucrt:strncnt.obj
 0001:0003ed90       _free_base                 000000018003fd90 f   libucrt:free_base.obj
 0001:0003ee20       _tolower_l                 000000018003fe20 f   libucrt:tolower_toupper.obj
 0001:0003ef60       tolower                    000000018003ff60 f   libucrt:tolower_toupper.obj
 0001:0003ef8c       wcscpy_s                   000000018003ff8c f   libucrt:wcscpy_s.obj
 0001:0003eff4       strnlen                    000000018003fff4 f   libucrt:strnlen.obj
 0001:0003f150       wcsnlen                    0000000180040150 f   libucrt:strnlen.obj
 0001:0003f340       __acrt_initialize_new_handler 0000000180040340 f   libucrt:new_handler.obj
 0001:0003f348       _callnewh                  0000000180040348 f   libucrt:new_handler.obj
 0001:0003f388       _query_new_handler         0000000180040388 f   libucrt:new_handler.obj
 0001:0003f3bc       _seh_filter_dll            00000001800403bc f   libucrt:exception_filter.obj
 0001:0003f3d0       _seh_filter_exe            00000001800403d0 f   libucrt:exception_filter.obj
 0001:0003f790       __acrt_initialize_thread_local_exit_callback 0000000180040790 f   libucrt:exit.obj
 0001:0003f798       _cexit                     0000000180040798 f   libucrt:exit.obj
 0001:0003f7a8       _exit                      00000001800407a8 f   libucrt:exit.obj
 0001:0003f7b4       _is_c_termination_complete 00000001800407b4 f   libucrt:exit.obj
 0001:0003f978       __acrt_allocate_buffer_for_argv 0000000180040978 f   libucrt:argv_parsing.obj
 0001:0003f9dc       _configure_narrow_argv     00000001800409dc f   libucrt:argv_parsing.obj
 0001:0003fd38       __dcrt_uninitialize_environments_nolock 0000000180040d38 f   libucrt:environment_initialization.obj
 0001:0003fd70       _initialize_narrow_environment 0000000180040d70 f   libucrt:environment_initialization.obj
 0001:0003fd78       ??$?RV<lambda_b8c45f8f788dd370798f47cfe8ac3a86>@@AEAV<lambda_4e60a939b0d047cfe11ddc22648dfba9>@@V<lambda_332c3edc96d0294ec56c57d38c1cdfd5>@@@?$__crt_seh_guarded_call@H@@QEAAH$$QEAV<lambda_b8c45f8f788dd370798f47cfe8ac3a86>@@AEAV<lambda_4e60a939b0d047cfe11ddc22648dfba9>@@$$QEAV<lambda_332c3edc96d0294ec56c57d38c1cdfd5>@@@Z 0000000180040d78 f i libucrt:onexit.obj
 0001:0003fdb4       ??$?RV<lambda_e24bbb7b643b32fcea6fa61b31d4c984>@@AEAV<lambda_275893d493268fdec8709772e3fcec0e>@@V<lambda_9d71df4d7cf3f480f8d633942495c3b0>@@@?$__crt_seh_guarded_call@H@@QEAAH$$QEAV<lambda_e24bbb7b643b32fcea6fa61b31d4c984>@@AEAV<lambda_275893d493268fdec8709772e3fcec0e>@@$$QEAV<lambda_9d71df4d7cf3f480f8d633942495c3b0>@@@Z 0000000180040db4 f i libucrt:onexit.obj
 0001:00040130       _crt_atexit                0000000180041130 f   libucrt:onexit.obj
 0001:00040140       _execute_onexit_table      0000000180041140 f   libucrt:onexit.obj
 0001:0004017c       _initialize_onexit_table   000000018004117c f   libucrt:onexit.obj
 0001:000401bc       _register_onexit_function  00000001800411bc f   libucrt:onexit.obj
 0001:0004024c       __acrt_uninitialize_command_line 000000018004124c f   libucrt:argv_data.obj
 0001:0004033c       __acrt_initialize          000000018004133c f   libucrt:initialization.obj
 0001:00040350       __acrt_thread_attach       0000000180041350 f   libucrt:initialization.obj
 0001:00040364       __acrt_thread_detach       0000000180041364 f   libucrt:initialization.obj
 0001:00040374       __acrt_uninitialize        0000000180041374 f   libucrt:initialization.obj
 0001:00040388       __acrt_uninitialize_critical 0000000180041388 f   libucrt:initialization.obj
 0001:00040398       _initterm                  0000000180041398 f   libucrt:initterm.obj
 0001:00040410       _initterm_e                0000000180041410 f   libucrt:initterm.obj
 0001:0004045c       terminate                  000000018004145c f   libucrt:terminate.obj
 0001:00040484       strcpy_s                   0000000180041484 f   libucrt:strcpy_s.obj
 0001:000404e4       ??$is_overflow_condition@K@__crt_strtox@@YA_NIK@Z 00000001800414e4 f i libucrt:atox.obj
 0001:00040510       ??$parse_integer@KV?$c_string_character_source@D@__crt_strtox@@@__crt_strtox@@YAKQEAU__crt_locale_pointers@@V?$c_string_character_source@D@0@H_N@Z 0000000180041510 f i libucrt:atox.obj
 0001:00040824       ??$parse_integer@KV?$c_string_character_source@_W@__crt_strtox@@@__crt_strtox@@YAKQEAU__crt_locale_pointers@@V?$c_string_character_source@_W@0@H_N@Z 0000000180041824 f i libucrt:atox.obj
 0001:00040ef8       ??$?RV<lambda_c36588078e9f5dfd39652860aa6b3aaf>@@AEAV<lambda_ec61778202f4f5fc7e7711acc23c3bca>@@V<lambda_dc9d2797ccde5d239b4a0efae8ebd7db>@@@?$__crt_seh_guarded_call@P6AXH@Z@@QEAAP6AXH@Z$$QEAV<lambda_c36588078e9f5dfd39652860aa6b3aaf>@@AEAV<lambda_ec61778202f4f5fc7e7711acc23c3bca>@@$$QEAV<lambda_dc9d2797ccde5d239b4a0efae8ebd7db>@@@Z 0000000180041ef8 f i libucrt:signal.obj
 0001:00040f40       __acrt_get_sigabrt_handler 0000000180041f40 f   libucrt:signal.obj
 0001:00040f70       __acrt_initialize_signal_handlers 0000000180041f70 f   libucrt:signal.obj
 0001:00040f90       raise                      0000000180041f90 f   libucrt:signal.obj
 0001:0004122c       ??$?RV<lambda_46352004c1216016012b18bd6f87e700>@@AEAV<lambda_3bd07e1a1191394380780325891bf33f>@@V<lambda_334532d3f185bcaa59b5be82d7d22bff>@@@?$__crt_seh_guarded_call@X@@QEAAX$$QEAV<lambda_46352004c1216016012b18bd6f87e700>@@AEAV<lambda_3bd07e1a1191394380780325891bf33f>@@$$QEAV<lambda_334532d3f185bcaa59b5be82d7d22bff>@@@Z 000000018004222c f i libucrt:per_thread_data.obj
 0001:0004128c       ??$?RV<lambda_5e887d1dcbef67a5eb4283622ba103bf>@@AEAV<lambda_4466841279450cc726390878d4a41900>@@V<lambda_341c25c0346d94847f1f3c463c57e077>@@@?$__crt_seh_guarded_call@X@@QEAAX$$QEAV<lambda_5e887d1dcbef67a5eb4283622ba103bf>@@AEAV<lambda_4466841279450cc726390878d4a41900>@@$$QEAV<lambda_341c25c0346d94847f1f3c463c57e077>@@@Z 000000018004228c f i libucrt:per_thread_data.obj
 0001:000412d4       ??$?RV<lambda_72d1df2b273a38828b1ce30cbf4cdab5>@@AEAV<lambda_876a65b173b8412d3a47c70a915b0cf4>@@V<lambda_41932305e351933ebe8f8be3ed8bb5dc>@@@?$__crt_seh_guarded_call@X@@QEAAX$$QEAV<lambda_72d1df2b273a38828b1ce30cbf4cdab5>@@AEAV<lambda_876a65b173b8412d3a47c70a915b0cf4>@@$$QEAV<lambda_41932305e351933ebe8f8be3ed8bb5dc>@@@Z 00000001800422d4 f i libucrt:per_thread_data.obj
 0001:00041314       ??$?RV<lambda_fb3a7dec4e47f37f22dae91bb15c9095>@@AEAV<lambda_698284760c8add0bfb0756c19673e34b>@@V<lambda_dfb8eca1e75fef3034a8fb18dd509707>@@@?$__crt_seh_guarded_call@X@@QEAAX$$QEAV<lambda_fb3a7dec4e47f37f22dae91bb15c9095>@@AEAV<lambda_698284760c8add0bfb0756c19673e34b>@@$$QEAV<lambda_dfb8eca1e75fef3034a8fb18dd509707>@@@Z 0000000180042314 f i libucrt:per_thread_data.obj
 0001:000415a4       __acrt_freeptd             00000001800425a4 f   libucrt:per_thread_data.obj
 0001:000415e8       __acrt_getptd              00000001800425e8 f   libucrt:per_thread_data.obj
 0001:0004167c       __acrt_getptd_noexit       000000018004267c f   libucrt:per_thread_data.obj
 0001:0004171c       __acrt_initialize_ptd      000000018004271c f   libucrt:per_thread_data.obj
 0001:00041758       __acrt_uninitialize_ptd    0000000180042758 f   libucrt:per_thread_data.obj
 0001:0004177c       strtol                     000000018004277c f   libucrt:strtox.obj
 0001:000417ac       wcstol                     00000001800427ac f   libucrt:strtox.obj
 0001:000417dc       _mbtowc_l                  00000001800427dc f   libucrt:mbtowc.obj
 0001:00041924       mbtowc                     0000000180042924 f   libucrt:mbtowc.obj
 0001:0004192c       _wctomb_s_l                000000018004292c f   libucrt:wctomb.obj
 0001:00041ab0       wctomb_s                   0000000180042ab0 f   libucrt:wctomb.obj
 0001:00041ac4       __acrt_update_locale_info  0000000180042ac4 f   libucrt:locale_update.obj
 0001:00041af8       __acrt_update_multibyte_info 0000000180042af8 f   libucrt:locale_update.obj
 0001:00041b2c       ?__acrt_fp_classify@@YA?AW4__acrt_fp_class@@AEBN@Z 0000000180042b2c f i libucrt:cvt.obj
 0001:00042564       __acrt_fp_format           0000000180043564 f   libucrt:cvt.obj
 0001:000427a8       _fputwc_nolock             00000001800437a8 f   libucrt:fputwc.obj
 0001:00042924       _fileno                    0000000180043924 f   libucrt:fileno.obj
 0001:0004294c       _fputc_nolock              000000018004394c f   libucrt:fputc.obj
 0001:00042964       _get_printf_count_output   0000000180043964 f   libucrt:printf_count_output.obj
 0001:0004297c       __acrt_stdio_begin_temporary_buffering_nolock 000000018004397c f   libucrt:_sftbuf.obj
 0001:00042a4c       __acrt_stdio_end_temporary_buffering_nolock 0000000180043a4c f   libucrt:_sftbuf.obj
 0001:00042a88       __acrt_set_locale_changed  0000000180043a88 f   libucrt:wsetlocale.obj
 0001:00042a94       __acrt_uninitialize_locale 0000000180043a94 f   libucrt:wsetlocale.obj
 0001:00042cc4       __acrt_initialize_lowio    0000000180043cc4 f   libucrt:ioinit.obj
 0001:00042d00       __acrt_uninitialize_lowio  0000000180043d00 f   libucrt:ioinit.obj
 0001:00042d40       _raise_exc                 0000000180043d40 f   libucrt:fpexcept.obj
 0001:00042d68       _raise_exc_ex              0000000180043d68 f   libucrt:fpexcept.obj
 0001:00043070       _raise_excf                0000000180044070 f   libucrt:fpexcept.obj
 0001:0004309c       _set_errno_from_matherr    000000018004409c f   libucrt:fpexcept.obj
 0001:000430cc       _clrfp                     00000001800440cc f   libucrt:fpctrl.obj
 0001:000430ec       _ctrlfp                    00000001800440ec f   libucrt:fpctrl.obj
 0001:00043168       _set_statfp                0000000180044168 f   libucrt:fpctrl.obj
 0001:00043188       _statfp                    0000000180044188 f   libucrt:fpctrl.obj
 0001:0004333c       __acrt_FlsAlloc            000000018004433c f   libucrt:winapi_thunks.obj
 0001:00043394       __acrt_FlsFree             0000000180044394 f   libucrt:winapi_thunks.obj
 0001:000433ec       __acrt_FlsGetValue         00000001800443ec f   libucrt:winapi_thunks.obj
 0001:00043444       __acrt_FlsSetValue         0000000180044444 f   libucrt:winapi_thunks.obj
 0001:000434ac       __acrt_InitializeCriticalSectionEx 00000001800444ac f   libucrt:winapi_thunks.obj
 0001:00043524       __acrt_LCMapStringEx       0000000180044524 f   libucrt:winapi_thunks.obj
 0001:00043614       __acrt_LocaleNameToLCID    0000000180044614 f   libucrt:winapi_thunks.obj
 0001:0004367c       __acrt_MessageBoxW         000000018004467c f   libucrt:winapi_thunks.obj
 0001:00043704       __acrt_can_show_message_box 0000000180044704 f   libucrt:winapi_thunks.obj
 0001:00043760       __acrt_get_parent_window   0000000180044760 f   libucrt:winapi_thunks.obj
 0001:000437f0       __acrt_initialize_winapi_thunks 00000001800447f0 f   libucrt:winapi_thunks.obj
 0001:00043828       __acrt_is_interactive      0000000180044828 f   libucrt:winapi_thunks.obj
 0001:000438fc       __acrt_is_packaged_app     00000001800448fc f   libucrt:winapi_thunks.obj
 0001:00043984       __acrt_uninitialize_winapi_thunks 0000000180044984 f   libucrt:winapi_thunks.obj
 0001:000439c8       _fcloseall                 00000001800449c8 f   libucrt:closeall.obj
 0001:00043a7c       __acrt_stdio_flush_nolock  0000000180044a7c f   libucrt:fflush.obj
 0001:00043af4       _fflush_nolock             0000000180044af4 f   libucrt:fflush.obj
 0001:00043b40       _flushall                  0000000180044b40 f   libucrt:fflush.obj
 0001:00043c30       fflush                     0000000180044c30 f   libucrt:fflush.obj
 0001:00043c74       __acrt_stdio_free_buffer_nolock 0000000180044c74 f   libucrt:_freebuf.obj
 0001:00043cb4       _d_int                     0000000180044cb4 f   libucrt:_test.obj
 0001:00043dcc       _query_app_type            0000000180044dcc f   libucrt:report_runtime_error.obj
 0001:00043efc       _itow_s                    0000000180044efc f   libucrt:xtoa.obj
 0001:00043f1c       _set_error_mode            0000000180044f1c f   libucrt:set_error_mode.obj
 0001:00043f5c       wcscat_s                   0000000180044f5c f   libucrt:wcscat_s.obj
 0001:00043fdc       wcsncat_s                  0000000180044fdc f   libucrt:wcsncat_s.obj
 0001:00044104       __acrt_show_wide_message_box 0000000180045104 f   libucrt:crtmbox.obj
 0001:00044220       ??$?RV<lambda_7a5ef57ff966f610505f1d28a3d40618>@@AEAV<lambda_b721fa326cdb32351d23dfa67958c160>@@V<lambda_5e0fb27672408a07956fe59e48ccb2aa>@@@?$__crt_seh_guarded_call@H@@QEAAH$$QEAV<lambda_7a5ef57ff966f610505f1d28a3d40618>@@AEAV<lambda_b721fa326cdb32351d23dfa67958c160>@@$$QEAV<lambda_5e0fb27672408a07956fe59e48ccb2aa>@@@Z 0000000180045220 f i libucrt:setvbuf.obj
 0001:00044350       setvbuf                    0000000180045350 f   libucrt:setvbuf.obj
 0001:000443f0       _query_new_mode            00000001800453f0 f   libucrt:new_mode.obj
 0001:000443f8       __acrt_initialize_heap     00000001800453f8 f   libucrt:heap_handle.obj
 0001:00044414       __acrt_uninitialize_heap   0000000180045414 f   libucrt:heap_handle.obj
 0001:00044420       _isctype_l                 0000000180045420 f   libucrt:isctype.obj
 0001:00044530       __acrt_GetStringTypeA      0000000180045530 f   libucrt:getstringtypea.obj
 0001:00044a40       __acrt_LCMapStringA        0000000180045a40 f   libucrt:lcmapstringa.obj
 0001:00044ad8       iswctype                   0000000180045ad8 f   libucrt:iswctype.obj
 0001:00044b50       __acrt_initialize_fma3     0000000180045b50 f   libucrt:fma3_available.obj
 0001:00044bc0       _pow_special               0000000180045bc0 f   libucrt:pow_special.obj
 0001:00044ce4       _powf_special              0000000180045ce4 f   libucrt:pow_special.obj
 0001:00044e70       __acrt_initialize_timeset  0000000180045e70 f   libucrt:timeset.obj
 0001:00044ea0       _isleadbyte_l              0000000180045ea0 f i libucrt:_wctype.obj
 0001:000453bc       ?expand_if_necessary@?$argument_list@D@?A0xca0879c4@@AEAAHXZ 00000001800463bc f i libucrt:argv_wildcards.obj
 0001:00045484       __acrt_expand_narrow_argv_wildcards 0000000180046484 f   libucrt:argv_wildcards.obj
 0001:0004548c       ??$?RV<lambda_99476a1ad63dd22509b5d3e65b0ffc95>@@AEAV<lambda_ad1ced32f4ac17aa236e5ef05d6b3b7c>@@V<lambda_f7424dd8d45958661754dc4f2697e9c3>@@@?$__crt_seh_guarded_call@X@@QEAAX$$QEAV<lambda_99476a1ad63dd22509b5d3e65b0ffc95>@@AEAV<lambda_ad1ced32f4ac17aa236e5ef05d6b3b7c>@@$$QEAV<lambda_f7424dd8d45958661754dc4f2697e9c3>@@@Z 000000018004648c f i libucrt:mbctype.obj
 0001:00045b88       __acrt_initialize_multibyte 0000000180046b88 f   libucrt:mbctype.obj
 0001:00045bb0       __acrt_update_thread_multibyte_data 0000000180046bb0 f   libucrt:mbctype.obj
 0001:00045c70       _setmbcp_nolock            0000000180046c70 f   libucrt:mbctype.obj
 0001:00045f18       __acrt_initialize_command_line 0000000180046f18 f   libucrt:argv_data.obj
 0001:00045f40       __dcrt_get_narrow_environment_from_os 0000000180046f40 f   libucrt:get_environment_from_os.obj
 0001:00046044       _recalloc                  0000000180047044 f   libucrt:recalloc.obj
 0001:0004604c       _recalloc_base             000000018004704c f   libucrt:recalloc.obj
 0001:000460e4       __acrt_execute_initializers 00000001800470e4 f   libucrt:shared_initialization.obj
 0001:00046178       __acrt_execute_uninitializers 0000000180047178 f   libucrt:shared_initialization.obj
 0001:000461c8       __acrt_has_user_matherr    00000001800471c8 f   libucrt:matherr.obj
 0001:000461e8       __acrt_initialize_user_matherr 00000001800471e8 f   libucrt:matherr.obj
 0001:000461f0       __acrt_invoke_user_matherr 00000001800471f0 f   libucrt:matherr.obj
 0001:00046238       __acrt_add_locale_ref      0000000180047238 f   libucrt:locale_refcounting.obj
 0001:000462c4       __acrt_free_locale         00000001800472c4 f   libucrt:locale_refcounting.obj
 0001:0004643c       __acrt_locale_add_lc_time_reference 000000018004743c f   libucrt:locale_refcounting.obj
 0001:00046464       __acrt_locale_free_lc_time_if_unreferenced 0000000180047464 f   libucrt:locale_refcounting.obj
 0001:0004649c       __acrt_locale_release_lc_time_reference 000000018004749c f   libucrt:locale_refcounting.obj
 0001:000464c4       __acrt_release_locale_ref  00000001800474c4 f   libucrt:locale_refcounting.obj
 0001:0004656c       __acrt_update_thread_locale_data 000000018004756c f   libucrt:locale_refcounting.obj
 0001:000465dc       _updatetlocinfoEx_nolock   00000001800475dc f   libucrt:locale_refcounting.obj
 0001:00046644       __acrt_fp_strflt_to_string 0000000180047644 f   libucrt:_fptostr.obj
 0001:00046704       __acrt_fltout              0000000180047704 f   libucrt:cfout.obj
 0001:00047d08       __acrt_stdio_flush_and_write_narrow_nolock 0000000180048d08 f   libucrt:_flsbuf.obj
 0001:00047df0       __acrt_stdio_flush_and_write_wide_nolock 0000000180048df0 f   libucrt:_flsbuf.obj
 0001:00047edc       _isatty                    0000000180048edc f   libucrt:isatty.obj
 0001:00047f3c       __acrt_locale_free_monetary 0000000180048f3c f   libucrt:initmon.obj
 0001:00048048       __acrt_locale_free_numeric 0000000180049048 f   libucrt:initnum.obj
 0001:0004810c       __acrt_locale_free_time    000000018004910c f   libucrt:inittime.obj
 0001:00048214       __acrt_lowio_create_handle_array 0000000180049214 f   libucrt:osfinfo.obj
 0001:000482ac       __acrt_lowio_destroy_handle_array 00000001800492ac f   libucrt:osfinfo.obj
 0001:000482fc       __acrt_lowio_ensure_fh_exists 00000001800492fc f   libucrt:osfinfo.obj
 0001:000483b4       __acrt_lowio_lock_fh       00000001800493b4 f   libucrt:osfinfo.obj
 0001:000483d8       __acrt_lowio_unlock_fh     00000001800493d8 f   libucrt:osfinfo.obj
 0001:000483fc       _free_osfhnd               00000001800493fc f   libucrt:osfinfo.obj
 0001:000484b8       _get_osfhandle             00000001800494b8 f   libucrt:osfinfo.obj
 0001:00048540       _get_fpsr                  0000000180049540 f   libucrt:fpsr.obj
 0001:00048550       _set_fpsr                  0000000180049550 f   libucrt:fpsr.obj
 0001:0004855a       _fclrf                     000000018004955a f   libucrt:fpsr.obj
 0001:0004856e       _frnd                      000000018004956e f   libucrt:fpsr.obj
 0001:00048658       __acrt_DownlevelLocaleNameToLCID 0000000180049658 f   libucrt:lcidtoname_downlevel.obj
 0001:0004868c       _fclose_nolock             000000018004968c f   libucrt:fclose.obj
 0001:00048710       fclose                     0000000180049710 f   libucrt:fclose.obj
 0001:0004877c       ??$?RV<lambda_b521505b218e5242e90febf6bfebc422>@@AEAV<lambda_6978c1fb23f02e42e1d9e99668cc68aa>@@V<lambda_314360699dd331753a4119843814e9a7>@@@?$__crt_seh_guarded_call@H@@QEAAH$$QEAV<lambda_b521505b218e5242e90febf6bfebc422>@@AEAV<lambda_6978c1fb23f02e42e1d9e99668cc68aa>@@$$QEAV<lambda_314360699dd331753a4119843814e9a7>@@@Z 000000018004977c f i libucrt:commit.obj
 0001:00048808       _commit                    0000000180049808 f   libucrt:commit.obj
 0001:00048e3c       _write                     0000000180049e3c f   libucrt:write.obj
 0001:00048f28       _write_nolock              0000000180049f28 f   libucrt:write.obj
 0001:0004920c       _getfpcontrolword          000000018004a20c f   libucrt:_fenvutils.obj
 0001:00049224       _getfpstatusword           000000018004a224 f   libucrt:_fenvutils.obj
 0001:00049238       _setfpcontrolword          000000018004a238 f   libucrt:_fenvutils.obj
 0001:00049244       _setfpstatusword           000000018004a244 f   libucrt:_fenvutils.obj
 0001:00049294       strncpy_s                  000000018004a294 f   libucrt:strncpy_s.obj
 0001:0004948c       _handle_error              000000018004a48c f   libucrt:libm_error.obj
 0001:000495b4       _handle_errorf             000000018004a5b4 f   libucrt:libm_error.obj
 0001:000496e8       _handle_nan                000000018004a6e8 f   libucrt:libm_error.obj
 0001:00049704       _handle_nanf               000000018004a704 f   libucrt:libm_error.obj
 0001:000497f0       qsort                      000000018004a7f0 f   libucrt:qsort.obj
 0001:00049b24       strpbrk                    000000018004ab24 f   libucrt:strpbrk.obj
 0001:00049bc4       _mbsdec                    000000018004abc4 f   libucrt:mbsdec.obj
 0001:00049bcc       _mbsdec_l                  000000018004abcc f   libucrt:mbsdec.obj
 0001:00049c7c       _msize                     000000018004ac7c f   libucrt:msize.obj
 0001:00049cb8       fegetenv                   000000018004acb8 f   libucrt:fegetenv.obj
 0001:00049cd8       fesetenv                   000000018004acd8 f   libucrt:fesetenv.obj
 0001:00049d24       feholdexcept               000000018004ad24 f   libucrt:feholdexcept.obj
 0001:00049d74       ceil                       000000018004ad74 f   libucrt:ceil.obj
 0001:00049e40       log10                      000000018004ae40 f   libucrt:log10.obj
 0001:0004a578       _lseeki64                  000000018004b578 f   libucrt:lseek.obj
 0001:0004a580       _lseeki64_nolock           000000018004b580 f   libucrt:lseek.obj
 0001:0004a588       __acrt_stdio_allocate_buffer_nolock 000000018004b588 f   libucrt:_getbuf.obj
 0001:0004a5ec       ??$?RV<lambda_bfedae4ebbf01fab1bb6dcc6a9e276e0>@@AEAV<lambda_2fe9b910cf3cbf4a0ab98a02ba45b3ec>@@V<lambda_237c231691f317818eb88cc1d5d642d6>@@@?$__crt_seh_guarded_call@H@@QEAAH$$QEAV<lambda_bfedae4ebbf01fab1bb6dcc6a9e276e0>@@AEAV<lambda_2fe9b910cf3cbf4a0ab98a02ba45b3ec>@@$$QEAV<lambda_237c231691f317818eb88cc1d5d642d6>@@@Z 000000018004b5ec f i libucrt:close.obj
 0001:0004a660       _close                     000000018004b660 f   libucrt:close.obj
 0001:0004a704       _close_nolock              000000018004b704 f   libucrt:close.obj
 0001:0004a7c0       ?__acrt_stdio_free_stream@@YAXV__crt_stdio_stream@@@Z 000000018004b7c0 f   libucrt:stream.obj
 0001:0004a804       _putwch_nolock             000000018004b804 f   libucrt:putwch.obj
 0001:0004a860       _clearfp                   000000018004b860 f   libucrt:ieee.obj
 0001:0004a8b4       _controlfp                 000000018004b8b4 f   libucrt:ieee.obj
 0001:0004a8c0       _statusfp                  000000018004b8c0 f   libucrt:ieee.obj
 0001:0004aba0       _log10_special             000000018004bba0 f   libucrt:log_special.obj
 0001:0004ac58       __dcrt_lowio_initialize_console_output 000000018004bc58 f   libucrt:initcon.obj
 0001:0004ac94       __dcrt_terminate_console_output 000000018004bc94 f   libucrt:initcon.obj
 0001:0004acb4       IsProcessorFeaturePresent  000000018004bcb4 f   kernel32:KERNEL32.dll
 0001:0004acba       RtlUnwindEx                000000018004bcba f   kernel32:KERNEL32.dll
 0001:0004acc0       SystemFunction036          000000018004bcc0 f   advapi32:ADVAPI32.dll
 0001:0004acc8       ?DloadAcquireSectionWriteAccess@@YAXXZ 000000018004bcc8 f i DelayImp:delayhlp.obj
 0001:0004ad84       ?DloadGetSRWLockFunctionPointers@@YAEXZ 000000018004bd84 f i DelayImp:delayhlp.obj
 0001:0004ae20       ?DloadMakePermanentImageCommit@@YAXPEAX_K@Z 000000018004be20 f i DelayImp:delayhlp.obj
 0001:0004aeb8       ?DloadObtainSection@@YAPEAXPEAK0@Z 000000018004beb8 f i DelayImp:delayhlp.obj
 0001:0004af50       ?DloadProtectSection@@YAXKPEAK@Z 000000018004bf50 f i DelayImp:delayhlp.obj
 0001:0004afe0       ?DloadReleaseSectionWriteAccess@@YAXXZ 000000018004bfe0 f i DelayImp:delayhlp.obj
 0001:0004b084       __delayLoadHelper2         000000018004c084 f   DelayImp:delayhlp.obj
 0001:0004b390       _FindPESection             000000018004c390 f   LIBCMT:pesect.obj
 0001:0004b3e0       _IsNonwritableInCurrentImage 000000018004c3e0 f   LIBCMT:pesect.obj
 0001:0004b430       _ValidateImageBase         000000018004c430 f   LIBCMT:pesect.obj
 0001:0004b460       strrchr                    000000018004c460 f   libvcruntime:strrchr.obj
 0001:0004b5a4       ceilf                      000000018004c5a4 f   libucrt:ceilf.obj
 0001:0004b650       strcmp                     000000018004c650 f   libucrt:strcmp.obj
 0001:0004b6d0       _guard_dispatch_icall_nop  000000018004c6d0 f   LIBCMT:_guard_dispatch_.obj
 0002:00000000       __imp_SystemFunction036    0000000180052000     advapi32:ADVAPI32.dll
 0002:00000008       \177ADVAPI32_NULL_THUNK_DATA 0000000180052008     advapi32:ADVAPI32.dll
 0002:00000010       __imp_VirtualProtect       0000000180052010     kernel32:KERNEL32.dll
 0002:00000018       __imp_GetSystemInfo        0000000180052018     kernel32:KERNEL32.dll
 0002:00000020       __imp_VirtualQuery         0000000180052020     kernel32:KERNEL32.dll
 0002:00000028       __imp_GetModuleHandleA     0000000180052028     kernel32:KERNEL32.dll
 0002:00000030       __imp_CreateFileW          0000000180052030     kernel32:KERNEL32.dll
 0002:00000038       __imp_SetFilePointerEx     0000000180052038     kernel32:KERNEL32.dll
 0002:00000040       __imp_HeapSize             0000000180052040     kernel32:KERNEL32.dll
 0002:00000048       __imp_GetConsoleMode       0000000180052048     kernel32:KERNEL32.dll
 0002:00000050       __imp_GetConsoleCP         0000000180052050     kernel32:KERNEL32.dll
 0002:00000058       __imp_FlushFileBuffers     0000000180052058     kernel32:KERNEL32.dll
 0002:00000060       __imp_SetStdHandle         0000000180052060     kernel32:KERNEL32.dll
 0002:00000068       __imp_FreeEnvironmentStringsW 0000000180052068     kernel32:KERNEL32.dll
 0002:00000070       __imp_GetEnvironmentStringsW 0000000180052070     kernel32:KERNEL32.dll
 0002:00000078       __imp_GetCommandLineW      0000000180052078     kernel32:KERNEL32.dll
 0002:00000080       __imp_GetCommandLineA      0000000180052080     kernel32:KERNEL32.dll
 0002:00000088       __imp_GetOEMCP             0000000180052088     kernel32:KERNEL32.dll
 0002:00000090       __imp_IsValidCodePage      0000000180052090     kernel32:KERNEL32.dll
 0002:00000098       __imp_FindNextFileA        0000000180052098     kernel32:KERNEL32.dll
 0002:000000a0       __imp_FindFirstFileExA     00000001800520a0     kernel32:KERNEL32.dll
 0002:000000a8       __imp_FindClose            00000001800520a8     kernel32:KERNEL32.dll
 0002:000000b0       __imp_GetProcessHeap       00000001800520b0     kernel32:KERNEL32.dll
 0002:000000b8       __imp_CreateThread         00000001800520b8     kernel32:KERNEL32.dll
 0002:000000c0       __imp_OutputDebugStringW   00000001800520c0     kernel32:KERNEL32.dll
 0002:000000c8       __imp_WriteFile            00000001800520c8     kernel32:KERNEL32.dll
 0002:000000d0       __imp_GetACP               00000001800520d0     kernel32:KERNEL32.dll
 0002:000000d8       __imp_ExitProcess          00000001800520d8     kernel32:KERNEL32.dll
 0002:000000e0       __imp_HeapFree             00000001800520e0     kernel32:KERNEL32.dll
 0002:000000e8       __imp_HeapReAlloc          00000001800520e8     kernel32:KERNEL32.dll
 0002:000000f0       __imp_HeapAlloc            00000001800520f0     kernel32:KERNEL32.dll
 0002:000000f8       __imp_WriteConsoleW        00000001800520f8     kernel32:KERNEL32.dll
 0002:00000100       __imp_GetModuleHandleExW   0000000180052100     kernel32:KERNEL32.dll
 0002:00000108       __imp_GetModuleFileNameA   0000000180052108     kernel32:KERNEL32.dll
 0002:00000110       __imp_GetFileType          0000000180052110     kernel32:KERNEL32.dll
 0002:00000118       __imp_GetStdHandle         0000000180052118     kernel32:KERNEL32.dll
 0002:00000120       __imp_InterlockedFlushSList 0000000180052120     kernel32:KERNEL32.dll
 0002:00000128       __imp_GetModuleFileNameW   0000000180052128     kernel32:KERNEL32.dll
 0002:00000130       __imp_LoadLibraryExW       0000000180052130     kernel32:KERNEL32.dll
 0002:00000138       __imp_FreeLibrary          0000000180052138     kernel32:KERNEL32.dll
 0002:00000140       __imp_GetLastError         0000000180052140     kernel32:KERNEL32.dll
 0002:00000148       __imp_RtlUnwindEx          0000000180052148     kernel32:KERNEL32.dll
 0002:00000150       __imp_RaiseException       0000000180052150     kernel32:KERNEL32.dll
 0002:00000158       __imp_RtlPcToFileHeader    0000000180052158     kernel32:KERNEL32.dll
 0002:00000160       __imp_InitializeSListHead  0000000180052160     kernel32:KERNEL32.dll
 0002:00000168       __imp_GetCurrentThreadId   0000000180052168     kernel32:KERNEL32.dll
 0002:00000170       __imp_GetCurrentProcessId  0000000180052170     kernel32:KERNEL32.dll
 0002:00000178       __imp_QueryPerformanceCounter 0000000180052178     kernel32:KERNEL32.dll
 0002:00000180       __imp_GetStartupInfoW      0000000180052180     kernel32:KERNEL32.dll
 0002:00000188       __imp_IsDebuggerPresent    0000000180052188     kernel32:KERNEL32.dll
 0002:00000190       __imp_IsProcessorFeaturePresent 0000000180052190     kernel32:KERNEL32.dll
 0002:00000198       __imp_TerminateProcess     0000000180052198     kernel32:KERNEL32.dll
 0002:000001a0       __imp_GetCurrentProcess    00000001800521a0     kernel32:KERNEL32.dll
 0002:000001a8       __imp_SetUnhandledExceptionFilter 00000001800521a8     kernel32:KERNEL32.dll
 0002:000001b0       __imp_UnhandledExceptionFilter 00000001800521b0     kernel32:KERNEL32.dll
 0002:000001b8       __imp_RtlVirtualUnwind     00000001800521b8     kernel32:KERNEL32.dll
 0002:000001c0       __imp_RtlLookupFunctionEntry 00000001800521c0     kernel32:KERNEL32.dll
 0002:000001c8       __imp_RtlCaptureContext    00000001800521c8     kernel32:KERNEL32.dll
 0002:000001d0       __imp_WaitForSingleObjectEx 00000001800521d0     kernel32:KERNEL32.dll
 0002:000001d8       __imp_CloseHandle          00000001800521d8     kernel32:KERNEL32.dll
 0002:000001e0       __imp_GetCPInfo            00000001800521e0     kernel32:KERNEL32.dll
 0002:000001e8       __imp_GetStringTypeW       00000001800521e8     kernel32:KERNEL32.dll
 0002:000001f0       __imp_LCMapStringW         00000001800521f0     kernel32:KERNEL32.dll
 0002:000001f8       __imp_GetProcAddress       00000001800521f8     kernel32:KERNEL32.dll
 0002:00000200       __imp_GetModuleHandleW     0000000180052200     kernel32:KERNEL32.dll
 0002:00000208       __imp_GetSystemTimeAsFileTime 0000000180052208     kernel32:KERNEL32.dll
 0002:00000210       __imp_TlsFree              0000000180052210     kernel32:KERNEL32.dll
 0002:00000218       __imp_TlsSetValue          0000000180052218     kernel32:KERNEL32.dll
 0002:00000220       __imp_TlsGetValue          0000000180052220     kernel32:KERNEL32.dll
 0002:00000228       __imp_TlsAlloc             0000000180052228     kernel32:KERNEL32.dll
 0002:00000230       __imp_CreateEventW         0000000180052230     kernel32:KERNEL32.dll
 0002:00000238       __imp_InitializeCriticalSectionAndSpinCount 0000000180052238     kernel32:KERNEL32.dll
 0002:00000240       __imp_SetLastError         0000000180052240     kernel32:KERNEL32.dll
 0002:00000248       __imp_MultiByteToWideChar  0000000180052248     kernel32:KERNEL32.dll
 0002:00000250       __imp_DecodePointer        0000000180052250     kernel32:KERNEL32.dll
 0002:00000258       __imp_EncodePointer        0000000180052258     kernel32:KERNEL32.dll
 0002:00000260       __imp_DeleteCriticalSection 0000000180052260     kernel32:KERNEL32.dll
 0002:00000268       __imp_LeaveCriticalSection 0000000180052268     kernel32:KERNEL32.dll
 0002:00000270       __imp_EnterCriticalSection 0000000180052270     kernel32:KERNEL32.dll
 0002:00000278       __imp_WideCharToMultiByte  0000000180052278     kernel32:KERNEL32.dll
 0002:00000280       __imp_LoadLibraryExA       0000000180052280     kernel32:KERNEL32.dll
 0002:00000288       \177KERNEL32_NULL_THUNK_DATA 0000000180052288     kernel32:KERNEL32.dll
 0002:00000290       __imp_??0StereoSGBM@cv@@QEAA@HHHHHHHHHH_N@Z 0000000180052290     opencv_calib3d2413:opencv_calib3d2413.dll
 0002:00000298       __imp_?drawChessboardCorners@cv@@YAXAEBV_OutputArray@1@V?$Size_@H@1@AEBV_InputArray@1@_N@Z 0000000180052298     opencv_calib3d2413:opencv_calib3d2413.dll
 0002:000002a0       __imp_?calibrateCamera@cv@@YANAEBV_InputArray@1@0V?$Size_@H@1@AEBV_OutputArray@1@222HVTermCriteria@1@@Z 00000001800522a0     opencv_calib3d2413:opencv_calib3d2413.dll
 0002:000002a8       __imp_?reprojectImageTo3D@cv@@YAXAEBV_InputArray@1@AEBV_OutputArray@1@0_NH@Z 00000001800522a8     opencv_calib3d2413:opencv_calib3d2413.dll
 0002:000002b0       __imp_?stereoRectify@cv@@YAXAEBV_InputArray@1@000V?$Size_@H@1@00AEBV_OutputArray@1@2222HN1PEAV?$Rect_@H@1@3@Z 00000001800522b0     opencv_calib3d2413:opencv_calib3d2413.dll
 0002:000002b8       __imp_?stereoCalibrate@cv@@YANAEBV_InputArray@1@00AEBV_OutputArray@1@111V?$Size_@H@1@1111VTermCriteria@1@H@Z 00000001800522b8     opencv_calib3d2413:opencv_calib3d2413.dll
 0002:000002c0       __imp_?findChessboardCorners@cv@@YA_NAEBV_InputArray@1@V?$Size_@H@1@AEBV_OutputArray@1@H@Z 00000001800522c0     opencv_calib3d2413:opencv_calib3d2413.dll
 0002:000002c8       __imp_?solvePnP@cv@@YA_NAEBV_InputArray@1@000AEBV_OutputArray@1@1_NH@Z 00000001800522c8     opencv_calib3d2413:opencv_calib3d2413.dll
 0002:000002d0       __imp_?computeCorrespondEpilines@cv@@YAXAEBV_InputArray@1@H0AEBV_OutputArray@1@@Z 00000001800522d0     opencv_calib3d2413:opencv_calib3d2413.dll
 0002:000002d8       __imp_?getOptimalNewCameraMatrix@cv@@YA?AVMat@1@AEBV_InputArray@1@0V?$Size_@H@1@N1PEAV?$Rect_@H@1@_N@Z 00000001800522d8     opencv_calib3d2413:opencv_calib3d2413.dll
 0002:000002e0       __imp_??1StereoSGBM@cv@@UEAA@XZ 00000001800522e0     opencv_calib3d2413:opencv_calib3d2413.dll
 0002:000002e8       __imp_??0StereoSGBM@cv@@QEAA@XZ 00000001800522e8     opencv_calib3d2413:opencv_calib3d2413.dll
 0002:000002f0       __imp_??0StereoBM@cv@@QEAA@HHH@Z 00000001800522f0     opencv_calib3d2413:opencv_calib3d2413.dll
 0002:000002f8       __imp_?delete_obj@?$Ptr@UCvStereoBMState@@@cv@@QEAAXXZ 00000001800522f8     opencv_calib3d2413:opencv_calib3d2413.dll
 0002:00000300       __imp_??RStereoBM@cv@@QEAAXAEBV_InputArray@1@0AEBV_OutputArray@1@H@Z 0000000180052300     opencv_calib3d2413:opencv_calib3d2413.dll
 0002:00000308       \177opencv_calib3d2413_NULL_THUNK_DATA 0000000180052308     opencv_calib3d2413:opencv_calib3d2413.dll
 0002:00000310       __imp_?createLBPHFaceRecognizer@cv@@YA?AV?$Ptr@VFaceRecognizer@cv@@@1@HHHHN@Z 0000000180052310     opencv_contrib2413:opencv_contrib2413.dll
 0002:00000318       __imp_?createEigenFaceRecognizer@cv@@YA?AV?$Ptr@VFaceRecognizer@cv@@@1@HN@Z 0000000180052318     opencv_contrib2413:opencv_contrib2413.dll
 0002:00000320       __imp_?update@FaceRecognizer@cv@@QEAAXAEBV_InputArray@2@0@Z 0000000180052320     opencv_contrib2413:opencv_contrib2413.dll
 0002:00000328       __imp_?createFisherFaceRecognizer@cv@@YA?AV?$Ptr@VFaceRecognizer@cv@@@1@HN@Z 0000000180052328     opencv_contrib2413:opencv_contrib2413.dll
 0002:00000330       __imp_?subspaceReconstruct@cv@@YA?AVMat@1@AEBV_InputArray@1@00@Z 0000000180052330     opencv_contrib2413:opencv_contrib2413.dll
 0002:00000338       __imp_?subspaceProject@cv@@YA?AVMat@1@AEBV_InputArray@1@00@Z 0000000180052338     opencv_contrib2413:opencv_contrib2413.dll
 0002:00000340       \177opencv_contrib2413_NULL_THUNK_DATA 0000000180052340     opencv_contrib2413:opencv_contrib2413.dll
 0002:00000348       __imp_?countNonZero@cv@@YAHAEBV_InputArray@1@@Z 0000000180052348     opencv_core2413:opencv_core2413.dll
 0002:00000350       __imp_?meanStdDev@cv@@YAXAEBV_InputArray@1@AEBV_OutputArray@1@10@Z 0000000180052350     opencv_core2413:opencv_core2413.dll
 0002:00000358       __imp_?seek@MatConstIterator@cv@@QEAAX_J_N@Z 0000000180052358     opencv_core2413:opencv_core2413.dll
 0002:00000360       __imp_?seek@MatConstIterator@cv@@QEAAXPEBH_N@Z 0000000180052360     opencv_core2413:opencv_core2413.dll
 0002:00000368       __imp_?_interlockedExchangeAdd@cv@@YAHPEAHH@Z 0000000180052368     opencv_core2413:opencv_core2413.dll
 0002:00000370       __imp_?adjustROI@Mat@cv@@QEAAAEAV12@HHHH@Z 0000000180052370     opencv_core2413:opencv_core2413.dll
 0002:00000378       __imp_?locateROI@Mat@cv@@QEBAXAEAV?$Size_@H@2@AEAV?$Point_@H@2@@Z 0000000180052378     opencv_core2413:opencv_core2413.dll
 0002:00000380       __imp_?push_back@Mat@cv@@QEAAXAEBV12@@Z 0000000180052380     opencv_core2413:opencv_core2413.dll
 0002:00000388       __imp_?copySize@Mat@cv@@QEAAXAEBV12@@Z 0000000180052388     opencv_core2413:opencv_core2413.dll
 0002:00000390       __imp_?deallocate@Mat@cv@@QEAAXXZ 0000000180052390     opencv_core2413:opencv_core2413.dll
 0002:00000398       __imp_??0Mat@cv@@QEAA@PEBUCvMat@@_N@Z 0000000180052398     opencv_core2413:opencv_core2413.dll
 0002:000003a0       __imp_?create@Mat@cv@@QEAAXHPEBHH@Z 00000001800523a0     opencv_core2413:opencv_core2413.dll
 0002:000003a8       __imp_?eye@Mat@cv@@SA?AVMatExpr@2@HHH@Z 00000001800523a8     opencv_core2413:opencv_core2413.dll
 0002:000003b0       __imp_?ones@Mat@cv@@SA?AVMatExpr@2@HHH@Z 00000001800523b0     opencv_core2413:opencv_core2413.dll
 0002:000003b8       __imp_?zeros@Mat@cv@@SA?AVMatExpr@2@HHH@Z 00000001800523b8     opencv_core2413:opencv_core2413.dll
 0002:000003c0       __imp_?zeros@Mat@cv@@SA?AVMatExpr@2@V?$Size_@H@2@H@Z 00000001800523c0     opencv_core2413:opencv_core2413.dll
 0002:000003c8       __imp_?reshape@Mat@cv@@QEBA?AV12@HH@Z 00000001800523c8     opencv_core2413:opencv_core2413.dll
 0002:000003d0       __imp_?setTo@Mat@cv@@QEAAAEAV12@AEBV_InputArray@2@0@Z 00000001800523d0     opencv_core2413:opencv_core2413.dll
 0002:000003d8       __imp_?convertTo@Mat@cv@@QEBAXAEBV_OutputArray@2@HNN@Z 00000001800523d8     opencv_core2413:opencv_core2413.dll
 0002:000003e0       __imp_?copyTo@Mat@cv@@QEBAXAEBV_OutputArray@2@@Z 00000001800523e0     opencv_core2413:opencv_core2413.dll
 0002:000003e8       __imp_?copyTo@Mat@cv@@QEBAXAEBV_OutputArray@2@AEBV_InputArray@2@@Z 00000001800523e8     opencv_core2413:opencv_core2413.dll
 0002:000003f0       __imp_??0Mat@cv@@QEAA@AEBV01@AEBV?$Rect_@H@1@@Z 00000001800523f0     opencv_core2413:opencv_core2413.dll
 0002:000003f8       __imp_??Scv@@YA?AVMatExpr@0@AEBVMat@0@@Z 00000001800523f8     opencv_core2413:opencv_core2413.dll
 0002:00000400       __imp_?noArray@cv@@YAAEBV_OutputArray@1@XZ 0000000180052400     opencv_core2413:opencv_core2413.dll
 0002:00000408       __imp_?bitwise_xor@cv@@YAXAEBV_InputArray@1@0AEBV_OutputArray@1@0@Z 0000000180052408     opencv_core2413:opencv_core2413.dll
 0002:00000410       __imp_?mean@cv@@YA?AV?$Scalar_@N@1@AEBV_InputArray@1@0@Z 0000000180052410     opencv_core2413:opencv_core2413.dll
 0002:00000418       __imp_??Hcv@@YA?AVMatExpr@0@AEBVMat@0@AEBV?$Scalar_@N@0@@Z 0000000180052418     opencv_core2413:opencv_core2413.dll
 0002:00000420       __imp_?clear@_OutputArray@cv@@UEBAXXZ 0000000180052420     opencv_core2413:opencv_core2413.dll
 0002:00000428       __imp_?release@_OutputArray@cv@@UEBAXXZ 0000000180052428     opencv_core2413:opencv_core2413.dll
 0002:00000430       __imp_?create@_OutputArray@cv@@UEBAXV?$Size_@H@2@HH_NH@Z 0000000180052430     opencv_core2413:opencv_core2413.dll
 0002:00000438       __imp_?create@_OutputArray@cv@@UEBAXHHHH_NH@Z 0000000180052438     opencv_core2413:opencv_core2413.dll
 0002:00000440       __imp_?create@_OutputArray@cv@@UEBAXHPEBHHH_NH@Z 0000000180052440     opencv_core2413:opencv_core2413.dll
 0002:00000448       __imp_?getMatRef@_OutputArray@cv@@UEBAAEAVMat@2@H@Z 0000000180052448     opencv_core2413:opencv_core2413.dll
 0002:00000450       __imp_?needed@_OutputArray@cv@@UEBA_NXZ 0000000180052450     opencv_core2413:opencv_core2413.dll
 0002:00000458       __imp_?fixedType@_OutputArray@cv@@UEBA_NXZ 0000000180052458     opencv_core2413:opencv_core2413.dll
 0002:00000460       __imp_?fixedSize@_OutputArray@cv@@UEBA_NXZ 0000000180052460     opencv_core2413:opencv_core2413.dll
 0002:00000468       __imp_??0_OutputArray@cv@@QEAA@AEAVMat@1@@Z 0000000180052468     opencv_core2413:opencv_core2413.dll
 0002:00000470       __imp_?addWeighted@cv@@YAXAEBV_InputArray@1@N0NNAEBV_OutputArray@1@H@Z 0000000180052470     opencv_core2413:opencv_core2413.dll
 0002:00000478       __imp_?norm@cv@@YANAEBV_InputArray@1@H0@Z 0000000180052478     opencv_core2413:opencv_core2413.dll
 0002:00000480       __imp_?norm@cv@@YANAEBV_InputArray@1@0H0@Z 0000000180052480     opencv_core2413:opencv_core2413.dll
 0002:00000488       __imp_?putText@cv@@YAXAEAVMat@1@AEBV?$basic_string@DU?$char_traits@D@std@@V?$allocator@D@2@@std@@V?$Point_@H@1@HNV?$Scalar_@N@1@HH_N@Z 0000000180052488     opencv_core2413:opencv_core2413.dll
 0002:00000490       __imp_?flip@cv@@YAXAEBV_InputArray@1@AEBV_OutputArray@1@H@Z 0000000180052490     opencv_core2413:opencv_core2413.dll
 0002:00000498       __imp_?fillPoly@cv@@YAXAEAVMat@1@PEAPEBV?$Point_@H@1@PEBHHAEBV?$Scalar_@N@1@HHV31@@Z 0000000180052498     opencv_core2413:opencv_core2413.dll
 0002:000004a0       __imp_?subtract@cv@@YAXAEBV_InputArray@1@0AEBV_OutputArray@1@0H@Z 00000001800524a0     opencv_core2413:opencv_core2413.dll
 0002:000004a8       __imp_?bitwise_not@cv@@YAXAEBV_InputArray@1@AEBV_OutputArray@1@0@Z 00000001800524a8     opencv_core2413:opencv_core2413.dll
 0002:000004b0       __imp_?merge@cv@@YAXAEBV?$vector@VMat@cv@@V?$allocator@VMat@cv@@@std@@@std@@AEBV_OutputArray@1@@Z 00000001800524b0     opencv_core2413:opencv_core2413.dll
 0002:000004b8       __imp_cvCreateMat          00000001800524b8     opencv_core2413:opencv_core2413.dll
 0002:000004c0       __imp_??0_OutputArray@cv@@QEAA@AEAV?$vector@VMat@cv@@V?$allocator@VMat@cv@@@std@@@std@@@Z 00000001800524c0     opencv_core2413:opencv_core2413.dll
 0002:000004c8       __imp_??0_InputArray@cv@@QEAA@AEBV?$vector@VMat@cv@@V?$allocator@VMat@cv@@@std@@@std@@@Z 00000001800524c8     opencv_core2413:opencv_core2413.dll
 0002:000004d0       __imp_?getMat@Algorithm@cv@@QEBA?AVMat@2@AEBV?$basic_string@DU?$char_traits@D@std@@V?$allocator@D@2@@std@@@Z 00000001800524d0     opencv_core2413:opencv_core2413.dll
 0002:000004d8       __imp_?boundingRect@RotatedRect@cv@@QEBA?AV?$Rect_@H@2@XZ 00000001800524d8     opencv_core2413:opencv_core2413.dll
 0002:000004e0       __imp_?points@RotatedRect@cv@@QEBAXQEAV?$Point_@M@2@@Z 00000001800524e0     opencv_core2413:opencv_core2413.dll
 0002:000004e8       __imp_?split@cv@@YAXAEBVMat@1@AEAV?$vector@VMat@cv@@V?$allocator@VMat@cv@@@std@@@std@@@Z 00000001800524e8     opencv_core2413:opencv_core2413.dll
 0002:000004f0       __imp_?ellipse@cv@@YAXAEAVMat@1@V?$Point_@H@1@V?$Size_@H@1@NNNAEBV?$Scalar_@N@1@HHH@Z 00000001800524f0     opencv_core2413:opencv_core2413.dll
 0002:000004f8       __imp_?inRange@cv@@YAXAEBV_InputArray@1@00AEBV_OutputArray@1@@Z 00000001800524f8     opencv_core2413:opencv_core2413.dll
 0002:00000500       __imp_??0_InputArray@cv@@QEAA@AEBVMat@1@@Z 0000000180052500     opencv_core2413:opencv_core2413.dll
 0002:00000508       __imp_?getMat@_InputArray@cv@@UEBA?AVMat@2@H@Z 0000000180052508     opencv_core2413:opencv_core2413.dll
 0002:00000510       __imp_?getMatVector@_InputArray@cv@@UEBAXAEAV?$vector@VMat@cv@@V?$allocator@VMat@cv@@@std@@@std@@@Z 0000000180052510     opencv_core2413:opencv_core2413.dll
 0002:00000518       __imp_?getGlBuffer@_InputArray@cv@@UEBA?AVGlBuffer@2@XZ 0000000180052518     opencv_core2413:opencv_core2413.dll
 0002:00000520       __imp_?getGlTexture@_InputArray@cv@@UEBA?AVGlTexture@2@XZ 0000000180052520     opencv_core2413:opencv_core2413.dll
 0002:00000528       __imp_?getGpuMat@_InputArray@cv@@UEBA?AVGpuMat@gpu@2@XZ 0000000180052528     opencv_core2413:opencv_core2413.dll
 0002:00000530       __imp_?kind@_InputArray@cv@@UEBAHXZ 0000000180052530     opencv_core2413:opencv_core2413.dll
 0002:00000538       __imp_?size@_InputArray@cv@@UEBA?AV?$Size_@H@2@H@Z 0000000180052538     opencv_core2413:opencv_core2413.dll
 0002:00000540       __imp_?total@_InputArray@cv@@UEBA_KH@Z 0000000180052540     opencv_core2413:opencv_core2413.dll
 0002:00000548       __imp_?type@_InputArray@cv@@UEBAHH@Z 0000000180052548     opencv_core2413:opencv_core2413.dll
 0002:00000550       __imp_?depth@_InputArray@cv@@UEBAHH@Z 0000000180052550     opencv_core2413:opencv_core2413.dll
 0002:00000558       __imp_?channels@_InputArray@cv@@UEBAHH@Z 0000000180052558     opencv_core2413:opencv_core2413.dll
 0002:00000560       __imp_?empty@_InputArray@cv@@UEBA_NXZ 0000000180052560     opencv_core2413:opencv_core2413.dll
 0002:00000568       __imp_?minMaxLoc@cv@@YAXAEBV_InputArray@1@PEAN1PEAV?$Point_@H@1@20@Z 0000000180052568     opencv_core2413:opencv_core2413.dll
 0002:00000570       __imp_?bitwise_and@cv@@YAXAEBV_InputArray@1@0AEBV_OutputArray@1@0@Z 0000000180052570     opencv_core2413:opencv_core2413.dll
 0002:00000578       __imp_?transpose@cv@@YAXAEBV_InputArray@1@AEBV_OutputArray@1@@Z 0000000180052578     opencv_core2413:opencv_core2413.dll
 0002:00000580       __imp_?absdiff@cv@@YAXAEBV_InputArray@1@0AEBV_OutputArray@1@@Z 0000000180052580     opencv_core2413:opencv_core2413.dll
 0002:00000588       __imp_?sortIdx@cv@@YAXAEBV_InputArray@1@AEBV_OutputArray@1@H@Z 0000000180052588     opencv_core2413:opencv_core2413.dll
 0002:00000590       __imp_?fastFree@cv@@YAXPEAX@Z 0000000180052590     opencv_core2413:opencv_core2413.dll
 0002:00000598       __imp_?line@cv@@YAXAEAVMat@1@V?$Point_@H@1@1AEBV?$Scalar_@N@1@HHH@Z 0000000180052598     opencv_core2413:opencv_core2413.dll
 0002:000005a0       __imp_?normalize@cv@@YAXAEBV_InputArray@1@AEBV_OutputArray@1@NNHH0@Z 00000001800525a0     opencv_core2413:opencv_core2413.dll
 0002:000005a8       __imp_?rectangle@cv@@YAXAEAVMat@1@V?$Rect_@H@1@AEBV?$Scalar_@N@1@HHH@Z 00000001800525a8     opencv_core2413:opencv_core2413.dll
 0002:000005b0       __imp_?rectangle@cv@@YAXAEAVMat@1@V?$Point_@H@1@1AEBV?$Scalar_@N@1@HHH@Z 00000001800525b0     opencv_core2413:opencv_core2413.dll
 0002:000005b8       \177opencv_core2413_NULL_THUNK_DATA 00000001800525b8     opencv_core2413:opencv_core2413.dll
 0002:000005c0       __imp_?create@FeatureDetector@cv@@SA?AV?$Ptr@VFeatureDetector@cv@@@2@AEBV?$basic_string@DU?$char_traits@D@std@@V?$allocator@D@2@@std@@@Z 00000001800525c0     opencv_features2d2413:opencv_features2d2413.dll
 0002:000005c8       __imp_?detect@FeatureDetector@cv@@QEBAXAEBVMat@2@AEAV?$vector@VKeyPoint@cv@@V?$allocator@VKeyPoint@cv@@@std@@@std@@0@Z 00000001800525c8     opencv_features2d2413:opencv_features2d2413.dll
 0002:000005d0       __imp_?create@DescriptorMatcher@cv@@SA?AV?$Ptr@VDescriptorMatcher@cv@@@2@AEBV?$basic_string@DU?$char_traits@D@std@@V?$allocator@D@2@@std@@@Z 00000001800525d0     opencv_features2d2413:opencv_features2d2413.dll
 0002:000005d8       __imp_?match@DescriptorMatcher@cv@@QEBAXAEBVMat@2@0AEAV?$vector@UDMatch@cv@@V?$allocator@UDMatch@cv@@@std@@@std@@0@Z 00000001800525d8     opencv_features2d2413:opencv_features2d2413.dll
 0002:000005e0       __imp_?create@DescriptorExtractor@cv@@SA?AV?$Ptr@VDescriptorExtractor@cv@@@2@AEBV?$basic_string@DU?$char_traits@D@std@@V?$allocator@D@2@@std@@@Z 00000001800525e0     opencv_features2d2413:opencv_features2d2413.dll
 0002:000005e8       __imp_?compute@DescriptorExtractor@cv@@QEBAXAEBVMat@2@AEAV?$vector@VKeyPoint@cv@@V?$allocator@VKeyPoint@cv@@@std@@@std@@AEAV32@@Z 00000001800525e8     opencv_features2d2413:opencv_features2d2413.dll
 0002:000005f0       \177opencv_features2d2413_NULL_THUNK_DATA 00000001800525f0     opencv_features2d2413:opencv_features2d2413.dll
 0002:000005f8       __imp_?imencode@cv@@YA_NAEBV?$basic_string@DU?$char_traits@D@std@@V?$allocator@D@2@@std@@AEBV_InputArray@1@AEAV?$vector@EV?$allocator@E@std@@@3@AEBV?$vector@HV?$allocator@H@std@@@3@@Z 00000001800525f8     opencv_highgui2413:opencv_highgui2413.dll
 0002:00000600       __imp_?imwrite@cv@@YA_NAEBV?$basic_string@DU?$char_traits@D@std@@V?$allocator@D@2@@std@@AEBV_InputArray@1@AEBV?$vector@HV?$allocator@H@std@@@3@@Z 0000000180052600     opencv_highgui2413:opencv_highgui2413.dll
 0002:00000608       __imp_?imdecode@cv@@YA?AVMat@1@AEBV_InputArray@1@H@Z 0000000180052608     opencv_highgui2413:opencv_highgui2413.dll
 0002:00000610       __imp_??1VideoCapture@cv@@UEAA@XZ 0000000180052610     opencv_highgui2413:opencv_highgui2413.dll
 0002:00000618       __imp_??0VideoCapture@cv@@QEAA@XZ 0000000180052618     opencv_highgui2413:opencv_highgui2413.dll
 0002:00000620       __imp_?imshow@cv@@YAXAEBV?$basic_string@DU?$char_traits@D@std@@V?$allocator@D@2@@std@@AEBV_InputArray@1@@Z 0000000180052620     opencv_highgui2413:opencv_highgui2413.dll
 0002:00000628       __imp_?namedWindow@cv@@YAXAEBV?$basic_string@DU?$char_traits@D@std@@V?$allocator@D@2@@std@@H@Z 0000000180052628     opencv_highgui2413:opencv_highgui2413.dll
 0002:00000630       __imp_?destroyWindow@cv@@YAXAEBV?$basic_string@DU?$char_traits@D@std@@V?$allocator@D@2@@std@@@Z 0000000180052630     opencv_highgui2413:opencv_highgui2413.dll
 0002:00000638       __imp_?waitKey@cv@@YAHH@Z  0000000180052638     opencv_highgui2413:opencv_highgui2413.dll
 0002:00000640       __imp_?imread@cv@@YA?AVMat@1@AEBV?$basic_string@DU?$char_traits@D@std@@V?$allocator@D@2@@std@@H@Z 0000000180052640     opencv_highgui2413:opencv_highgui2413.dll
 0002:00000648       \177opencv_highgui2413_NULL_THUNK_DATA 0000000180052648     opencv_highgui2413:opencv_highgui2413.dll
 0002:00000650       __imp_?convexHull@cv@@YAXAEBV_InputArray@1@AEBV_OutputArray@1@_N2@Z 0000000180052650     opencv_imgproc2413:opencv_imgproc2413.dll
 0002:00000658       __imp_?fitEllipse@cv@@YA?AVRotatedRect@1@AEBV_InputArray@1@@Z 0000000180052658     opencv_imgproc2413:opencv_imgproc2413.dll
 0002:00000660       __imp_?isContourConvex@cv@@YA_NAEBV_InputArray@1@@Z 0000000180052660     opencv_imgproc2413:opencv_imgproc2413.dll
 0002:00000668       __imp_?arcLength@cv@@YANAEBV_InputArray@1@_N@Z 0000000180052668     opencv_imgproc2413:opencv_imgproc2413.dll
 0002:00000670       __imp_?approxPolyDP@cv@@YAXAEBV_InputArray@1@AEBV_OutputArray@1@N_N@Z 0000000180052670     opencv_imgproc2413:opencv_imgproc2413.dll
 0002:00000678       __imp_?contourArea@cv@@YANAEBV_InputArray@1@_N@Z 0000000180052678     opencv_imgproc2413:opencv_imgproc2413.dll
 0002:00000680       __imp_?resize@cv@@YAXAEBV_InputArray@1@AEBV_OutputArray@1@V?$Size_@H@1@NNH@Z 0000000180052680     opencv_imgproc2413:opencv_imgproc2413.dll
 0002:00000688       __imp_?medianBlur@cv@@YAXAEBV_InputArray@1@AEBV_OutputArray@1@H@Z 0000000180052688     opencv_imgproc2413:opencv_imgproc2413.dll
 0002:00000690       __imp_?findContours@cv@@YAXAEBV_OutputArray@1@00HHV?$Point_@H@1@@Z 0000000180052690     opencv_imgproc2413:opencv_imgproc2413.dll
 0002:00000698       __imp_?Sobel@cv@@YAXAEBV_InputArray@1@AEBV_OutputArray@1@HHHHNNH@Z 0000000180052698     opencv_imgproc2413:opencv_imgproc2413.dll
 0002:000006a0       __imp_?copyMakeBorder@cv@@YAXAEBV_InputArray@1@AEBV_OutputArray@1@HHHHHAEBV?$Scalar_@N@1@@Z 00000001800526a0     opencv_imgproc2413:opencv_imgproc2413.dll
 0002:000006a8       __imp_?boundingRect@cv@@YA?AV?$Rect_@H@1@AEBV_InputArray@1@@Z 00000001800526a8     opencv_imgproc2413:opencv_imgproc2413.dll
 0002:000006b0       __imp_?bilateralFilter@cv@@YAXAEBV_InputArray@1@AEBV_OutputArray@1@HNNH@Z 00000001800526b0     opencv_imgproc2413:opencv_imgproc2413.dll
 0002:000006b8       __imp_?HoughLinesP@cv@@YAXAEBV_InputArray@1@AEBV_OutputArray@1@NNHNN@Z 00000001800526b8     opencv_imgproc2413:opencv_imgproc2413.dll
 0002:000006c0       __imp_?Canny@cv@@YAXAEBV_InputArray@1@AEBV_OutputArray@1@NNH_N@Z 00000001800526c0     opencv_imgproc2413:opencv_imgproc2413.dll
 0002:000006c8       __imp_?pyrDown@cv@@YAXAEBV_InputArray@1@AEBV_OutputArray@1@AEBV?$Size_@H@1@H@Z 00000001800526c8     opencv_imgproc2413:opencv_imgproc2413.dll
 0002:000006d0       __imp_?goodFeaturesToTrack@cv@@YAXAEBV_InputArray@1@AEBV_OutputArray@1@HNN0H_NN@Z 00000001800526d0     opencv_imgproc2413:opencv_imgproc2413.dll
 0002:000006d8       __imp_?getRotationMatrix2D@cv@@YA?AVMat@1@V?$Point_@M@1@NN@Z 00000001800526d8     opencv_imgproc2413:opencv_imgproc2413.dll
 0002:000006e0       __imp_?floodFill@cv@@YAHAEBV_OutputArray@1@V?$Point_@H@1@V?$Scalar_@N@1@PEAV?$Rect_@H@1@22H@Z 00000001800526e0     opencv_imgproc2413:opencv_imgproc2413.dll
 0002:000006e8       __imp_?HoughCircles@cv@@YAXAEBV_InputArray@1@AEBV_OutputArray@1@HNNNNHH@Z 00000001800526e8     opencv_imgproc2413:opencv_imgproc2413.dll
 0002:000006f0       __imp_?adaptiveThreshold@cv@@YAXAEBV_InputArray@1@AEBV_OutputArray@1@NHHHN@Z 00000001800526f0     opencv_imgproc2413:opencv_imgproc2413.dll
 0002:000006f8       __imp_?warpPerspective@cv@@YAXAEBV_InputArray@1@AEBV_OutputArray@1@0V?$Size_@H@1@HHAEBV?$Scalar_@N@1@@Z 00000001800526f8     opencv_imgproc2413:opencv_imgproc2413.dll
 0002:00000700       __imp_?cvtColor@cv@@YAXAEBV_InputArray@1@AEBV_OutputArray@1@HH@Z 0000000180052700     opencv_imgproc2413:opencv_imgproc2413.dll
 0002:00000708       __imp_?moments@cv@@YA?AVMoments@1@AEBV_InputArray@1@_N@Z 0000000180052708     opencv_imgproc2413:opencv_imgproc2413.dll
 0002:00000710       __imp_?matchTemplate@cv@@YAXAEBV_InputArray@1@0AEBV_OutputArray@1@H@Z 0000000180052710     opencv_imgproc2413:opencv_imgproc2413.dll
 0002:00000718       __imp_?threshold@cv@@YANAEBV_InputArray@1@AEBV_OutputArray@1@NNH@Z 0000000180052718     opencv_imgproc2413:opencv_imgproc2413.dll
 0002:00000720       __imp_?equalizeHist@cv@@YAXAEBV_InputArray@1@AEBV_OutputArray@1@@Z 0000000180052720     opencv_imgproc2413:opencv_imgproc2413.dll
 0002:00000728       __imp_?getPerspectiveTransform@cv@@YA?AVMat@1@AEBV_InputArray@1@0@Z 0000000180052728     opencv_imgproc2413:opencv_imgproc2413.dll
 0002:00000730       __imp_?erode@cv@@YAXAEBV_InputArray@1@AEBV_OutputArray@1@0V?$Point_@H@1@HHAEBV?$Scalar_@N@1@@Z 0000000180052730     opencv_imgproc2413:opencv_imgproc2413.dll
 0002:00000738       __imp_?dilate@cv@@YAXAEBV_InputArray@1@AEBV_OutputArray@1@0V?$Point_@H@1@HHAEBV?$Scalar_@N@1@@Z 0000000180052738     opencv_imgproc2413:opencv_imgproc2413.dll
 0002:00000740       __imp_?warpAffine@cv@@YAXAEBV_InputArray@1@AEBV_OutputArray@1@0V?$Size_@H@1@HHAEBV?$Scalar_@N@1@@Z 0000000180052740     opencv_imgproc2413:opencv_imgproc2413.dll
 0002:00000748       __imp_?drawContours@cv@@YAXAEBV_OutputArray@1@AEBV_InputArray@1@HAEBV?$Scalar_@N@1@HH1HV?$Point_@H@1@@Z 0000000180052748     opencv_imgproc2413:opencv_imgproc2413.dll
 0002:00000750       __imp_?minAreaRect@cv@@YA?AVRotatedRect@1@AEBV_InputArray@1@@Z 0000000180052750     opencv_imgproc2413:opencv_imgproc2413.dll
 0002:00000758       __imp_?calcBackProject@cv@@YAXPEBVMat@1@HPEBHAEBV_InputArray@1@AEBV_OutputArray@1@PEAPEBMN_N@Z 0000000180052758     opencv_imgproc2413:opencv_imgproc2413.dll
 0002:00000760       __imp_?calcHist@cv@@YAXPEBVMat@1@HPEBHAEBV_InputArray@1@AEBV_OutputArray@1@H1PEAPEBM_N5@Z 0000000180052760     opencv_imgproc2413:opencv_imgproc2413.dll
 0002:00000768       __imp_?undistort@cv@@YAXAEBV_InputArray@1@AEBV_OutputArray@1@000@Z 0000000180052768     opencv_imgproc2413:opencv_imgproc2413.dll
 0002:00000770       __imp_?initUndistortRectifyMap@cv@@YAXAEBV_InputArray@1@000V?$Size_@H@1@HAEBV_OutputArray@1@2@Z 0000000180052770     opencv_imgproc2413:opencv_imgproc2413.dll
 0002:00000778       __imp_?getStructuringElement@cv@@YA?AVMat@1@HV?$Size_@H@1@V?$Point_@H@1@@Z 0000000180052778     opencv_imgproc2413:opencv_imgproc2413.dll
 0002:00000780       __imp_?remap@cv@@YAXAEBV_InputArray@1@AEBV_OutputArray@1@00HHAEBV?$Scalar_@N@1@@Z 0000000180052780     opencv_imgproc2413:opencv_imgproc2413.dll
 0002:00000788       __imp_?pyrUp@cv@@YAXAEBV_InputArray@1@AEBV_OutputArray@1@AEBV?$Size_@H@1@H@Z 0000000180052788     opencv_imgproc2413:opencv_imgproc2413.dll
 0002:00000790       __imp_?GaussianBlur@cv@@YAXAEBV_InputArray@1@AEBV_OutputArray@1@V?$Size_@H@1@NNH@Z 0000000180052790     opencv_imgproc2413:opencv_imgproc2413.dll
 0002:00000798       \177opencv_imgproc2413_NULL_THUNK_DATA 0000000180052798     opencv_imgproc2413:opencv_imgproc2413.dll
 0002:000007a0       __imp_cvCreateStereoGCState 00000001800527a0     opencv_legacy2413:opencv_legacy2413.dll
 0002:000007a8       __imp_cvFindStereoCorrespondenceGC 00000001800527a8     opencv_legacy2413:opencv_legacy2413.dll
 0002:000007b0       \177opencv_legacy2413_NULL_THUNK_DATA 00000001800527b0     opencv_legacy2413:opencv_legacy2413.dll
 0002:000007b8       __imp_?load@CascadeClassifier@cv@@QEAA_NAEBV?$basic_string@DU?$char_traits@D@std@@V?$allocator@D@2@@std@@@Z 00000001800527b8     opencv_objdetect2413:opencv_objdetect2413.dll
 0002:000007c0       __imp_??1CascadeClassifier@cv@@UEAA@XZ 00000001800527c0     opencv_objdetect2413:opencv_objdetect2413.dll
 0002:000007c8       __imp_??0CascadeClassifier@cv@@QEAA@XZ 00000001800527c8     opencv_objdetect2413:opencv_objdetect2413.dll
 0002:000007d0       \177opencv_objdetect2413_NULL_THUNK_DATA 00000001800527d0     opencv_objdetect2413:opencv_objdetect2413.dll
 0002:000007d8       __imp_?CamShift@cv@@YA?AVRotatedRect@1@AEBV_InputArray@1@AEAV?$Rect_@H@1@VTermCriteria@1@@Z 00000001800527d8     opencv_video2413:opencv_video2413.dll
 0002:000007e0       \177opencv_video2413_NULL_THUNK_DATA 00000001800527e0     opencv_video2413:opencv_video2413.dll
 0002:000007e8       __guard_check_icall_fptr   00000001800527e8     LIBCMT:guard_support.obj
 0002:000007f0       __guard_dispatch_icall_fptr 00000001800527f0     LIBCMT:guard_support.obj
 0002:000007f8       __xc_a                     00000001800527f8     LIBCMT:initializers.obj
 0002:00000890       _register_opencv_          0000000180052890     init.obj
 0002:00000898       __xc_z                     0000000180052898     LIBCMT:initializers.obj
 0002:000008a0       __xi_a                     00000001800528a0     LIBCMT:initializers.obj
 0002:000008b8       __acrt_stdio_initializer   00000001800528b8     libucrt:stdio_initializer.obj
 0002:000008c0       __acrt_tran_fma3_initializer 00000001800528c0     libucrt:fma3_initializer.obj
 0002:000008c8       __acrt_timeset_initializer 00000001800528c8     libucrt:timeset_initializer.obj
 0002:000008d0       __acrt_multibyte_initializer 00000001800528d0     libucrt:multibyte_initializer.obj
 0002:000008d8       __xi_z                     00000001800528d8     LIBCMT:initializers.obj
 0002:000008e0       __xl_a                     00000001800528e0     LIBCMT:tlssup.obj
 0002:000008e8       __xl_z                     00000001800528e8     LIBCMT:tlssup.obj
 0002:000008f0       __xp_a                     00000001800528f0     LIBCMT:initializers.obj
 0002:000008f8       __acrt_locale_terminator   00000001800528f8     libucrt:locale_initializer.obj
 0002:00000900       __dcrt_console_output_terminator 0000000180052900     libucrt:console_output_initializer.obj
 0002:00000908       __acrt_stdio_terminator    0000000180052908     libucrt:stdio_initializer.obj
 0002:00000910       __xp_z                     0000000180052910     LIBCMT:initializers.obj
 0002:00000918       __xt_a                     0000000180052918     LIBCMT:initializers.obj
 0002:00000920       __xt_z                     0000000180052920     LIBCMT:initializers.obj
 0002:00000930       __sz_node_exe              0000000180052930     node:node.exe
 0002:00000990       ??_C@_01NBENCBCI@?$CK?$AA@ 0000000180052990     libcpmt:locale0.obj
 0002:000009a0       ??_7exception@std@@6B@     00000001800529a0     libcpmt:xthrow.obj
 0002:000009b0       ??_C@_0BC@EOODALEL@Unknown?5exception?$AA@ 00000001800529b0     libcpmt:xthrow.obj
 0002:000009d0       ??_7bad_alloc@std@@6B@     00000001800529d0     libcpmt:xthrow.obj
 0002:000009e0       ??_C@_0P@GHFPNOJB@bad?5allocation?$AA@ 00000001800529e0     libcpmt:xthrow.obj
 0002:000009f8       ??_7logic_error@std@@6B@   00000001800529f8     libcpmt:xthrow.obj
 0002:00000a10       ??_7length_error@std@@6B@  0000000180052a10     libcpmt:xthrow.obj
 0002:00000a28       ??_7out_of_range@std@@6B@  0000000180052a28     libcpmt:xthrow.obj
 0002:00001170       ??_C@_0BN@LKKBCCDB@address?5family?5not?5supported?$AA@ 0000000180053170     libcpmt:syserror.obj
 0002:00001190       ??_C@_0P@LDMLAFHI@address?5in?5use?$AA@ 0000000180053190     libcpmt:syserror.obj
 0002:000011a0       ??_C@_0BG@DHPCNBJB@address?5not?5available?$AA@ 00000001800531a0     libcpmt:syserror.obj
 0002:000011b8       ??_C@_0BC@DFIBIBIL@already?5connected?$AA@ 00000001800531b8     libcpmt:syserror.obj
 0002:000011d0       ??_C@_0BH@CAKOHOMI@argument?5list?5too?5long?$AA@ 00000001800531d0     libcpmt:syserror.obj
 0002:000011e8       ??_C@_0BH@CGIMPKIM@argument?5out?5of?5domain?$AA@ 00000001800531e8     libcpmt:syserror.obj
 0002:00001200       ??_C@_0M@KGHGGJGL@bad?5address?$AA@ 0000000180053200     libcpmt:syserror.obj
 0002:00001210       ??_C@_0BE@MPJPGCEO@bad?5file?5descriptor?$AA@ 0000000180053210     libcpmt:syserror.obj
 0002:00001228       ??_C@_0M@PMMIEFCP@bad?5message?$AA@ 0000000180053228     libcpmt:syserror.obj
 0002:00001238       ??_C@_0M@KPHOFDBE@broken?5pipe?$AA@ 0000000180053238     libcpmt:syserror.obj
 0002:00001248       ??_C@_0BD@MGNDDEGM@connection?5aborted?$AA@ 0000000180053248     libcpmt:syserror.obj
 0002:00001260       ??_C@_0BP@KAIHPOGN@connection?5already?5in?5progress?$AA@ 0000000180053260     libcpmt:syserror.obj
 0002:00001280       ??_C@_0BD@PJLIIJEL@connection?5refused?$AA@ 0000000180053280     libcpmt:syserror.obj
 0002:00001298       ??_C@_0BB@IECNJNOI@connection?5reset?$AA@ 0000000180053298     libcpmt:syserror.obj
 0002:000012b0       ??_C@_0BC@PPHBOELF@cross?5device?5link?$AA@ 00000001800532b0     libcpmt:syserror.obj
 0002:000012c8       ??_C@_0BN@KDMIFEIP@destination?5address?5required?$AA@ 00000001800532c8     libcpmt:syserror.obj
 0002:000012e8       ??_C@_0BI@NGCEHDD@device?5or?5resource?5busy?$AA@ 00000001800532e8     libcpmt:syserror.obj
 0002:00001300       ??_C@_0BE@JIDOCPHM@directory?5not?5empty?$AA@ 0000000180053300     libcpmt:syserror.obj
 0002:00001318       ??_C@_0BI@BNCLIGPB@executable?5format?5error?$AA@ 0000000180053318     libcpmt:syserror.obj
 0002:00001330       ??_C@_0M@MIDIAGJP@file?5exists?$AA@ 0000000180053330     libcpmt:syserror.obj
 0002:00001340       ??_C@_0P@DNAJLBJK@file?5too?5large?$AA@ 0000000180053340     libcpmt:syserror.obj
 0002:00001350       ??_C@_0BC@EJHOMAAK@filename?5too?5long?$AA@ 0000000180053350     libcpmt:syserror.obj
 0002:00001368       ??_C@_0BH@KEFGLDAF@function?5not?5supported?$AA@ 0000000180053368     libcpmt:syserror.obj
 0002:00001380       ??_C@_0BB@DHFDFGDM@host?5unreachable?$AA@ 0000000180053380     libcpmt:syserror.obj
 0002:00001398       ??_C@_0BD@JPHBMONG@identifier?5removed?$AA@ 0000000180053398     libcpmt:syserror.obj
 0002:000013b0       ??_C@_0BG@CDNPAGJK@illegal?5byte?5sequence?$AA@ 00000001800533b0     libcpmt:syserror.obj
 0002:000013c8       ??_C@_0CD@BNPLBMNA@inappropriate?5io?5control?5operati@ 00000001800533c8     libcpmt:syserror.obj
 0002:000013f0       ??_C@_0M@EGEKIIMP@interrupted?$AA@ 00000001800533f0     libcpmt:syserror.obj
 0002:00001400       ??_C@_0BB@FCMFBGOM@invalid?5argument?$AA@ 0000000180053400     libcpmt:syserror.obj
 0002:00001418       ??_C@_0N@OHAFKDEK@invalid?5seek?$AA@ 0000000180053418     libcpmt:syserror.obj
 0002:00001428       ??_C@_08GLNPIFBN@io?5error?$AA@ 0000000180053428     libcpmt:syserror.obj
 0002:00001438       ??_C@_0P@FLLDBIDK@is?5a?5directory?$AA@ 0000000180053438     libcpmt:syserror.obj
 0002:00001448       ??_C@_0N@IFLPBIOP@message?5size?$AA@ 0000000180053448     libcpmt:syserror.obj
 0002:00001458       ??_C@_0N@KIIEAAIO@network?5down?$AA@ 0000000180053458     libcpmt:syserror.obj
 0002:00001468       ??_C@_0O@FNPDBHEE@network?5reset?$AA@ 0000000180053468     libcpmt:syserror.obj
 0002:00001478       ??_C@_0BE@IFNCKGE@network?5unreachable?$AA@ 0000000180053478     libcpmt:syserror.obj
 0002:00001490       ??_C@_0BA@PFFCAOFK@no?5buffer?5space?$AA@ 0000000180053490     libcpmt:syserror.obj
 0002:000014a0       ??_C@_0BB@IEPBLJHK@no?5child?5process?$AA@ 00000001800534a0     libcpmt:syserror.obj
 0002:000014b8       ??_C@_07PLECNNKG@no?5link?$AA@ 00000001800534b8     libcpmt:syserror.obj
 0002:000014c0       ??_C@_0BC@NJECKMKE@no?5lock?5available?$AA@ 00000001800534c0     libcpmt:syserror.obj
 0002:000014d8       ??_C@_0BF@PBGGPKKE@no?5message?5available?$AA@ 00000001800534d8     libcpmt:syserror.obj
 0002:000014f0       ??_C@_0L@EDOLMPAK@no?5message?$AA@ 00000001800534f0     libcpmt:syserror.obj
 0002:00001500       ??_C@_0BD@EAMBFIDF@no?5protocol?5option?$AA@ 0000000180053500     libcpmt:syserror.obj
 0002:00001518       ??_C@_0BD@IJDJKDEA@no?5space?5on?5device?$AA@ 0000000180053518     libcpmt:syserror.obj
 0002:00001530       ??_C@_0BE@MKFDAFMP@no?5stream?5resources?$AA@ 0000000180053530     libcpmt:syserror.obj
 0002:00001548       ??_C@_0BK@IMCPHCBI@no?5such?5device?5or?5address?$AA@ 0000000180053548     libcpmt:syserror.obj
 0002:00001568       ??_C@_0P@FDINDDOK@no?5such?5device?$AA@ 0000000180053568     libcpmt:syserror.obj
 0002:00001578       ??_C@_0BK@NDOCBPGE@no?5such?5file?5or?5directory?$AA@ 0000000180053578     libcpmt:syserror.obj
 0002:00001598       ??_C@_0BA@ENLPPKBN@no?5such?5process?$AA@ 0000000180053598     libcpmt:syserror.obj
 0002:000015a8       ??_C@_0BA@DOCPFFJG@not?5a?5directory?$AA@ 00000001800535a8     libcpmt:syserror.obj
 0002:000015b8       ??_C@_0N@POEIPGGF@not?5a?5socket?$AA@ 00000001800535b8     libcpmt:syserror.obj
 0002:000015c8       ??_C@_0N@LGAPMMPI@not?5a?5stream?$AA@ 00000001800535c8     libcpmt:syserror.obj
 0002:000015d8       ??_C@_0O@GLMIBBEG@not?5connected?$AA@ 00000001800535d8     libcpmt:syserror.obj
 0002:000015e8       ??_C@_0BC@ENOOLCNF@not?5enough?5memory?$AA@ 00000001800535e8     libcpmt:syserror.obj
 0002:00001600       ??_C@_0O@NHEDABJP@not?5supported?$AA@ 0000000180053600     libcpmt:syserror.obj
 0002:00001610       ??_C@_0BD@MOLBPMEA@operation?5canceled?$AA@ 0000000180053610     libcpmt:syserror.obj
 0002:00001628       ??_C@_0BG@KDKHOPCO@operation?5in?5progress?$AA@ 0000000180053628     libcpmt:syserror.obj
 0002:00001640       ??_C@_0BI@OHIEJAAB@operation?5not?5permitted?$AA@ 0000000180053640     libcpmt:syserror.obj
 0002:00001658       ??_C@_0BI@LNEGIFLN@operation?5not?5supported?$AA@ 0000000180053658     libcpmt:syserror.obj
 0002:00001670       ??_C@_0BG@OEMDKMEE@operation?5would?5block?$AA@ 0000000180053670     libcpmt:syserror.obj
 0002:00001688       ??_C@_0L@BLPOFLNJ@owner?5dead?$AA@ 0000000180053688     libcpmt:syserror.obj
 0002:00001698       ??_C@_0BC@CIJDGCDI@permission?5denied?$AA@ 0000000180053698     libcpmt:syserror.obj
 0002:000016b0       ??_C@_0P@FNPOCJBE@protocol?5error?$AA@ 00000001800536b0     libcpmt:syserror.obj
 0002:000016c0       ??_C@_0BH@JPPPLHJB@protocol?5not?5supported?$AA@ 00000001800536c0     libcpmt:syserror.obj
 0002:000016d8       ??_C@_0BG@EICBIHDP@read?5only?5file?5system?$AA@ 00000001800536d8     libcpmt:syserror.obj
 0002:000016f0       ??_C@_0BO@BJBOMOEJ@resource?5deadlock?5would?5occur?$AA@ 00000001800536f0     libcpmt:syserror.obj
 0002:00001710       ??_C@_0BP@LKNGHENJ@resource?5unavailable?5try?5again?$AA@ 0000000180053710     libcpmt:syserror.obj
 0002:00001730       ??_C@_0BE@GOIPJJHG@result?5out?5of?5range?$AA@ 0000000180053730     libcpmt:syserror.obj
 0002:00001748       ??_C@_0BG@MPLKFPAE@state?5not?5recoverable?$AA@ 0000000180053748     libcpmt:syserror.obj
 0002:00001760       ??_C@_0P@DIIFGFCG@stream?5timeout?$AA@ 0000000180053760     libcpmt:syserror.obj
 0002:00001770       ??_C@_0P@IPFDMIFL@text?5file?5busy?$AA@ 0000000180053770     libcpmt:syserror.obj
 0002:00001780       ??_C@_09KJPPMAOI@timed?5out?$AA@ 0000000180053780     libcpmt:syserror.obj
 0002:00001790       ??_C@_0BO@HACHBEKI@too?5many?5files?5open?5in?5system?$AA@ 0000000180053790     libcpmt:syserror.obj
 0002:000017b0       ??_C@_0BE@GHAFMPAH@too?5many?5files?5open?$AA@ 00000001800537b0     libcpmt:syserror.obj
 0002:000017c8       ??_C@_0P@HCOMKFCC@too?5many?5links?$AA@ 00000001800537c8     libcpmt:syserror.obj
 0002:000017d8       ??_C@_0BO@EFGOJEF@too?5many?5symbolic?5link?5levels?$AA@ 00000001800537d8     libcpmt:syserror.obj
 0002:000017f8       ??_C@_0BA@KGKGOOJA@value?5too?5large?$AA@ 00000001800537f8     libcpmt:syserror.obj
 0002:00001808       ??_C@_0BE@MIEJDDNH@wrong?5protocol?5type?$AA@ 0000000180053808     libcpmt:syserror.obj
 0002:00001848       ??_C@_1BK@MGMFAEKH@?$AAk?$AAe?$AAr?$AAn?$AAe?$AAl?$AA3?$AA2?$AA?4?$AAd?$AAl?$AAl?$AA?$AA@ 0000000180053848     libcpmt:winapisupp.obj
 0002:00001868       ??_C@_08KNHFBNJ@FlsAlloc?$AA@ 0000000180053868     libcpmt:winapisupp.obj
 0002:00001878       ??_C@_07PEJMOBNF@FlsFree?$AA@ 0000000180053878     libcpmt:winapisupp.obj
 0002:00001880       ??_C@_0M@GDNOONDI@FlsGetValue?$AA@ 0000000180053880     libcpmt:winapisupp.obj
 0002:00001890       ??_C@_0M@JCPCPOEF@FlsSetValue?$AA@ 0000000180053890     libcpmt:winapisupp.obj
 0002:000018a0       ??_C@_0BM@HCFOFFN@InitializeCriticalSectionEx?$AA@ 00000001800538a0     libcpmt:winapisupp.obj
 0002:000018c0       ??_C@_0BE@GPLMMCMH@InitOnceExecuteOnce?$AA@ 00000001800538c0     libcpmt:winapisupp.obj
 0002:000018d8       ??_C@_0P@DLHPPCNH@CreateEventExW?$AA@ 00000001800538d8     libcpmt:winapisupp.obj
 0002:000018e8       ??_C@_0BB@MEFPJLHN@CreateSemaphoreW?$AA@ 00000001800538e8     libcpmt:winapisupp.obj
 0002:00001900       ??_C@_0BD@KIEEOEEH@CreateSemaphoreExW?$AA@ 0000000180053900     libcpmt:winapisupp.obj
 0002:00001918       ??_C@_0BG@OGFAJCKC@CreateThreadpoolTimer?$AA@ 0000000180053918     libcpmt:winapisupp.obj
 0002:00001930       ??_C@_0BD@LPLEMMDI@SetThreadpoolTimer?$AA@ 0000000180053930     libcpmt:winapisupp.obj
 0002:00001948       ??_C@_0CA@FMNJENH@WaitForThreadpoolTimerCallbacks?$AA@ 0000000180053948     libcpmt:winapisupp.obj
 0002:00001968       ??_C@_0BF@DCFCCNOC@CloseThreadpoolTimer?$AA@ 0000000180053968     libcpmt:winapisupp.obj
 0002:00001980       ??_C@_0BF@FLABGKKM@CreateThreadpoolWait?$AA@ 0000000180053980     libcpmt:winapisupp.obj
 0002:00001998       ??_C@_0BC@MGCOHNA@SetThreadpoolWait?$AA@ 0000000180053998     libcpmt:winapisupp.obj
 0002:000019b0       ??_C@_0BE@OCIOMIMP@CloseThreadpoolWait?$AA@ 00000001800539b0     libcpmt:winapisupp.obj
 0002:000019c8       ??_C@_0BJ@LKGHFHBO@FlushProcessWriteBuffers?$AA@ 00000001800539c8     libcpmt:winapisupp.obj
 0002:000019e8       ??_C@_0BP@KALKKPMO@FreeLibraryWhenCallbackReturns?$AA@ 00000001800539e8     libcpmt:winapisupp.obj
 0002:00001a08       ??_C@_0BK@DFNBACLA@GetCurrentProcessorNumber?$AA@ 0000000180053a08     libcpmt:winapisupp.obj
 0002:00001a28       ??_C@_0BE@FKKLLFLM@CreateSymbolicLinkW?$AA@ 0000000180053a28     libcpmt:winapisupp.obj
 0002:00001a40       ??_C@_0BE@JOGNEJCI@GetCurrentPackageId?$AA@ 0000000180053a40     libcpmt:winapisupp.obj
 0002:00001a58       ??_C@_0P@CDHHOHKP@GetTickCount64?$AA@ 0000000180053a58     libcpmt:winapisupp.obj
 0002:00001a68       ??_C@_0BN@NEEHBBPO@GetFileInformationByHandleEx?$AA@ 0000000180053a68     libcpmt:winapisupp.obj
 0002:00001a88       ??_C@_0BL@KBBHGKCM@SetFileInformationByHandle?$AA@ 0000000180053a88     libcpmt:winapisupp.obj
 0002:00001aa8       ??_C@_0BP@FPNJPEJC@GetSystemTimePreciseAsFileTime?$AA@ 0000000180053aa8     libcpmt:winapisupp.obj
 0002:00001ac8       ??_C@_0BM@HLJJNPAH@InitializeConditionVariable?$AA@ 0000000180053ac8     libcpmt:winapisupp.obj
 0002:00001ae8       ??_C@_0BG@BFNILBLN@WakeConditionVariable?$AA@ 0000000180053ae8     libcpmt:winapisupp.obj
 0002:00001b00       ??_C@_0BJ@PGPPEPCC@WakeAllConditionVariable?$AA@ 0000000180053b00     libcpmt:winapisupp.obj
 0002:00001b20       ??_C@_0BJ@JEBJOJFJ@SleepConditionVariableCS?$AA@ 0000000180053b20     libcpmt:winapisupp.obj
 0002:00001b40       ??_C@_0BC@MMLHEBPB@InitializeSRWLock?$AA@ 0000000180053b40     libcpmt:winapisupp.obj
 0002:00001b58       ??_C@_0BI@OMNLIJDB@AcquireSRWLockExclusive?$AA@ 0000000180053b58     libcpmt:winapisupp.obj
 0002:00001b70       ??_C@_0BL@OGHFEMNA@TryAcquireSRWLockExclusive?$AA@ 0000000180053b70     libcpmt:winapisupp.obj
 0002:00001b90       ??_C@_0BI@HMIEPCNJ@ReleaseSRWLockExclusive?$AA@ 0000000180053b90     libcpmt:winapisupp.obj
 0002:00001ba8       ??_C@_0BK@LGACAGIC@SleepConditionVariableSRW?$AA@ 0000000180053ba8     libcpmt:winapisupp.obj
 0002:00001bc8       ??_C@_0BF@GGPHFPJA@CreateThreadpoolWork?$AA@ 0000000180053bc8     libcpmt:winapisupp.obj
 0002:00001be0       ??_C@_0BF@NHDAIMMO@SubmitThreadpoolWork?$AA@ 0000000180053be0     libcpmt:winapisupp.obj
 0002:00001bf8       ??_C@_0BE@NPHIPNPD@CloseThreadpoolWork?$AA@ 0000000180053bf8     libcpmt:winapisupp.obj
 0002:00001c10       ??_C@_0BA@IHGNDAEB@CompareStringEx?$AA@ 0000000180053c10     libcpmt:winapisupp.obj
 0002:00001c20       ??_C@_0BA@ONOKGCMP@GetLocaleInfoEx?$AA@ 0000000180053c20     libcpmt:winapisupp.obj
 0002:00001c30       ??_C@_0O@KKBNKAPF@LCMapStringEx?$AA@ 0000000180053c30     libcpmt:winapisupp.obj
 0002:00001c40       ??_C@_11LOCGONAA@?$AA?$AA@ 0000000180053c40     libcpmt:wlocale.obj
 0002:00001c44       ??_C@_01JOAMLHOP@?9?$AA@   0000000180053c44     libcpmt:wlocale.obj
 0002:00001ce8       ??_C@_1M@PNMLOJDF@?$AAe?$AAt?$AA?9?$AAe?$AAe?$AA?$AA@ 0000000180053ce8     libcpmt:winapinls.obj
 0002:00001cf8       ??_C@_1M@GHHLIKEI@?$AAe?$AAu?$AA?9?$AAe?$AAs?$AA?$AA@ 0000000180053cf8     libcpmt:winapinls.obj
 0002:00001d08       ??_C@_1M@PBNONODE@?$AAf?$AAa?$AA?9?$AAi?$AAr?$AA?$AA@ 0000000180053d08     libcpmt:winapinls.obj
 0002:00001d18       ??_C@_1M@JEEHPMIL@?$AAf?$AAi?$AA?9?$AAf?$AAi?$AA?$AA@ 0000000180053d18     libcpmt:winapinls.obj
 0002:00001d28       ??_C@_1M@LMDCNDBA@?$AAf?$AAo?$AA?9?$AAf?$AAo?$AA?$AA@ 0000000180053d28     libcpmt:winapinls.obj
 0002:00001d38       ??_C@_1M@JKEOHLDK@?$AAf?$AAr?$AA?9?$AAb?$AAe?$AA?$AA@ 0000000180053d38     libcpmt:winapinls.obj
 0002:00001d48       ??_C@_1M@NOHADPMI@?$AAf?$AAr?$AA?9?$AAc?$AAa?$AA?$AA@ 0000000180053d48     libcpmt:winapinls.obj
 0002:00001d58       ??_C@_1M@KDHIHAEC@?$AAf?$AAr?$AA?9?$AAc?$AAh?$AA?$AA@ 0000000180053d58     libcpmt:winapinls.obj
 0002:00001d68       ??_C@_1M@MMBBFGAK@?$AAf?$AAr?$AA?9?$AAf?$AAr?$AA?$AA@ 0000000180053d68     libcpmt:winapinls.obj
 0002:00001d78       ??_C@_1M@PAFNENNF@?$AAf?$AAr?$AA?9?$AAl?$AAu?$AA?$AA@ 0000000180053d78     libcpmt:winapinls.obj
 0002:00001d88       ??_C@_1M@EOHDJGDD@?$AAf?$AAr?$AA?9?$AAm?$AAc?$AA?$AA@ 0000000180053d88     libcpmt:winapinls.obj
 0002:00001d98       ??_C@_1M@FAPLLOPF@?$AAg?$AAl?$AA?9?$AAe?$AAs?$AA?$AA@ 0000000180053d98     libcpmt:winapinls.obj
 0002:00001da8       ??_C@_1M@FOPBFLOO@?$AAg?$AAu?$AA?9?$AAi?$AAn?$AA?$AA@ 0000000180053da8     libcpmt:winapinls.obj
 0002:00001db8       ??_C@_1M@KBMCINPM@?$AAh?$AAe?$AA?9?$AAi?$AAl?$AA?$AA@ 0000000180053db8     libcpmt:winapinls.obj
 0002:00001dc8       ??_C@_1M@BBPHKFPJ@?$AAh?$AAi?$AA?9?$AAi?$AAn?$AA?$AA@ 0000000180053dc8     libcpmt:winapinls.obj
 0002:00001dd8       ??_C@_1M@PMBNDPHD@?$AAh?$AAr?$AA?9?$AAb?$AAa?$AA?$AA@ 0000000180053dd8     libcpmt:winapinls.obj
 0002:00001de8       ??_C@_1M@BPCKOEGE@?$AAh?$AAr?$AA?9?$AAh?$AAr?$AA?$AA@ 0000000180053de8     libcpmt:winapinls.obj
 0002:00001df8       ??_C@_1M@GACBMHKE@?$AAh?$AAu?$AA?9?$AAh?$AAu?$AA?$AA@ 0000000180053df8     libcpmt:winapinls.obj
 0002:00001e08       ??_C@_1M@MILPAJJC@?$AAh?$AAy?$AA?9?$AAa?$AAm?$AA?$AA@ 0000000180053e08     libcpmt:winapinls.obj
 0002:00001e18       ??_C@_1M@BABBICEC@?$AAi?$AAd?$AA?9?$AAi?$AAd?$AA?$AA@ 0000000180053e18     libcpmt:winapinls.obj
 0002:00001e28       ??_C@_1M@BIKNHHPF@?$AAi?$AAs?$AA?9?$AAi?$AAs?$AA?$AA@ 0000000180053e28     libcpmt:winapinls.obj
 0002:00001e38       ??_C@_1M@NMPCJPHE@?$AAi?$AAt?$AA?9?$AAc?$AAh?$AA?$AA@ 0000000180053e38     libcpmt:winapinls.obj
 0002:00001e48       ??_C@_1M@GHKGFEDF@?$AAi?$AAt?$AA?9?$AAi?$AAt?$AA?$AA@ 0000000180053e48     libcpmt:winapinls.obj
 0002:00001e58       ??_C@_1M@NIEJCJJA@?$AAj?$AAa?$AA?9?$AAj?$AAp?$AA?$AA@ 0000000180053e58     libcpmt:winapinls.obj
 0002:00001e68       ??_C@_1M@JILFNBIM@?$AAk?$AAa?$AA?9?$AAg?$AAe?$AA?$AA@ 0000000180053e68     libcpmt:winapinls.obj
 0002:00001e78       ??_C@_1M@PACPMGPH@?$AAk?$AAk?$AA?9?$AAk?$AAz?$AA?$AA@ 0000000180053e78     libcpmt:winapinls.obj
 0002:00001e88       ??_C@_1M@IELFGMHA@?$AAk?$AAn?$AA?9?$AAi?$AAn?$AA?$AA@ 0000000180053e88     libcpmt:winapinls.obj
 0002:00001e98       ??_C@_1M@DMHAEOGC@?$AAk?$AAo?$AA?9?$AAk?$AAr?$AA?$AA@ 0000000180053e98     libcpmt:winapinls.obj
 0002:00001ea8       ??_C@_1O@IBBJHCH@?$AAk?$AAo?$AAk?$AA?9?$AAi?$AAn?$AA?$AA@ 0000000180053ea8     libcpmt:winapinls.obj
 0002:00001eb8       ??_C@_1M@HBAHBIGA@?$AAk?$AAy?$AA?9?$AAk?$AAg?$AA?$AA@ 0000000180053eb8     libcpmt:winapinls.obj
 0002:00001ec8       ??_C@_1M@KPMILCJG@?$AAl?$AAt?$AA?9?$AAl?$AAt?$AA?$AA@ 0000000180053ec8     libcpmt:winapinls.obj
 0002:00001ed8       ??_C@_1M@BDEKKCA@?$AAl?$AAv?$AA?9?$AAl?$AAv?$AA?$AA@ 0000000180053ed8     libcpmt:winapinls.obj
 0002:00001ee8       ??_C@_1M@ELCKCCJJ@?$AAm?$AAi?$AA?9?$AAn?$AAz?$AA?$AA@ 0000000180053ee8     libcpmt:winapinls.obj
 0002:00001ef8       ??_C@_1M@CBOOLAPA@?$AAm?$AAk?$AA?9?$AAm?$AAk?$AA?$AA@ 0000000180053ef8     libcpmt:winapinls.obj
 0002:00001f08       ??_C@_1M@GPHNBJKN@?$AAm?$AAl?$AA?9?$AAi?$AAn?$AA?$AA@ 0000000180053f08     libcpmt:winapinls.obj
 0002:00001f18       ??_C@_1M@PABJILIG@?$AAm?$AAn?$AA?9?$AAm?$AAn?$AA?$AA@ 0000000180053f18     libcpmt:winapinls.obj
 0002:00001f28       ??_C@_1M@FGBKKIPG@?$AAm?$AAr?$AA?9?$AAi?$AAn?$AA?$AA@ 0000000180053f28     libcpmt:winapinls.obj
 0002:00001f38       ??_C@_1M@NDBPDDAL@?$AAm?$AAs?$AA?9?$AAb?$AAn?$AA?$AA@ 0000000180053f38     libcpmt:winapinls.obj
 0002:00001f48       ??_C@_1M@OPIHOOPI@?$AAm?$AAs?$AA?9?$AAm?$AAy?$AA?$AA@ 0000000180053f48     libcpmt:winapinls.obj
 0002:00001f58       ??_C@_1M@PPDBCNFM@?$AAm?$AAt?$AA?9?$AAm?$AAt?$AA?$AA@ 0000000180053f58     libcpmt:winapinls.obj
 0002:00001f68       ??_C@_1M@KDJDKMDD@?$AAn?$AAb?$AA?9?$AAn?$AAo?$AA?$AA@ 0000000180053f68     libcpmt:winapinls.obj
 0002:00001f78       ??_C@_1M@KFCFLMJP@?$AAn?$AAl?$AA?9?$AAb?$AAe?$AA?$AA@ 0000000180053f78     libcpmt:winapinls.obj
 0002:00001f88       ??_C@_1M@KPOPDDGO@?$AAn?$AAl?$AA?9?$AAn?$AAl?$AA?$AA@ 0000000180053f88     libcpmt:winapinls.obj
 0002:00001f98       ??_C@_1M@LJKPEMLN@?$AAn?$AAn?$AA?9?$AAn?$AAo?$AA?$AA@ 0000000180053f98     libcpmt:winapinls.obj
 0002:00001fa8       ??_C@_1M@BDGHHBFL@?$AAn?$AAs?$AA?9?$AAz?$AAa?$AA?$AA@ 0000000180053fa8     libcpmt:winapinls.obj
 0002:00001fb8       ??_C@_1M@IDEHOAP@?$AAp?$AAa?$AA?9?$AAi?$AAn?$AA?$AA@ 0000000180053fb8     libcpmt:winapinls.obj
 0002:00001fc8       ??_C@_1M@HDBKGOGH@?$AAp?$AAl?$AA?9?$AAp?$AAl?$AA?$AA@ 0000000180053fc8     libcpmt:winapinls.obj
 0002:00001fd8       ??_C@_1M@LJLLCMEH@?$AAp?$AAt?$AA?9?$AAb?$AAr?$AA?$AA@ 0000000180053fd8     libcpmt:winapinls.obj
 0002:00001fe8       ??_C@_1M@NCMONAAL@?$AAp?$AAt?$AA?9?$AAp?$AAt?$AA?$AA@ 0000000180053fe8     libcpmt:winapinls.obj
 0002:00001ff8       ??_C@_1O@EAKMAJDN@?$AAq?$AAu?$AAz?$AA?9?$AAb?$AAo?$AA?$AA@ 0000000180053ff8     libcpmt:winapinls.obj
 0002:00002008       ??_C@_1O@BHHPIGDN@?$AAq?$AAu?$AAz?$AA?9?$AAe?$AAc?$AA?$AA@ 0000000180054008     libcpmt:winapinls.obj
 0002:00002018       ??_C@_1O@GBAPEKMJ@?$AAq?$AAu?$AAz?$AA?9?$AAp?$AAe?$AA?$AA@ 0000000180054018     libcpmt:winapinls.obj
 0002:00002028       ??_C@_1M@CLGLEFBO@?$AAr?$AAo?$AA?9?$AAr?$AAo?$AA?$AA@ 0000000180054028     libcpmt:winapinls.obj
 0002:00002038       ??_C@_1M@CEEDODME@?$AAr?$AAu?$AA?9?$AAr?$AAu?$AA?$AA@ 0000000180054038     libcpmt:winapinls.obj
 0002:00002048       ??_C@_1M@HPKKKMPP@?$AAs?$AAa?$AA?9?$AAi?$AAn?$AA?$AA@ 0000000180054048     libcpmt:winapinls.obj
 0002:00002058       ??_C@_1M@BKMAIGOJ@?$AAs?$AAe?$AA?9?$AAf?$AAi?$AA?$AA@ 0000000180054058     libcpmt:winapinls.obj
 0002:00002068       ??_C@_1M@NDPIFLFI@?$AAs?$AAe?$AA?9?$AAn?$AAo?$AA?$AA@ 0000000180054068     libcpmt:winapinls.obj
 0002:00002078       ??_C@_1M@DANKKHJ@?$AAs?$AAe?$AA?9?$AAs?$AAe?$AA?$AA@ 0000000180054078     libcpmt:winapinls.obj
 0002:00002088       ??_C@_1M@PNBLONPJ@?$AAs?$AAk?$AA?9?$AAs?$AAk?$AA?$AA@ 0000000180054088     libcpmt:winapinls.obj
 0002:00002098       ??_C@_1M@LFMODOAL@?$AAs?$AAl?$AA?9?$AAs?$AAi?$AA?$AA@ 0000000180054098     libcpmt:winapinls.obj
 0002:000020a8       ??_C@_1O@DFKOMPG@?$AAs?$AAm?$AAa?$AA?9?$AAn?$AAo?$AA?$AA@ 00000001800540a8     libcpmt:winapinls.obj
 0002:000020b8       ??_C@_1O@NDKPBNNH@?$AAs?$AAm?$AAa?$AA?9?$AAs?$AAe?$AA?$AA@ 00000001800540b8     libcpmt:winapinls.obj
 0002:000020c8       ??_C@_1O@PLLKBHAB@?$AAs?$AAm?$AAj?$AA?9?$AAn?$AAo?$AA?$AA@ 00000001800540c8     libcpmt:winapinls.obj
 0002:000020d8       ??_C@_1O@CLEPOGCA@?$AAs?$AAm?$AAj?$AA?9?$AAs?$AAe?$AA?$AA@ 00000001800540d8     libcpmt:winapinls.obj
 0002:000020e8       ??_C@_1O@DLGJGKMK@?$AAs?$AAm?$AAn?$AA?9?$AAf?$AAi?$AA?$AA@ 00000001800540e8     libcpmt:winapinls.obj
 0002:000020f8       ??_C@_1O@OJDJGAJC@?$AAs?$AAm?$AAs?$AA?9?$AAf?$AAi?$AA?$AA@ 00000001800540f8     libcpmt:winapinls.obj
 0002:00002108       ??_C@_1M@BOFOGHPB@?$AAs?$AAq?$AA?9?$AAa?$AAl?$AA?$AA@ 0000000180054108     libcpmt:winapinls.obj
 0002:00002118       ??_C@_1BG@LJBBIPGB@?$AAs?$AAr?$AA?9?$AAb?$AAa?$AA?9?$AAc?$AAy?$AAr?$AAl?$AA?$AA@ 0000000180054118     libcpmt:winapinls.obj
 0002:00002130       ??_C@_1BG@JLBENFOE@?$AAs?$AAr?$AA?9?$AAb?$AAa?$AA?9?$AAl?$AAa?$AAt?$AAn?$AA?$AA@ 0000000180054130     libcpmt:winapinls.obj
 0002:00002148       ??_C@_1BG@KODPNHE@?$AAs?$AAr?$AA?9?$AAs?$AAp?$AA?9?$AAc?$AAy?$AAr?$AAl?$AA?$AA@ 0000000180054148     libcpmt:winapinls.obj
 0002:00002160       ??_C@_1BG@CIOGKHPB@?$AAs?$AAr?$AA?9?$AAs?$AAp?$AA?9?$AAl?$AAa?$AAt?$AAn?$AA?$AA@ 0000000180054160     libcpmt:winapinls.obj
 0002:00002178       ??_C@_1M@NGFJLMAC@?$AAs?$AAv?$AA?9?$AAf?$AAi?$AA?$AA@ 0000000180054178     libcpmt:winapinls.obj
 0002:00002188       ??_C@_1M@MPJEJAJC@?$AAs?$AAv?$AA?9?$AAs?$AAe?$AA?$AA@ 0000000180054188     libcpmt:winapinls.obj
 0002:00002198       ??_C@_1M@MPNDHLFK@?$AAs?$AAw?$AA?9?$AAk?$AAe?$AA?$AA@ 0000000180054198     libcpmt:winapinls.obj
 0002:000021a8       ??_C@_1O@KOHBJJI@?$AAs?$AAy?$AAr?$AA?9?$AAs?$AAy?$AA?$AA@ 00000001800541a8     libcpmt:winapinls.obj
 0002:000021b8       ??_C@_1M@LDCEFHA@?$AAt?$AAa?$AA?9?$AAi?$AAn?$AA?$AA@ 00000001800541b8     libcpmt:winapinls.obj
 0002:000021c8       ??_C@_1M@CNJOFAK@?$AAt?$AAe?$AA?9?$AAi?$AAn?$AA?$AA@ 00000001800541c8     libcpmt:winapinls.obj
 0002:000021d8       ??_C@_1M@GNAECACD@?$AAt?$AAh?$AA?9?$AAt?$AAh?$AA?$AA@ 00000001800541d8     libcpmt:winapinls.obj
 0002:000021e8       ??_C@_1M@CHBIHOJO@?$AAt?$AAn?$AA?9?$AAz?$AAa?$AA?$AA@ 00000001800541e8     libcpmt:winapinls.obj
 0002:000021f8       ??_C@_1M@GCCMIGPJ@?$AAt?$AAr?$AA?9?$AAt?$AAr?$AA?$AA@ 00000001800541f8     libcpmt:winapinls.obj
 0002:00002208       ??_C@_1M@CELMCNBK@?$AAt?$AAt?$AA?9?$AAr?$AAu?$AA?$AA@ 0000000180054208     libcpmt:winapinls.obj
 0002:00002218       ??_C@_1M@KLMCELGA@?$AAu?$AAk?$AA?9?$AAu?$AAa?$AA?$AA@ 0000000180054218     libcpmt:winapinls.obj
 0002:00002228       ??_C@_1M@EPAJJAJF@?$AAu?$AAr?$AA?9?$AAp?$AAk?$AA?$AA@ 0000000180054228     libcpmt:winapinls.obj
 0002:00002238       ??_C@_1BG@GEGPMCDJ@?$AAu?$AAz?$AA?9?$AAu?$AAz?$AA?9?$AAc?$AAy?$AAr?$AAl?$AA?$AA@ 0000000180054238     libcpmt:winapinls.obj
 0002:00002250       ??_C@_1BG@EGGKJILM@?$AAu?$AAz?$AA?9?$AAu?$AAz?$AA?9?$AAl?$AAa?$AAt?$AAn?$AA?$AA@ 0000000180054250     libcpmt:winapinls.obj
 0002:00002268       ??_C@_1M@GFOCLFF@?$AAv?$AAi?$AA?9?$AAv?$AAn?$AA?$AA@ 0000000180054268     libcpmt:winapinls.obj
 0002:00002278       ??_C@_1M@CPAMEDFI@?$AAx?$AAh?$AA?9?$AAz?$AAa?$AA?$AA@ 0000000180054278     libcpmt:winapinls.obj
 0002:00002288       ??_C@_1O@EBKIFIGN@?$AAz?$AAh?$AA?9?$AAc?$AAh?$AAs?$AA?$AA@ 0000000180054288     libcpmt:winapinls.obj
 0002:00002298       ??_C@_1O@NMHPGANE@?$AAz?$AAh?$AA?9?$AAc?$AAh?$AAt?$AA?$AA@ 0000000180054298     libcpmt:winapinls.obj
 0002:000022a8       ??_C@_1M@LPINJOMC@?$AAz?$AAh?$AA?9?$AAc?$AAn?$AA?$AA@ 00000001800542a8     libcpmt:winapinls.obj
 0002:000022b8       ??_C@_1M@OCJEJODD@?$AAz?$AAh?$AA?9?$AAh?$AAk?$AA?$AA@ 00000001800542b8     libcpmt:winapinls.obj
 0002:000022c8       ??_C@_1M@DNDLJINH@?$AAz?$AAh?$AA?9?$AAm?$AAo?$AA?$AA@ 00000001800542c8     libcpmt:winapinls.obj
 0002:000022d8       ??_C@_1M@MBFDNDND@?$AAz?$AAh?$AA?9?$AAs?$AAg?$AA?$AA@ 00000001800542d8     libcpmt:winapinls.obj
 0002:000022e8       ??_C@_1M@IMEPLEPE@?$AAz?$AAh?$AA?9?$AAt?$AAw?$AA?$AA@ 00000001800542e8     libcpmt:winapinls.obj
 0002:000022f8       ??_C@_1M@BBGHNHJP@?$AAz?$AAu?$AA?9?$AAz?$AAa?$AA?$AA@ 00000001800542f8     libcpmt:winapinls.obj
 0002:00003f90       ??_C@_15EMKDOKLE@?$AAa?$AAr?$AA?$AA@ 0000000180055f90     libcpmt:winapinls.obj
 0002:00003f98       ??_C@_15KNPADPLH@?$AAb?$AAg?$AA?$AA@ 0000000180055f98     libcpmt:winapinls.obj
 0002:00003fa0       ??_C@_15EDMHLDMO@?$AAc?$AAa?$AA?$AA@ 0000000180055fa0     libcpmt:winapinls.obj
 0002:00003fa8       ??_C@_1O@BPEAJADD@?$AAz?$AAh?$AA?9?$AAC?$AAH?$AAS?$AA?$AA@ 0000000180055fa8     libcpmt:winapinls.obj
 0002:00003fb8       ??_C@_15LJNHCMNK@?$AAc?$AAs?$AA?$AA@ 0000000180055fb8     libcpmt:winapinls.obj
 0002:00003fc0       ??_C@_15FOMCIDHG@?$AAd?$AAa?$AA?$AA@ 0000000180055fc0     libcpmt:winapinls.obj
 0002:00003fc8       ??_C@_15NBKABECB@?$AAd?$AAe?$AA?$AA@ 0000000180055fc8     libcpmt:winapinls.obj
 0002:00003fd0       ??_C@_15GHPEIIAO@?$AAe?$AAl?$AA?$AA@ 0000000180055fd0     libcpmt:winapinls.obj
 0002:00003fd8       ??_C@_15MNPNEAIF@?$AAe?$AAn?$AA?$AA@ 0000000180055fd8     libcpmt:winapinls.obj
 0002:00003fe0       ??_C@_15GPIOMPMH@?$AAe?$AAs?$AA?$AA@ 0000000180055fe0     libcpmt:winapinls.obj
 0002:00003fe8       ??_C@_15NGLOAKJC@?$AAf?$AAi?$AA?$AA@ 0000000180055fe8     libcpmt:winapinls.obj
 0002:00003ff0       ??_C@_15FBKGNKAM@?$AAf?$AAr?$AA?$AA@ 0000000180055ff0     libcpmt:winapinls.obj
 0002:00003ff8       ??_C@_15KGGCNEFK@?$AAh?$AAe?$AA?$AA@ 0000000180055ff8     libcpmt:winapinls.obj
 0002:00004000       ??_C@_15PGHLIDMF@?$AAh?$AAu?$AA?$AA@ 0000000180056000     libcpmt:winapinls.obj
 0002:00004008       ??_C@_15BIEMAPLM@?$AAi?$AAs?$AA?$AA@ 0000000180056008     libcpmt:winapinls.obj
 0002:00004010       ??_C@_15IFJLDHAF@?$AAi?$AAt?$AA?$AA@ 0000000180056010     libcpmt:winapinls.obj
 0002:00004018       ??_C@_15GEMIOCAG@?$AAj?$AAa?$AA?$AA@ 0000000180056018     libcpmt:winapinls.obj
 0002:00004020       ??_C@_15EPELEGJA@?$AAk?$AAo?$AA?$AA@ 0000000180056020     libcpmt:winapinls.obj
 0002:00004028       ??_C@_15NDDHIMN@?$AAn?$AAl?$AA?$AA@ 0000000180056028     libcpmt:winapinls.obj
 0002:00004030       ??_C@_15BPIGNHCD@?$AAn?$AAo?$AA?$AA@ 0000000180056030     libcpmt:winapinls.obj
 0002:00004038       ??_C@_15DEOPBLCG@?$AAp?$AAl?$AA?$AA@ 0000000180056038     libcpmt:winapinls.obj
 0002:00004040       ??_C@_15KBECGEFG@?$AAp?$AAt?$AA?$AA@ 0000000180056040     libcpmt:winapinls.obj
 0002:00004048       ??_C@_15GLJCBFMD@?$AAr?$AAo?$AA?$AA@ 0000000180056048     libcpmt:winapinls.obj
 0002:00004050       ??_C@_15FEDGKCDI@?$AAr?$AAu?$AA?$AA@ 0000000180056050     libcpmt:winapinls.obj
 0002:00004058       ??_C@_15GLKMLLHM@?$AAh?$AAr?$AA?$AA@ 0000000180056058     libcpmt:winapinls.obj
 0002:00004060       ??_C@_15CPKMFBDB@?$AAs?$AAk?$AA?$AA@ 0000000180056060     libcpmt:winapinls.obj
 0002:00004068       ??_C@_15BAAIOGMK@?$AAs?$AAq?$AA?$AA@ 0000000180056068     libcpmt:winapinls.obj
 0002:00004070       ??_C@_15INNPNOHD@?$AAs?$AAv?$AA?$AA@ 0000000180056070     libcpmt:winapinls.obj
 0002:00004078       ??_C@_15CABMMOGH@?$AAt?$AAh?$AA?$AA@ 0000000180056078     libcpmt:winapinls.obj
 0002:00004080       ??_C@_15BPLIHJJM@?$AAt?$AAr?$AA?$AA@ 0000000180056080     libcpmt:winapinls.obj
 0002:00004088       ??_C@_15NEOEKKDJ@?$AAu?$AAr?$AA?$AA@ 0000000180056088     libcpmt:winapinls.obj
 0002:00004090       ??_C@_15NFICGAJK@?$AAi?$AAd?$AA?$AA@ 0000000180056090     libcpmt:winapinls.obj
 0002:00004098       ??_C@_15PJPFLCCM@?$AAu?$AAk?$AA?$AA@ 0000000180056098     libcpmt:winapinls.obj
 0002:000040a0       ??_C@_15HPJPHDM@?$AAb?$AAe?$AA?$AA@ 00000001800560a0     libcpmt:winapinls.obj
 0002:000040a8       ??_C@_15LCHLGJII@?$AAs?$AAl?$AA?$AA@ 00000001800560a8     libcpmt:winapinls.obj
 0002:000040b0       ??_C@_15PCFJPHHO@?$AAe?$AAt?$AA?$AA@ 00000001800560b0     libcpmt:winapinls.obj
 0002:000040b8       ??_C@_15HPFPGODN@?$AAl?$AAv?$AA?$AA@ 00000001800560b8     libcpmt:winapinls.obj
 0002:000040c0       ??_C@_15NFFGKGLG@?$AAl?$AAt?$AA?$AA@ 00000001800560c0     libcpmt:winapinls.obj
 0002:000040c8       ??_C@_15BDAKCCHN@?$AAf?$AAa?$AA?$AA@ 00000001800560c8     libcpmt:winapinls.obj
 0002:000040d0       ??_C@_15NFGIAIAJ@?$AAv?$AAi?$AA?$AA@ 00000001800560d0     libcpmt:winapinls.obj
 0002:000040d8       ??_C@_15LMKNDMHN@?$AAh?$AAy?$AA?$AA@ 00000001800560d8     libcpmt:winapinls.obj
 0002:000040e0       ??_C@_15IJBHMCFL@?$AAa?$AAz?$AA?$AA@ 00000001800560e0     libcpmt:winapinls.obj
 0002:000040e8       ??_C@_15EKOFJABL@?$AAe?$AAu?$AA?$AA@ 00000001800560e8     libcpmt:winapinls.obj
 0002:000040f0       ??_C@_15BGHADCNK@?$AAm?$AAk?$AA?$AA@ 00000001800560f0     libcpmt:winapinls.obj
 0002:000040f8       ??_C@_15JDNICKHM@?$AAa?$AAf?$AA?$AA@ 00000001800560f8     libcpmt:winapinls.obj
 0002:00004100       ??_C@_15KPJEDBKD@?$AAk?$AAa?$AA?$AA@ 0000000180056100     libcpmt:winapinls.obj
 0002:00004108       ??_C@_15PDNFFFEO@?$AAf?$AAo?$AA?$AA@ 0000000180056108     libcpmt:winapinls.obj
 0002:00004110       ??_C@_15OMLEGLOC@?$AAh?$AAi?$AA?$AA@ 0000000180056110     libcpmt:winapinls.obj
 0002:00004118       ??_C@_15IDNNENKK@?$AAm?$AAs?$AA?$AA@ 0000000180056118     libcpmt:winapinls.obj
 0002:00004120       ??_C@_15MACJNBMH@?$AAk?$AAk?$AA?$AA@ 0000000180056120     libcpmt:winapinls.obj
 0002:00004128       ??_C@_15DKDJEOND@?$AAk?$AAy?$AA?$AA@ 0000000180056128     libcpmt:winapinls.obj
 0002:00004130       ??_C@_15DFGDLJBG@?$AAs?$AAw?$AA?$AA@ 0000000180056130     libcpmt:winapinls.obj
 0002:00004138       ??_C@_15BBFAICNG@?$AAu?$AAz?$AA?$AA@ 0000000180056138     libcpmt:winapinls.obj
 0002:00004140       ??_C@_15DKNDCGEA@?$AAt?$AAt?$AA?$AA@ 0000000180056140     libcpmt:winapinls.obj
 0002:00004148       ??_C@_15MGIFMDPL@?$AAp?$AAa?$AA?$AA@ 0000000180056148     libcpmt:winapinls.obj
 0002:00004150       ??_C@_15HCNDBBA@?$AAg?$AAu?$AA?$AA@ 0000000180056150     libcpmt:winapinls.obj
 0002:00004158       ??_C@_15FNBEIBON@?$AAt?$AAa?$AA?$AA@ 0000000180056158     libcpmt:winapinls.obj
 0002:00004160       ??_C@_15NCHGBGLK@?$AAt?$AAe?$AA?$AA@ 0000000180056160     libcpmt:winapinls.obj
 0002:00004168       ??_C@_15PHPHCBPF@?$AAk?$AAn?$AA?$AA@ 0000000180056168     libcpmt:winapinls.obj
 0002:00004170       ??_C@_15DLGBCKMP@?$AAm?$AAr?$AA?$AA@ 0000000180056170     libcpmt:winapinls.obj
 0002:00004178       ??_C@_15EABBLBFF@?$AAs?$AAa?$AA?$AA@ 0000000180056178     libcpmt:winapinls.obj
 0002:00004180       ??_C@_15CBKOMCOI@?$AAm?$AAn?$AA?$AA@ 0000000180056180     libcpmt:winapinls.obj
 0002:00004188       ??_C@_15CKDMCJAF@?$AAg?$AAl?$AA?$AA@ 0000000180056188     libcpmt:winapinls.obj
 0002:00004190       ??_C@_17CNJFBPG@?$AAk?$AAo?$AAk?$AA?$AA@ 0000000180056190     libcpmt:winapinls.obj
 0002:00004198       ??_C@_17FFBJICPL@?$AAs?$AAy?$AAr?$AA?$AA@ 0000000180056198     libcpmt:winapinls.obj
 0002:000041a0       ??_C@_17KPNDCPAF@?$AAd?$AAi?$AAv?$AA?$AA@ 00000001800561a0     libcpmt:winapinls.obj
 0002:000041a8       ??_C@_1M@OKAHONE@?$AAa?$AAr?$AA?9?$AAS?$AAA?$AA?$AA@ 00000001800561a8     libcpmt:winapinls.obj
 0002:000041b8       ??_C@_1M@FFFIGIGK@?$AAb?$AAg?$AA?9?$AAB?$AAG?$AA?$AA@ 00000001800561b8     libcpmt:winapinls.obj
 0002:000041c8       ??_C@_1M@BJNKEDC@?$AAc?$AAa?$AA?9?$AAE?$AAS?$AA?$AA@ 00000001800561c8     libcpmt:winapinls.obj
 0002:000041d8       ??_C@_1M@CLNBBOPM@?$AAz?$AAh?$AA?9?$AAT?$AAW?$AA?$AA@ 00000001800561d8     libcpmt:winapinls.obj
 0002:000041e8       ??_C@_1M@IJJHFJHA@?$AAc?$AAs?$AA?9?$AAC?$AAZ?$AA?$AA@ 00000001800561e8     libcpmt:winapinls.obj
 0002:000041f8       ??_C@_1M@CLPEOBGI@?$AAd?$AAa?$AA?9?$AAD?$AAK?$AA?$AA@ 00000001800561f8     libcpmt:winapinls.obj
 0002:00004208       ??_C@_1M@MCMADGCB@?$AAd?$AAe?$AA?9?$AAD?$AAE?$AA?$AA@ 0000000180056208     libcpmt:winapinls.obj
 0002:00004218       ??_C@_1M@OOCKEMAM@?$AAe?$AAl?$AA?9?$AAG?$AAR?$AA?$AA@ 0000000180056218     libcpmt:winapinls.obj
 0002:00004228       ??_C@_1M@BMHNFIME@?$AAe?$AAn?$AA?9?$AAU?$AAS?$AA?$AA@ 0000000180056228     libcpmt:winapinls.obj
 0002:00004238       ??_C@_1M@DDNJFGID@?$AAf?$AAi?$AA?9?$AAF?$AAI?$AA?$AA@ 0000000180056238     libcpmt:winapinls.obj
 0002:00004248       ??_C@_1M@GLIPPMAC@?$AAf?$AAr?$AA?9?$AAF?$AAR?$AA?$AA@ 0000000180056248     libcpmt:winapinls.obj
 0002:00004258       ??_C@_1M@GFMCHPE@?$AAh?$AAe?$AA?9?$AAI?$AAL?$AA?$AA@ 0000000180056258     libcpmt:winapinls.obj
 0002:00004268       ??_C@_1M@MHLPGNKM@?$AAh?$AAu?$AA?9?$AAH?$AAU?$AA?$AA@ 0000000180056268     libcpmt:winapinls.obj
 0002:00004278       ??_C@_1M@LPDDNNPN@?$AAi?$AAs?$AA?9?$AAI?$AAS?$AA?$AA@ 0000000180056278     libcpmt:winapinls.obj
 0002:00004288       ??_C@_1M@MADIPODN@?$AAi?$AAt?$AA?9?$AAI?$AAT?$AA?$AA@ 0000000180056288     libcpmt:winapinls.obj
 0002:00004298       ??_C@_1M@HPNHIDJI@?$AAj?$AAa?$AA?9?$AAJ?$AAP?$AA?$AA@ 0000000180056298     libcpmt:winapinls.obj
 0002:000042a8       ??_C@_1M@JLOOOEGK@?$AAk?$AAo?$AA?9?$AAK?$AAR?$AA?$AA@ 00000001800562a8     libcpmt:winapinls.obj
 0002:000042b8       ??_C@_1M@IHBJJGG@?$AAn?$AAl?$AA?9?$AAN?$AAL?$AA?$AA@ 00000001800562b8     libcpmt:winapinls.obj
 0002:000042c8       ??_C@_1M@EANAGDL@?$AAn?$AAb?$AA?9?$AAN?$AAO?$AA?$AA@ 00000001800562c8     libcpmt:winapinls.obj
 0002:000042d8       ??_C@_1M@NEIEMEGP@?$AAp?$AAl?$AA?9?$AAP?$AAL?$AA?$AA@ 00000001800562d8     libcpmt:winapinls.obj
 0002:000042e8       ??_C@_1M@BOCFIGEP@?$AAp?$AAt?$AA?9?$AAB?$AAR?$AA?$AA@ 00000001800562e8     libcpmt:winapinls.obj
 0002:000042f8       ??_C@_1M@IMPFOPBG@?$AAr?$AAo?$AA?9?$AAR?$AAO?$AA?$AA@ 00000001800562f8     libcpmt:winapinls.obj
 0002:00004308       ??_C@_1M@IDNNEJMM@?$AAr?$AAu?$AA?9?$AAR?$AAU?$AA?$AA@ 0000000180056308     libcpmt:winapinls.obj
 0002:00004318       ??_C@_1M@LILEEOGM@?$AAh?$AAr?$AA?9?$AAH?$AAR?$AA?$AA@ 0000000180056318     libcpmt:winapinls.obj
 0002:00004328       ??_C@_1M@FKIFEHPB@?$AAs?$AAk?$AA?9?$AAS?$AAK?$AA?$AA@ 0000000180056328     libcpmt:winapinls.obj
 0002:00004338       ??_C@_1M@LJMAMNPJ@?$AAs?$AAq?$AA?9?$AAA?$AAL?$AA?$AA@ 0000000180056338     libcpmt:winapinls.obj
 0002:00004348       ??_C@_1M@GIAKDKJK@?$AAs?$AAv?$AA?9?$AAS?$AAE?$AA?$AA@ 0000000180056348     libcpmt:winapinls.obj
 0002:00004358       ??_C@_1M@MKJKIKCL@?$AAt?$AAh?$AA?9?$AAT?$AAH?$AA?$AA@ 0000000180056358     libcpmt:winapinls.obj
 0002:00004368       ??_C@_1M@MFLCCMPB@?$AAt?$AAr?$AA?9?$AAT?$AAR?$AA?$AA@ 0000000180056368     libcpmt:winapinls.obj
 0002:00004378       ??_C@_1M@OIJHDKJN@?$AAu?$AAr?$AA?9?$AAP?$AAK?$AA?$AA@ 0000000180056378     libcpmt:winapinls.obj
 0002:00004388       ??_C@_1M@LHIPCIEK@?$AAi?$AAd?$AA?9?$AAI?$AAD?$AA?$AA@ 0000000180056388     libcpmt:winapinls.obj
 0002:00004398       ??_C@_1M@MFMOBGI@?$AAu?$AAk?$AA?9?$AAU?$AAA?$AA?$AA@ 0000000180056398     libcpmt:winapinls.obj
 0002:000043a8       ??_C@_1M@OBGLJIPL@?$AAb?$AAe?$AA?9?$AAB?$AAY?$AA?$AA@ 00000001800563a8     libcpmt:winapinls.obj
 0002:000043b8       ??_C@_1M@BCFAJEAD@?$AAs?$AAl?$AA?9?$AAS?$AAI?$AA?$AA@ 00000001800563b8     libcpmt:winapinls.obj
 0002:000043c8       ??_C@_1M@FKFFEDDN@?$AAe?$AAt?$AA?9?$AAE?$AAE?$AA?$AA@ 00000001800563c8     libcpmt:winapinls.obj
 0002:000043d8       ??_C@_1M@KGKKAACI@?$AAl?$AAv?$AA?9?$AAL?$AAV?$AA?$AA@ 00000001800563d8     libcpmt:winapinls.obj
 0002:000043e8       ??_C@_1M@IFGBIJO@?$AAl?$AAt?$AA?9?$AAL?$AAT?$AA?$AA@ 00000001800563e8     libcpmt:winapinls.obj
 0002:000043f8       ??_C@_1M@FGEAHEDM@?$AAf?$AAa?$AA?9?$AAI?$AAR?$AA?$AA@ 00000001800563f8     libcpmt:winapinls.obj
 0002:00004408       ??_C@_1M@KBMAIBFN@?$AAv?$AAi?$AA?9?$AAV?$AAN?$AA?$AA@ 0000000180056408     libcpmt:winapinls.obj
 0002:00004418       ??_C@_1M@GPCBKDJK@?$AAh?$AAy?$AA?9?$AAA?$AAM?$AA?$AA@ 0000000180056418     libcpmt:winapinls.obj
 0002:00004428       ??_C@_1BG@BECMDDJB@?$AAa?$AAz?$AA?9?$AAA?$AAZ?$AA?9?$AAL?$AAa?$AAt?$AAn?$AA?$AA@ 0000000180056428     libcpmt:winapinls.obj
 0002:00004440       ??_C@_1M@MAOFCAEA@?$AAe?$AAu?$AA?9?$AAE?$AAS?$AA?$AA@ 0000000180056440     libcpmt:winapinls.obj
 0002:00004450       ??_C@_1M@IGHABKPI@?$AAm?$AAk?$AA?9?$AAM?$AAK?$AA?$AA@ 0000000180056450     libcpmt:winapinls.obj
 0002:00004460       ??_C@_1M@IAIGNEJG@?$AAt?$AAn?$AA?9?$AAZ?$AAA?$AA?$AA@ 0000000180056460     libcpmt:winapinls.obj
 0002:00004470       ??_C@_1M@IIJCOJFA@?$AAx?$AAh?$AA?9?$AAZ?$AAA?$AA?$AA@ 0000000180056470     libcpmt:winapinls.obj
 0002:00004480       ??_C@_1M@LGPJHNJH@?$AAz?$AAu?$AA?9?$AAZ?$AAA?$AA?$AA@ 0000000180056480     libcpmt:winapinls.obj
 0002:00004490       ??_C@_1M@HOKAOIO@?$AAa?$AAf?$AA?9?$AAZ?$AAA?$AA?$AA@ 0000000180056490     libcpmt:winapinls.obj
 0002:000044a0       ??_C@_1M@DPCLHLIE@?$AAk?$AAa?$AA?9?$AAG?$AAE?$AA?$AA@ 00000001800564a0     libcpmt:winapinls.obj
 0002:000044b0       ??_C@_1M@BLKMHJBI@?$AAf?$AAo?$AA?9?$AAF?$AAO?$AA?$AA@ 00000001800564b0     libcpmt:winapinls.obj
 0002:000044c0       ??_C@_1M@LGGJAPPB@?$AAh?$AAi?$AA?9?$AAI?$AAN?$AA?$AA@ 00000001800564c0     libcpmt:winapinls.obj
 0002:000044d0       ??_C@_1M@FIKPIHFE@?$AAm?$AAt?$AA?9?$AAM?$AAT?$AA?$AA@ 00000001800564d0     libcpmt:winapinls.obj
 0002:000044e0       ??_C@_1M@HEGGPBFA@?$AAs?$AAe?$AA?9?$AAN?$AAO?$AA?$AA@ 00000001800564e0     libcpmt:winapinls.obj
 0002:000044f0       ??_C@_1M@EIBJEEPA@?$AAm?$AAs?$AA?9?$AAM?$AAY?$AA?$AA@ 00000001800564f0     libcpmt:winapinls.obj
 0002:00004500       ??_C@_1M@FHLBGMPP@?$AAk?$AAk?$AA?9?$AAK?$AAZ?$AA?$AA@ 0000000180056500     libcpmt:winapinls.obj
 0002:00004510       ??_C@_1M@NGJJLCGI@?$AAk?$AAy?$AA?9?$AAK?$AAG?$AA?$AA@ 0000000180056510     libcpmt:winapinls.obj
 0002:00004520       ??_C@_1M@GIENNBFC@?$AAs?$AAw?$AA?9?$AAK?$AAE?$AA?$AA@ 0000000180056520     libcpmt:winapinls.obj
 0002:00004530       ??_C@_1BG@NDGMJIMJ@?$AAu?$AAz?$AA?9?$AAU?$AAZ?$AA?9?$AAL?$AAa?$AAt?$AAn?$AA?$AA@ 0000000180056530     libcpmt:winapinls.obj
 0002:00004548       ??_C@_1M@IDCCIHBC@?$AAt?$AAt?$AA?9?$AAR?$AAU?$AA?$AA@ 0000000180056548     libcpmt:winapinls.obj
 0002:00004558       ??_C@_1M@LOICPMOJ@?$AAb?$AAn?$AA?9?$AAI?$AAN?$AA?$AA@ 0000000180056558     libcpmt:winapinls.obj
 0002:00004568       ??_C@_1M@KPKKNEAH@?$AAp?$AAa?$AA?9?$AAI?$AAN?$AA?$AA@ 0000000180056568     libcpmt:winapinls.obj
 0002:00004578       ??_C@_1M@PJGPPBOG@?$AAg?$AAu?$AA?9?$AAI?$AAN?$AA?$AA@ 0000000180056578     libcpmt:winapinls.obj
 0002:00004588       ??_C@_1M@KMKMOPHI@?$AAt?$AAa?$AA?9?$AAI?$AAN?$AA?$AA@ 0000000180056588     libcpmt:winapinls.obj
 0002:00004598       ??_C@_1M@KFEHEPAC@?$AAt?$AAe?$AA?9?$AAI?$AAN?$AA?$AA@ 0000000180056598     libcpmt:winapinls.obj
 0002:000045a8       ??_C@_1M@CDCLMGHI@?$AAk?$AAn?$AA?9?$AAI?$AAN?$AA?$AA@ 00000001800565a8     libcpmt:winapinls.obj
 0002:000045b8       ??_C@_1M@MIODLDKF@?$AAm?$AAl?$AA?9?$AAI?$AAN?$AA?$AA@ 00000001800565b8     libcpmt:winapinls.obj
 0002:000045c8       ??_C@_1M@PBIEACPO@?$AAm?$AAr?$AA?9?$AAI?$AAN?$AA?$AA@ 00000001800565c8     libcpmt:winapinls.obj
 0002:000045d8       ??_C@_1M@NIDEAGPH@?$AAs?$AAa?$AA?9?$AAI?$AAN?$AA?$AA@ 00000001800565d8     libcpmt:winapinls.obj
 0002:000045e8       ??_C@_1M@FHIHCBIO@?$AAm?$AAn?$AA?9?$AAM?$AAN?$AA?$AA@ 00000001800565e8     libcpmt:winapinls.obj
 0002:000045f8       ??_C@_1M@JAIJPENP@?$AAc?$AAy?$AA?9?$AAG?$AAB?$AA?$AA@ 00000001800565f8     libcpmt:winapinls.obj
 0002:00004608       ??_C@_1M@PHGFBEPN@?$AAg?$AAl?$AA?9?$AAE?$AAS?$AA?$AA@ 0000000180056608     libcpmt:winapinls.obj
 0002:00004618       ??_C@_1O@KPIPDNCP@?$AAk?$AAo?$AAk?$AA?9?$AAI?$AAN?$AA?$AA@ 0000000180056618     libcpmt:winapinls.obj
 0002:00004628       ??_C@_1O@KNHJLDJA@?$AAs?$AAy?$AAr?$AA?9?$AAS?$AAY?$AA?$AA@ 0000000180056628     libcpmt:winapinls.obj
 0002:00004638       ??_C@_1O@MKEKBLAH@?$AAd?$AAi?$AAv?$AA?9?$AAM?$AAV?$AA?$AA@ 0000000180056638     libcpmt:winapinls.obj
 0002:00004648       ??_C@_1O@OHDCKDDF@?$AAq?$AAu?$AAz?$AA?9?$AAB?$AAO?$AA?$AA@ 0000000180056648     libcpmt:winapinls.obj
 0002:00004658       ??_C@_1M@LEPJNLFD@?$AAn?$AAs?$AA?9?$AAZ?$AAA?$AA?$AA@ 0000000180056658     libcpmt:winapinls.obj
 0002:00004668       ??_C@_1M@OMLEIIJB@?$AAm?$AAi?$AA?9?$AAN?$AAZ?$AA?$AA@ 0000000180056668     libcpmt:winapinls.obj
 0002:00004678       ??_C@_1M@PMPEAILG@?$AAa?$AAr?$AA?9?$AAI?$AAQ?$AA?$AA@ 0000000180056678     libcpmt:winapinls.obj
 0002:00004688       ??_C@_1M@BIBDDEMK@?$AAz?$AAh?$AA?9?$AAC?$AAN?$AA?$AA@ 0000000180056688     libcpmt:winapinls.obj
 0002:00004698       ??_C@_1M@CNKPNOEE@?$AAd?$AAe?$AA?9?$AAC?$AAH?$AA?$AA@ 0000000180056698     libcpmt:winapinls.obj
 0002:000046a8       ??_C@_1M@LKMGMLKO@?$AAe?$AAn?$AA?9?$AAG?$AAB?$AA?$AA@ 00000001800566a8     libcpmt:winapinls.obj
 0002:000046b8       ??_C@_1M@PGKJFFGL@?$AAe?$AAs?$AA?9?$AAM?$AAX?$AA?$AA@ 00000001800566b8     libcpmt:winapinls.obj
 0002:000046c8       ??_C@_1M@DNNANBDC@?$AAf?$AAr?$AA?9?$AAB?$AAE?$AA?$AA@ 00000001800566c8     libcpmt:winapinls.obj
 0002:000046d8       ??_C@_1M@HLGMDFHM@?$AAi?$AAt?$AA?9?$AAC?$AAH?$AA?$AA@ 00000001800566d8     libcpmt:winapinls.obj
 0002:000046e8       ??_C@_1M@CLLBGJH@?$AAn?$AAl?$AA?9?$AAB?$AAE?$AA?$AA@ 00000001800566e8     libcpmt:winapinls.obj
 0002:000046f8       ??_C@_1M@BODBOGLF@?$AAn?$AAn?$AA?9?$AAN?$AAO?$AA?$AA@ 00000001800566f8     libcpmt:winapinls.obj
 0002:00004708       ??_C@_1M@HFFAHKAD@?$AAp?$AAt?$AA?9?$AAP?$AAT?$AA?$AA@ 0000000180056708     libcpmt:winapinls.obj
 0002:00004718       ??_C@_1BG@LNOAKHIE@?$AAs?$AAr?$AA?9?$AAS?$AAP?$AA?9?$AAL?$AAa?$AAt?$AAn?$AA?$AA@ 0000000180056718     libcpmt:winapinls.obj
 0002:00004730       ??_C@_1M@HBMHBGAK@?$AAs?$AAv?$AA?9?$AAF?$AAI?$AA?$AA@ 0000000180056730     libcpmt:winapinls.obj
 0002:00004740       ??_C@_1BG@DGCJGJBE@?$AAa?$AAz?$AA?9?$AAA?$AAZ?$AA?9?$AAC?$AAy?$AAr?$AAl?$AA?$AA@ 0000000180056740     libcpmt:winapinls.obj
 0002:00004758       ??_C@_1M@KEJDAAHB@?$AAs?$AAe?$AA?9?$AAS?$AAE?$AA?$AA@ 0000000180056758     libcpmt:winapinls.obj
 0002:00004768       ??_C@_1M@HEIBJJAD@?$AAm?$AAs?$AA?9?$AAB?$AAN?$AA?$AA@ 0000000180056768     libcpmt:winapinls.obj
 0002:00004778       ??_C@_1BG@PBGJMCEM@?$AAu?$AAz?$AA?9?$AAU?$AAZ?$AA?9?$AAC?$AAy?$AAr?$AAl?$AA?$AA@ 0000000180056778     libcpmt:winapinls.obj
 0002:00004790       ??_C@_1O@LAOBCMDF@?$AAq?$AAu?$AAz?$AA?9?$AAE?$AAC?$AA?$AA@ 0000000180056790     libcpmt:winapinls.obj
 0002:000047a0       ??_C@_1M@POEEMAIO@?$AAa?$AAr?$AA?9?$AAE?$AAG?$AA?$AA@ 00000001800567a0     libcpmt:winapinls.obj
 0002:000047b0       ??_C@_1M@EFAKDEDL@?$AAz?$AAh?$AA?9?$AAH?$AAK?$AA?$AA@ 00000001800567b0     libcpmt:winapinls.obj
 0002:000047c0       ??_C@_1M@HKKIJHGI@?$AAd?$AAe?$AA?9?$AAA?$AAT?$AA?$AA@ 00000001800567c0     libcpmt:winapinls.obj
 0002:000047d0       ??_C@_1M@KBFBEHJF@?$AAe?$AAn?$AA?9?$AAA?$AAU?$AA?$AA@ 00000001800567d0     libcpmt:winapinls.obj
 0002:000047e0       ??_C@_1M@MNPLFAAH@?$AAe?$AAs?$AA?9?$AAE?$AAS?$AA?$AA@ 00000001800567e0     libcpmt:winapinls.obj
 0002:000047f0       ??_C@_1M@HJOOJFMA@?$AAf?$AAr?$AA?9?$AAC?$AAA?$AA?$AA@ 00000001800567f0     libcpmt:winapinls.obj
 0002:00004800       ??_C@_1BG@JPOFPNAB@?$AAs?$AAr?$AA?9?$AAS?$AAP?$AA?9?$AAC?$AAy?$AAr?$AAl?$AA?$AA@ 0000000180056800     libcpmt:winapinls.obj
 0002:00004818       ??_C@_1M@LNFOCMOB@?$AAs?$AAe?$AA?9?$AAF?$AAI?$AA?$AA@ 0000000180056818     libcpmt:winapinls.obj
 0002:00004828       ??_C@_1O@MGJBOAMB@?$AAq?$AAu?$AAz?$AA?9?$AAP?$AAE?$AA?$AA@ 0000000180056828     libcpmt:winapinls.obj
 0002:00004838       ??_C@_1M@GJINLBOK@?$AAa?$AAr?$AA?9?$AAL?$AAY?$AA?$AA@ 0000000180056838     libcpmt:winapinls.obj
 0002:00004848       ??_C@_1M@GGMNHJNL@?$AAz?$AAh?$AA?9?$AAS?$AAG?$AA?$AA@ 0000000180056848     libcpmt:winapinls.obj
 0002:00004858       ??_C@_1M@HOIKODND@?$AAd?$AAe?$AA?9?$AAL?$AAU?$AA?$AA@ 0000000180056858     libcpmt:winapinls.obj
 0002:00004868       ??_C@_1M@DDOCCGFG@?$AAe?$AAn?$AA?9?$AAC?$AAA?$AA?$AA@ 0000000180056868     libcpmt:winapinls.obj
 0002:00004878       ??_C@_1M@BNOEMJLF@?$AAe?$AAs?$AA?9?$AAG?$AAT?$AA?$AA@ 0000000180056878     libcpmt:winapinls.obj
 0002:00004888       ??_C@_1M@EOGNKEK@?$AAf?$AAr?$AA?9?$AAC?$AAH?$AA?$AA@ 0000000180056888     libcpmt:winapinls.obj
 0002:00004898       ??_C@_1M@FLIDJFHL@?$AAh?$AAr?$AA?9?$AAB?$AAA?$AA?$AA@ 0000000180056898     libcpmt:winapinls.obj
 0002:000048a8       ??_C@_1O@FMCELNAJ@?$AAs?$AAm?$AAj?$AA?9?$AAN?$AAO?$AA?$AA@ 00000001800568a8     libcpmt:winapinls.obj
 0002:000048b8       ??_C@_1M@JHGLJMGJ@?$AAa?$AAr?$AA?9?$AAD?$AAZ?$AA?$AA@ 00000001800568b8     libcpmt:winapinls.obj
 0002:000048c8       ??_C@_1M@JKKFDCNP@?$AAz?$AAh?$AA?9?$AAM?$AAO?$AA?$AA@ 00000001800568c8     libcpmt:winapinls.obj
 0002:000048d8       ??_C@_1M@GEEFALPE@?$AAd?$AAe?$AA?9?$AAL?$AAI?$AA?$AA@ 00000001800568d8     libcpmt:winapinls.obj
 0002:000048e8       ??_C@_1M@IGEOFBG@?$AAe?$AAn?$AA?9?$AAN?$AAZ?$AA?$AA@ 00000001800568e8     libcpmt:winapinls.obj
 0002:000048f8       ??_C@_1M@KDBONEHP@?$AAe?$AAs?$AA?9?$AAC?$AAR?$AA?$AA@ 00000001800568f8     libcpmt:winapinls.obj
 0002:00004908       ??_C@_1M@FHMDOHNN@?$AAf?$AAr?$AA?9?$AAL?$AAU?$AA?$AA@ 0000000180056908     libcpmt:winapinls.obj
 0002:00004918       ??_C@_1BG@NFKKMAFG@?$AAb?$AAs?$AA?9?$AAB?$AAA?$AA?9?$AAL?$AAa?$AAt?$AAn?$AA?$AA@ 0000000180056918     libcpmt:winapinls.obj
 0002:00004930       ??_C@_1O@IMNBEMCI@?$AAs?$AAm?$AAj?$AA?9?$AAS?$AAE?$AA?$AA@ 0000000180056930     libcpmt:winapinls.obj
 0002:00004940       ??_C@_1M@DHHMBNDP@?$AAa?$AAr?$AA?9?$AAM?$AAA?$AA?$AA@ 0000000180056940     libcpmt:winapinls.obj
 0002:00004950       ??_C@_1M@BNBLJCGH@?$AAe?$AAn?$AA?9?$AAI?$AAE?$AA?$AA@ 0000000180056950     libcpmt:winapinls.obj
 0002:00004960       ??_C@_1M@GEPAFMDL@?$AAe?$AAs?$AA?9?$AAP?$AAA?$AA?$AA@ 0000000180056960     libcpmt:winapinls.obj
 0002:00004970       ??_C@_1M@OJONDMDL@?$AAf?$AAr?$AA?9?$AAM?$AAC?$AA?$AA@ 0000000180056970     libcpmt:winapinls.obj
 0002:00004980       ??_C@_1BG@OBCNFJB@?$AAs?$AAr?$AA?9?$AAB?$AAA?$AA?9?$AAL?$AAa?$AAt?$AAn?$AA?$AA@ 0000000180056980     libcpmt:winapinls.obj
 0002:00004998       ??_C@_1O@KEMEEGPO@?$AAs?$AAm?$AAa?$AA?9?$AAN?$AAO?$AA?$AA@ 0000000180056998     libcpmt:winapinls.obj
 0002:000049a8       ??_C@_1M@ELMGFODK@?$AAa?$AAr?$AA?9?$AAT?$AAN?$AA?$AA@ 00000001800569a8     libcpmt:winapinls.obj
 0002:000049b8       ??_C@_1M@BHDLHFAF@?$AAe?$AAn?$AA?9?$AAZ?$AAA?$AA?$AA@ 00000001800569b8     libcpmt:winapinls.obj
 0002:000049c8       ??_C@_1M@BMGIGLIF@?$AAe?$AAs?$AA?9?$AAD?$AAO?$AA?$AA@ 00000001800569c8     libcpmt:winapinls.obj
 0002:000049d8       ??_C@_1BG@CMBHIPBE@?$AAs?$AAr?$AA?9?$AAB?$AAA?$AA?9?$AAC?$AAy?$AAr?$AAl?$AA?$AA@ 00000001800569d8     libcpmt:winapinls.obj
 0002:000049f0       ??_C@_1O@HEDBLHNP@?$AAs?$AAm?$AAa?$AA?9?$AAS?$AAE?$AA?$AA@ 00000001800569f0     libcpmt:winapinls.obj
 0002:00004a00       ??_C@_1M@DAGCADIM@?$AAa?$AAr?$AA?9?$AAO?$AAM?$AA?$AA@ 0000000180056a00     libcpmt:winapinls.obj
 0002:00004a10       ??_C@_1M@FODLMICG@?$AAe?$AAn?$AA?9?$AAJ?$AAM?$AA?$AA@ 0000000180056a10     libcpmt:winapinls.obj
 0002:00004a20       ??_C@_1M@DNMLCIHB@?$AAe?$AAs?$AA?9?$AAV?$AAE?$AA?$AA@ 0000000180056a20     libcpmt:winapinls.obj
 0002:00004a30       ??_C@_1O@EOKHMKJK@?$AAs?$AAm?$AAs?$AA?9?$AAF?$AAI?$AA?$AA@ 0000000180056a30     libcpmt:winapinls.obj
 0002:00004a40       ??_C@_1M@CAFJMKOF@?$AAa?$AAr?$AA?9?$AAY?$AAE?$AA?$AA@ 0000000180056a40     libcpmt:winapinls.obj
 0002:00004a50       ??_C@_1M@CBFHIJLI@?$AAe?$AAn?$AA?9?$AAC?$AAB?$AA?$AA@ 0000000180056a50     libcpmt:winapinls.obj
 0002:00004a60       ??_C@_1M@BGNFLDN@?$AAe?$AAs?$AA?9?$AAC?$AAO?$AA?$AA@ 0000000180056a60     libcpmt:winapinls.obj
 0002:00004a70       ??_C@_1O@JMPHMAMC@?$AAs?$AAm?$AAn?$AA?9?$AAF?$AAI?$AA?$AA@ 0000000180056a70     libcpmt:winapinls.obj
 0002:00004a80       ??_C@_1M@JLANABKE@?$AAa?$AAr?$AA?9?$AAS?$AAY?$AA?$AA@ 0000000180056a80     libcpmt:winapinls.obj
 0002:00004a90       ??_C@_1M@HPKGCFGN@?$AAe?$AAn?$AA?9?$AAB?$AAZ?$AA?$AA@ 0000000180056a90     libcpmt:winapinls.obj
 0002:00004aa0       ??_C@_1M@OLJCMLGM@?$AAe?$AAs?$AA?9?$AAP?$AAE?$AA?$AA@ 0000000180056aa0     libcpmt:winapinls.obj
 0002:00004ab0       ??_C@_1M@MKKGFKLE@?$AAa?$AAr?$AA?9?$AAJ?$AAO?$AA?$AA@ 0000000180056ab0     libcpmt:winapinls.obj
 0002:00004ac0       ??_C@_1M@EKPGLDNI@?$AAe?$AAn?$AA?9?$AAT?$AAT?$AA?$AA@ 0000000180056ac0     libcpmt:winapinls.obj
 0002:00004ad0       ??_C@_1M@OONGHFHE@?$AAe?$AAs?$AA?9?$AAA?$AAR?$AA?$AA@ 0000000180056ad0     libcpmt:winapinls.obj
 0002:00004ae0       ??_C@_1M@OOJFGBHE@?$AAa?$AAr?$AA?9?$AAL?$AAB?$AA?$AA@ 0000000180056ae0     libcpmt:winapinls.obj
 0002:00004af0       ??_C@_1M@GCEJHNEG@?$AAe?$AAn?$AA?9?$AAZ?$AAW?$AA?$AA@ 0000000180056af0     libcpmt:winapinls.obj
 0002:00004b00       ??_C@_1M@JNOCAHJI@?$AAe?$AAs?$AA?9?$AAE?$AAC?$AA?$AA@ 0000000180056b00     libcpmt:winapinls.obj
 0002:00004b10       ??_C@_1M@JEFHPGGB@?$AAa?$AAr?$AA?9?$AAK?$AAW?$AA?$AA@ 0000000180056b10     libcpmt:winapinls.obj
 0002:00004b20       ??_C@_1M@MLKIBJOJ@?$AAe?$AAn?$AA?9?$AAP?$AAH?$AA?$AA@ 0000000180056b20     libcpmt:winapinls.obj
 0002:00004b30       ??_C@_1M@BDNIPEND@?$AAe?$AAs?$AA?9?$AAC?$AAL?$AA?$AA@ 0000000180056b30     libcpmt:winapinls.obj
 0002:00004b40       ??_C@_1M@MPNMEKBD@?$AAa?$AAr?$AA?9?$AAA?$AAE?$AA?$AA@ 0000000180056b40     libcpmt:winapinls.obj
 0002:00004b50       ??_C@_1M@KBJALCPI@?$AAe?$AAs?$AA?9?$AAU?$AAY?$AA?$AA@ 0000000180056b50     libcpmt:winapinls.obj
 0002:00004b60       ??_C@_1M@LLCCOAGA@?$AAa?$AAr?$AA?9?$AAB?$AAH?$AA?$AA@ 0000000180056b60     libcpmt:winapinls.obj
 0002:00004b70       ??_C@_1M@PBFNCDEL@?$AAe?$AAs?$AA?9?$AAP?$AAY?$AA?$AA@ 0000000180056b70     libcpmt:winapinls.obj
 0002:00004b80       ??_C@_1M@EDGINPNP@?$AAa?$AAr?$AA?9?$AAQ?$AAA?$AA?$AA@ 0000000180056b80     libcpmt:winapinls.obj
 0002:00004b90       ??_C@_1M@MKDBIIJI@?$AAe?$AAs?$AA?9?$AAB?$AAO?$AA?$AA@ 0000000180056b90     libcpmt:winapinls.obj
 0002:00004ba0       ??_C@_1M@CPKKEBLD@?$AAe?$AAs?$AA?9?$AAS?$AAV?$AA?$AA@ 0000000180056ba0     libcpmt:winapinls.obj
 0002:00004bb0       ??_C@_1M@NDBGMMJL@?$AAe?$AAs?$AA?9?$AAH?$AAN?$AA?$AA@ 0000000180056bb0     libcpmt:winapinls.obj
 0002:00004bc0       ??_C@_1M@JIJIBHDP@?$AAe?$AAs?$AA?9?$AAN?$AAI?$AA?$AA@ 0000000180056bc0     libcpmt:winapinls.obj
 0002:00004bd0       ??_C@_1M@CGFMKEEK@?$AAe?$AAs?$AA?9?$AAP?$AAR?$AA?$AA@ 0000000180056bd0     libcpmt:winapinls.obj
 0002:00004be0       ??_C@_1O@ICJHKIIK@?$AAz?$AAh?$AA?9?$AAC?$AAH?$AAT?$AA?$AA@ 0000000180056be0     libcpmt:winapinls.obj
 0002:00004bf0       ??_C@_15CLNEJCE@?$AAs?$AAr?$AA?$AA@ 0000000180056bf0     libcpmt:winapinls.obj
 0002:00004bf8       ??_C@_1M@KAHEKEIG@?$AAa?$AAf?$AA?9?$AAz?$AAa?$AA?$AA@ 0000000180056bf8     libcpmt:winapinls.obj
 0002:00004c08       ??_C@_1M@GIECOABL@?$AAa?$AAr?$AA?9?$AAa?$AAe?$AA?$AA@ 0000000180056c08     libcpmt:winapinls.obj
 0002:00004c18       ??_C@_1M@BMLMEKGI@?$AAa?$AAr?$AA?9?$AAb?$AAh?$AA?$AA@ 0000000180056c18     libcpmt:winapinls.obj
 0002:00004c28       ??_C@_1M@DAPFDGGB@?$AAa?$AAr?$AA?9?$AAd?$AAz?$AA?$AA@ 0000000180056c28     libcpmt:winapinls.obj
 0002:00004c38       ??_C@_1M@FJNKGKIG@?$AAa?$AAr?$AA?9?$AAe?$AAg?$AA?$AA@ 0000000180056c38     libcpmt:winapinls.obj
 0002:00004c48       ??_C@_1M@FLGKKCLO@?$AAa?$AAr?$AA?9?$AAi?$AAq?$AA?$AA@ 0000000180056c48     libcpmt:winapinls.obj
 0002:00004c58       ??_C@_1M@GNDIPALM@?$AAa?$AAr?$AA?9?$AAj?$AAo?$AA?$AA@ 0000000180056c58     libcpmt:winapinls.obj
 0002:00004c68       ??_C@_1M@DDMJFMGJ@?$AAa?$AAr?$AA?9?$AAk?$AAw?$AA?$AA@ 0000000180056c68     libcpmt:winapinls.obj
 0002:00004c78       ??_C@_1M@EJALMLHM@?$AAa?$AAr?$AA?9?$AAl?$AAb?$AA?$AA@ 0000000180056c78     libcpmt:winapinls.obj
 0002:00004c88       ??_C@_1M@MOBDBLOC@?$AAa?$AAr?$AA?9?$AAl?$AAy?$AA?$AA@ 0000000180056c88     libcpmt:winapinls.obj
 0002:00004c98       ??_C@_1M@JAOCLHDH@?$AAa?$AAr?$AA?9?$AAm?$AAa?$AA?$AA@ 0000000180056c98     libcpmt:winapinls.obj
 0002:00004ca8       ??_C@_1M@JHPMKJIE@?$AAa?$AAr?$AA?9?$AAo?$AAm?$AA?$AA@ 0000000180056ca8     libcpmt:winapinls.obj
 0002:00004cb8       ??_C@_1M@OEPGHFNH@?$AAa?$AAr?$AA?9?$AAq?$AAa?$AA?$AA@ 0000000180056cb8     libcpmt:winapinls.obj
 0002:00004cc8       ??_C@_1M@KJDONENM@?$AAa?$AAr?$AA?9?$AAs?$AAa?$AA?$AA@ 0000000180056cc8     libcpmt:winapinls.obj
 0002:00004cd8       ??_C@_1M@DMJDKLKM@?$AAa?$AAr?$AA?9?$AAs?$AAy?$AA?$AA@ 0000000180056cd8     libcpmt:winapinls.obj
 0002:00004ce8       ??_C@_1M@OMFIPEDC@?$AAa?$AAr?$AA?9?$AAt?$AAn?$AA?$AA@ 0000000180056ce8     libcpmt:winapinls.obj
 0002:00004cf8       ??_C@_1M@IHMHGAON@?$AAa?$AAr?$AA?9?$AAy?$AAe?$AA?$AA@ 0000000180056cf8     libcpmt:winapinls.obj
 0002:00004d08       ??_C@_1BG@KDCPGJGB@?$AAa?$AAz?$AA?9?$AAa?$AAz?$AA?9?$AAc?$AAy?$AAr?$AAl?$AA?$AA@ 0000000180056d08     libcpmt:winapinls.obj
 0002:00004d20       ??_C@_1BG@IBCKDDOE@?$AAa?$AAz?$AA?9?$AAa?$AAz?$AA?9?$AAl?$AAa?$AAt?$AAn?$AA?$AA@ 0000000180056d20     libcpmt:winapinls.obj
 0002:00004d38       ??_C@_1M@EGPFDCPD@?$AAb?$AAe?$AA?9?$AAb?$AAy?$AA?$AA@ 0000000180056d38     libcpmt:winapinls.obj
 0002:00004d48       ??_C@_1M@PCMGMCGC@?$AAb?$AAg?$AA?9?$AAb?$AAg?$AA?$AA@ 0000000180056d48     libcpmt:winapinls.obj
 0002:00004d58       ??_C@_1M@BJBMFGOB@?$AAb?$AAn?$AA?9?$AAi?$AAn?$AA?$AA@ 0000000180056d58     libcpmt:winapinls.obj
 0002:00004d68       ??_C@_1BG@EAKMMACD@?$AAb?$AAs?$AA?9?$AAb?$AAa?$AA?9?$AAl?$AAa?$AAt?$AAn?$AA?$AA@ 0000000180056d68     libcpmt:winapinls.obj
 0002:00004d80       ??_C@_1M@KGADAODK@?$AAc?$AAa?$AA?9?$AAe?$AAs?$AA?$AA@ 0000000180056d80     libcpmt:winapinls.obj
 0002:00004d90       ??_C@_1M@COAJPDHI@?$AAc?$AAs?$AA?9?$AAc?$AAz?$AA?$AA@ 0000000180056d90     libcpmt:winapinls.obj
 0002:00004da0       ??_C@_1M@DHBHFONH@?$AAc?$AAy?$AA?9?$AAg?$AAb?$AA?$AA@ 0000000180056da0     libcpmt:winapinls.obj
 0002:00004db0       ??_C@_1M@IMGKELGA@?$AAd?$AAa?$AA?9?$AAd?$AAk?$AA?$AA@ 0000000180056db0     libcpmt:winapinls.obj
 0002:00004dc0       ??_C@_1M@NNDGDNGA@?$AAd?$AAe?$AA?9?$AAa?$AAt?$AA?$AA@ 0000000180056dc0     libcpmt:winapinls.obj
 0002:00004dd0       ??_C@_1M@IKDBHEEM@?$AAd?$AAe?$AA?9?$AAc?$AAh?$AA?$AA@ 0000000180056dd0     libcpmt:winapinls.obj
 0002:00004de0       ??_C@_1M@GFFOJMCJ@?$AAd?$AAe?$AA?9?$AAd?$AAe?$AA?$AA@ 0000000180056de0     libcpmt:winapinls.obj
 0002:00004df0       ??_C@_1M@MDNLKBPM@?$AAd?$AAe?$AA?9?$AAl?$AAi?$AA?$AA@ 0000000180056df0     libcpmt:winapinls.obj
 0002:00004e00       ??_C@_1M@NJBEEJNL@?$AAd?$AAe?$AA?9?$AAl?$AAu?$AA?$AA@ 0000000180056e00     libcpmt:winapinls.obj
 0002:00004e10       ??_C@_1O@GNNELBAP@?$AAd?$AAi?$AAv?$AA?9?$AAm?$AAv?$AA?$AA@ 0000000180056e10     libcpmt:winapinls.obj
 0002:00004e20       ??_C@_1M@EJLEOGAE@?$AAe?$AAl?$AA?9?$AAg?$AAr?$AA?$AA@ 0000000180056e20     libcpmt:winapinls.obj
 0002:00004e30       ??_C@_1M@GMPONJN@?$AAe?$AAn?$AA?9?$AAa?$AAu?$AA?$AA@ 0000000180056e30     libcpmt:winapinls.obj
 0002:00004e40       ??_C@_1M@NIDIIPGF@?$AAe?$AAn?$AA?9?$AAb?$AAz?$AA?$AA@ 0000000180056e40     libcpmt:winapinls.obj
 0002:00004e50       ??_C@_1M@JEHMIMFO@?$AAe?$AAn?$AA?9?$AAc?$AAa?$AA?$AA@ 0000000180056e50     libcpmt:winapinls.obj
 0002:00004e60       ??_C@_1M@IGMJCDLA@?$AAe?$AAn?$AA?9?$AAc?$AAb?$AA?$AA@ 0000000180056e60     libcpmt:winapinls.obj
 0002:00004e70       ??_C@_1M@BNFIGBKG@?$AAe?$AAn?$AA?9?$AAg?$AAb?$AA?$AA@ 0000000180056e70     libcpmt:winapinls.obj
 0002:00004e80       ??_C@_1M@LKIFDIGP@?$AAe?$AAn?$AA?9?$AAi?$AAe?$AA?$AA@ 0000000180056e80     libcpmt:winapinls.obj
 0002:00004e90       ??_C@_1M@PJKFGCCO@?$AAe?$AAn?$AA?9?$AAj?$AAm?$AA?$AA@ 0000000180056e90     libcpmt:winapinls.obj
 0002:00004ea0       ??_C@_1M@KPPKEPBO@?$AAe?$AAn?$AA?9?$AAn?$AAz?$AA?$AA@ 0000000180056ea0     libcpmt:winapinls.obj
 0002:00004eb0       ??_C@_1M@GMDGLDOB@?$AAe?$AAn?$AA?9?$AAp?$AAh?$AA?$AA@ 0000000180056eb0     libcpmt:winapinls.obj
 0002:00004ec0       ??_C@_1M@ONGIBJNA@?$AAe?$AAn?$AA?9?$AAt?$AAt?$AA?$AA@ 0000000180056ec0     libcpmt:winapinls.obj
 0002:00004ed0       ??_C@_1M@LLODPCMM@?$AAe?$AAn?$AA?9?$AAu?$AAs?$AA?$AA@ 0000000180056ed0     libcpmt:winapinls.obj
 0002:00004ee0       ??_C@_1M@LAKFNPAN@?$AAe?$AAn?$AA?9?$AAz?$AAa?$AA?$AA@ 0000000180056ee0     libcpmt:winapinls.obj
 0002:00004ef0       ??_C@_1M@MFNHNHEO@?$AAe?$AAn?$AA?9?$AAz?$AAw?$AA?$AA@ 0000000180056ef0     libcpmt:winapinls.obj
 0002:00004f00       ??_C@_1M@EJEINPHM@?$AAe?$AAs?$AA?9?$AAa?$AAr?$AA?$AA@ 0000000180056f00     libcpmt:winapinls.obj
 0002:00004f10       ??_C@_1M@GNKPCCJA@?$AAe?$AAs?$AA?9?$AAb?$AAo?$AA?$AA@ 0000000180056f10     libcpmt:winapinls.obj
 0002:00004f20       ??_C@_1M@LEEGFONL@?$AAe?$AAs?$AA?9?$AAc?$AAl?$AA?$AA@ 0000000180056f20     libcpmt:winapinls.obj
 0002:00004f30       ??_C@_1M@KGPDPBDF@?$AAe?$AAs?$AA?9?$AAc?$AAo?$AA?$AA@ 0000000180056f30     libcpmt:winapinls.obj
 0002:00004f40       ??_C@_1M@EIAHOHH@?$AAe?$AAs?$AA?9?$AAc?$AAr?$AA?$AA@ 0000000180056f40     libcpmt:winapinls.obj
 0002:00004f50       ??_C@_1M@LLPGMBIN@?$AAe?$AAs?$AA?9?$AAd?$AAo?$AA?$AA@ 0000000180056f50     libcpmt:winapinls.obj
 0002:00004f60       ??_C@_1M@DKHMKNJA@?$AAe?$AAs?$AA?9?$AAe?$AAc?$AA?$AA@ 0000000180056f60     libcpmt:winapinls.obj
 0002:00004f70       ??_C@_1M@GKGFPKAP@?$AAe?$AAs?$AA?9?$AAe?$AAs?$AA?$AA@ 0000000180056f70     libcpmt:winapinls.obj
 0002:00004f80       ??_C@_1M@LKHKGDLN@?$AAe?$AAs?$AA?9?$AAg?$AAt?$AA?$AA@ 0000000180056f80     libcpmt:winapinls.obj
 0002:00004f90       ??_C@_1M@HEIIGGJD@?$AAe?$AAs?$AA?9?$AAh?$AAn?$AA?$AA@ 0000000180056f90     libcpmt:winapinls.obj
 0002:00004fa0       ??_C@_1M@FBDHPPGD@?$AAe?$AAs?$AA?9?$AAm?$AAx?$AA?$AA@ 0000000180056fa0     libcpmt:winapinls.obj
 0002:00004fb0       ??_C@_1M@DPAGLNDH@?$AAe?$AAs?$AA?9?$AAn?$AAi?$AA?$AA@ 0000000180056fb0     libcpmt:winapinls.obj
 0002:00004fc0       ??_C@_1M@MDGOPGDD@?$AAe?$AAs?$AA?9?$AAp?$AAa?$AA?$AA@ 0000000180056fc0     libcpmt:winapinls.obj
 0002:00004fd0       ??_C@_1M@EMAMGBGE@?$AAe?$AAs?$AA?9?$AAp?$AAe?$AA?$AA@ 0000000180056fd0     libcpmt:winapinls.obj
 0002:00004fe0       ??_C@_1M@IBMCAOEC@?$AAe?$AAs?$AA?9?$AAp?$AAr?$AA?$AA@ 0000000180056fe0     libcpmt:winapinls.obj
 0002:00004ff0       ??_C@_1M@FGMDIJED@?$AAe?$AAs?$AA?9?$AAp?$AAy?$AA?$AA@ 0000000180056ff0     libcpmt:winapinls.obj
 0002:00005000       ??_C@_1M@IIDEOLLL@?$AAe?$AAs?$AA?9?$AAs?$AAv?$AA?$AA@ 0000000180057000     libcpmt:winapinls.obj
 0002:00005010       ??_C@_1M@GAOBIPA@?$AAe?$AAs?$AA?9?$AAu?$AAy?$AA?$AA@ 0000000180057010     libcpmt:winapinls.obj
 0002:00005020       ??_C@_1M@JKFFICHJ@?$AAe?$AAs?$AA?9?$AAv?$AAe?$AA?$AA@ 0000000180057020     libcpmt:winapinls.obj
 0002:00005038       ??_7type_info@@6B@         0000000180057038     LIBCMT:std_type_info_static.obj
 0002:00005040       _pRawDllMain               0000000180057040     LIBCMT:dll_dllmain.obj
 0002:00005040       _pDefaultRawDllMain        0000000180057040     LIBCMT:dll_dllmain.obj
 0002:00005060       ??_7bad_array_new_length@std@@6B@ 0000000180057060     LIBCMT:throw_bad_alloc.obj
 0002:00005070       ??_C@_0BF@KINCDENJ@bad?5array?5new?5length?$AA@ 0000000180057070     LIBCMT:throw_bad_alloc.obj
 0002:00005088       _pDestructExceptionObject  0000000180057088     libvcruntime:frame.obj
 0002:00005098       ??_7bad_exception@std@@6B@ 0000000180057098     libvcruntime:frame.obj
 0002:000050a8       ??_C@_0O@DPKOEFFH@bad?5exception?$AA@ 00000001800570a8     libvcruntime:frame.obj
 0002:000051c0       ??_C@_1BC@DNHGCMLG@?$AAa?$AAd?$AAv?$AAa?$AAp?$AAi?$AA3?$AA2?$AA?$AA@ 00000001800571c0     libvcruntime:winapi_downlevel.obj
 0002:000051d8       ??_C@_1DM@KHCHBNEB@?$AAa?$AAp?$AAi?$AA?9?$AAm?$AAs?$AA?9?$AAw?$AAi?$AAn?$AA?9?$AAc?$AAo?$AAr?$AAe?$AA?9?$AAf?$AAi?$AAb?$AAe?$AAr?$AAs?$AA?9?$AAl?$AA1?$AA?9?$AA1?$AA?9?$AA1?$AA?$AA@ 00000001800571d8     libvcruntime:winapi_downlevel.obj
 0002:00005218       ??_C@_1DK@LPPGFMPP@?$AAa?$AAp?$AAi?$AA?9?$AAm?$AAs?$AA?9?$AAw?$AAi?$AAn?$AA?9?$AAc?$AAo?$AAr?$AAe?$AA?9?$AAs?$AAy?$AAn?$AAc?$AAh?$AA?9?$AAl?$AA1?$AA?9?$AA2?$AA?9?$AA0?$AA?$AA@ 0000000180057218     libvcruntime:winapi_downlevel.obj
 0002:00005258       ??_C@_1BC@GDMECMAK@?$AAk?$AAe?$AAr?$AAn?$AAe?$AAl?$AA3?$AA2?$AA?$AA@ 0000000180057258     libvcruntime:winapi_downlevel.obj
 0002:00005270       ??_C@_0O@BAMBGLIE@EventRegister?$AA@ 0000000180057270     libvcruntime:winapi_downlevel.obj
 0002:00005288       ??_C@_0BE@BJEEGHGK@EventSetInformation?$AA@ 0000000180057288     libvcruntime:winapi_downlevel.obj
 0002:000052a0       ??_C@_0BA@FAKLIPIC@EventUnregister?$AA@ 00000001800572a0     libvcruntime:winapi_downlevel.obj
 0002:000052b8       ??_C@_0BD@PKLHJPHD@EventWriteTransfer?$AA@ 00000001800572b8     libvcruntime:winapi_downlevel.obj
 0002:000052f8       _Microsoft_CRTProvider     00000001800572f8     libvcruntime:telemetry.obj
 0002:00005300       ??_C@_0O@JEOPJOMI@Main?5Invoked?4?$AA@ 0000000180057300     libvcruntime:telemetry.obj
 0002:00005310       ??_C@_0P@NEAEIBDO@Main?5Returned?4?$AA@ 0000000180057310     libvcruntime:telemetry.obj
 0002:00005640       ??_C@_08EHJDFFNH@__based?$CI?$AA@ 0000000180057640     libvcruntime:undname.obj
 0002:00005650       ??_C@_07KOLFKCDI@__cdecl?$AA@ 0000000180057650     libvcruntime:undname.obj
 0002:00005658       ??_C@_08GHMPAG@__pascal?$AA@ 0000000180057658     libvcruntime:undname.obj
 0002:00005668       ??_C@_09IFJBGAPI@__stdcall?$AA@ 0000000180057668     libvcruntime:undname.obj
 0002:00005678       ??_C@_0L@NPHFGOKO@__thiscall?$AA@ 0000000180057678     libvcruntime:undname.obj
 0002:00005688       ??_C@_0L@JMKHOMEK@__fastcall?$AA@ 0000000180057688     libvcruntime:undname.obj
 0002:00005698       ??_C@_0N@BCKKPABJ@__vectorcall?$AA@ 0000000180057698     libvcruntime:undname.obj
 0002:000056a8       ??_C@_09HIJEGCPM@__clrcall?$AA@ 00000001800576a8     libvcruntime:undname.obj
 0002:000056b4       ??_C@_06GHPCKEAG@__eabi?$AA@ 00000001800576b4     libvcruntime:undname.obj
 0002:000056c0       ??_C@_07JOMMBBKO@__ptr64?$AA@ 00000001800576c0     libvcruntime:undname.obj
 0002:000056c8       ??_C@_0L@PILCLIHE@__restrict?$AA@ 00000001800576c8     libvcruntime:undname.obj
 0002:000056d8       ??_C@_0M@GFIIJFMG@__unaligned?$AA@ 00000001800576d8     libvcruntime:undname.obj
 0002:000056e8       ??_C@_09DHDLOLLB@restrict?$CI?$AA@ 00000001800576e8     libvcruntime:undname.obj
 0002:000056f4       ??_C@_04NIHEBCM@?5new?$AA@ 00000001800576f4     libvcruntime:undname.obj
 0002:00005700       ??_C@_07FPCDHGMM@?5delete?$AA@ 0000000180057700     libvcruntime:undname.obj
 0002:00005708       ??_C@_01NEMOKFLO@?$DN?$AA@ 0000000180057708     libvcruntime:undname.obj
 0002:0000570c       ??_C@_02GPIOPFAK@?$DO?$DO?$AA@ 000000018005770c     libvcruntime:undname.obj
 0002:00005710       ??_C@_02FODMEDOG@?$DM?$DM?$AA@ 0000000180057710     libvcruntime:undname.obj
 0002:00005714       ??_C@_01DCLJPIOD@?$CB?$AA@ 0000000180057714     libvcruntime:undname.obj
 0002:00005718       ??_C@_02EGOFBIJA@?$DN?$DN?$AA@ 0000000180057718     libvcruntime:undname.obj
 0002:0000571c       ??_C@_02FDNJECIE@?$CB?$DN?$AA@ 000000018005771c     libvcruntime:undname.obj
 0002:00005720       ??_C@_02GPECMEKF@?$FL?$FN?$AA@ 0000000180057720     libvcruntime:undname.obj
 0002:00005728       ??_C@_08LHJFAFGD@operator?$AA@ 0000000180057728     libvcruntime:undname.obj
 0002:00005734       ??_C@_02HBOOOICD@?9?$DO?$AA@ 0000000180057734     libvcruntime:undname.obj
 0002:00005738       ??_C@_02ECNGHCIF@?$CL?$CL?$AA@ 0000000180057738     libvcruntime:undname.obj
 0002:0000573c       ??_C@_02BAABKJLB@?9?9?$AA@ 000000018005773c     libvcruntime:undname.obj
 0002:00005740       ??_C@_01MIFGBAGJ@?$CL?$AA@ 0000000180057740     libvcruntime:undname.obj
 0002:00005744       ??_C@_01HNPIGOCE@?$CG?$AA@ 0000000180057744     libvcruntime:undname.obj
 0002:00005748       ??_C@_03MNHNFDLC@?9?$DO?$CK?$AA@ 0000000180057748     libvcruntime:undname.obj
 0002:0000574c       ??_C@_01KMDKNFGN@?1?$AA@   000000018005774c     libvcruntime:undname.obj
 0002:00005750       ??_C@_01FGNFDNOH@?$CF?$AA@ 0000000180057750     libvcruntime:undname.obj
 0002:00005754       ??_C@_01MNNFJEPP@?$DM?$AA@ 0000000180057754     libvcruntime:undname.obj
 0002:00005758       ??_C@_02EHCHHCKH@?$DM?$DN?$AA@ 0000000180057758     libvcruntime:undname.obj
 0002:0000575c       ??_C@_01PPODPGHN@?$DO?$AA@ 000000018005775c     libvcruntime:undname.obj
 0002:00005760       ??_C@_02EEKDKGMJ@?$DO?$DN?$AA@ 0000000180057760     libvcruntime:undname.obj
 0002:00005764       ??_C@_01IHBHIGKO@?0?$AA@   0000000180057764     libvcruntime:undname.obj
 0002:00005768       ??_C@_02HCKGKOFO@?$CI?$CJ?$AA@ 0000000180057768     libvcruntime:undname.obj
 0002:0000576c       ??_C@_01PJKLJHI@?$HO?$AA@  000000018005776c     libvcruntime:undname.obj
 0002:00005770       ??_C@_01JKBOJNNK@?$FO?$AA@ 0000000180057770     libvcruntime:undname.obj
 0002:00005774       ??_C@_01DNKMNLPK@?$HM?$AA@ 0000000180057774     libvcruntime:undname.obj
 0002:00005778       ??_C@_02PPKAJPJL@?$CG?$CG?$AA@ 0000000180057778     libvcruntime:undname.obj
 0002:0000577c       ??_C@_02NONPIBCD@?$HM?$HM?$AA@ 000000018005777c     libvcruntime:undname.obj
 0002:00005780       ??_C@_02FPIMKNGF@?$CK?$DN?$AA@ 0000000180057780     libvcruntime:undname.obj
 0002:00005784       ??_C@_02FOEOMHFC@?$CL?$DN?$AA@ 0000000180057784     libvcruntime:undname.obj
 0002:00005788       ??_C@_02FKMDLLOA@?9?$DN?$AA@ 0000000180057788     libvcruntime:undname.obj
 0002:0000578c       ??_C@_02FJEHGPIO@?1?$DN?$AA@ 000000018005778c     libvcruntime:undname.obj
 0002:00005790       ??_C@_02FENAOKFI@?$CF?$DN?$AA@ 0000000180057790     libvcruntime:undname.obj
 0002:00005794       ??_C@_03IKFCCPFF@?$DO?$DO?$DN?$AA@ 0000000180057794     libvcruntime:undname.obj
 0002:00005798       ??_C@_03CDNPDDLA@?$DM?$DM?$DN?$AA@ 0000000180057798     libvcruntime:undname.obj
 0002:0000579c       ??_C@_02FGJGFEAB@?$CG?$DN?$AA@ 000000018005779c     libvcruntime:undname.obj
 0002:000057a0       ??_C@_02DHLNPPGH@?$HM?$DN?$AA@ 00000001800577a0     libvcruntime:undname.obj
 0002:000057a4       ??_C@_02MHEGNOJ@?$FO?$DN?$AA@ 00000001800577a4     libvcruntime:undname.obj
 0002:000057a8       ??_C@_09IFPLHPGF@?$GAvftable?8?$AA@ 00000001800577a8     libvcruntime:undname.obj
 0002:000057b8       ??_C@_09BLBHBJP@?$GAvbtable?8?$AA@ 00000001800577b8     libvcruntime:undname.obj
 0002:000057c8       ??_C@_07FEEIOKP@?$GAvcall?8?$AA@ 00000001800577c8     libvcruntime:undname.obj
 0002:000057d0       ??_C@_08LLFFHHDJ@?$GAtypeof?8?$AA@ 00000001800577d0     libvcruntime:undname.obj
 0002:000057e0       ??_C@_0BF@KDPPACIK@?$GAlocal?5static?5guard?8?$AA@ 00000001800577e0     libvcruntime:undname.obj
 0002:000057f8       ??_C@_08OBABFOLI@?$GAstring?8?$AA@ 00000001800577f8     libvcruntime:undname.obj
 0002:00005808       ??_C@_0BD@JDLKDPAB@?$GAvbase?5destructor?8?$AA@ 0000000180057808     libvcruntime:undname.obj
 0002:00005820       ??_C@_0BN@DEGPLNFK@?$GAvector?5deleting?5destructor?8?$AA@ 0000000180057820     libvcruntime:undname.obj
 0002:00005840       ??_C@_0BO@OBMKPJIG@?$GAdefault?5constructor?5closure?8?$AA@ 0000000180057840     libvcruntime:undname.obj
 0002:00005860       ??_C@_0BN@IMDCHIKM@?$GAscalar?5deleting?5destructor?8?$AA@ 0000000180057860     libvcruntime:undname.obj
 0002:00005880       ??_C@_0BO@PFGOCPJJ@?$GAvector?5constructor?5iterator?8?$AA@ 0000000180057880     libvcruntime:undname.obj
 0002:000058a0       ??_C@_0BN@LFPFMEDL@?$GAvector?5destructor?5iterator?8?$AA@ 00000001800578a0     libvcruntime:undname.obj
 0002:000058c0       ??_C@_0CE@IKBNEHA@?$GAvector?5vbase?5constructor?5iterat@ 00000001800578c0     libvcruntime:undname.obj
 0002:000058e8       ??_C@_0BL@NILFHHPC@?$GAvirtual?5displacement?5map?8?$AA@ 00000001800578e8     libvcruntime:undname.obj
 0002:00005908       ??_C@_0CB@JONCMFFK@?$GAeh?5vector?5constructor?5iterator?8@ 0000000180057908     libvcruntime:undname.obj
 0002:00005930       ??_C@_0CA@GCEOPDGL@?$GAeh?5vector?5destructor?5iterator?8?$AA@ 0000000180057930     libvcruntime:undname.obj
 0002:00005950       ??_C@_0CH@OOJPLCPH@?$GAeh?5vector?5vbase?5constructor?5ite@ 0000000180057950     libvcruntime:undname.obj
 0002:00005978       ??_C@_0BL@LLKPOHJI@?$GAcopy?5constructor?5closure?8?$AA@ 0000000180057978     libvcruntime:undname.obj
 0002:00005998       ??_C@_0BA@KBCDOMBN@?$GAudt?5returning?8?$AA@ 0000000180057998     libvcruntime:undname.obj
 0002:000059a8       ??_C@_03KLGMFNMG@?$GAEH?$AA@ 00000001800579a8     libvcruntime:undname.obj
 0002:000059ac       ??_C@_05KHLCHHI@?$GARTTI?$AA@ 00000001800579ac     libvcruntime:undname.obj
 0002:000059b8       ??_C@_0BA@KKLDJDLB@?$GAlocal?5vftable?8?$AA@ 00000001800579b8     libvcruntime:undname.obj
 0002:000059c8       ??_C@_0CE@IIHCMGGL@?$GAlocal?5vftable?5constructor?5closu@ 00000001800579c8     libvcruntime:undname.obj
 0002:000059ec       ??_C@_06FHBGPFGH@?5new?$FL?$FN?$AA@ 00000001800579ec     libvcruntime:undname.obj
 0002:000059f8       ??_C@_09LBNFPBCA@?5delete?$FL?$FN?$AA@ 00000001800579f8     libvcruntime:undname.obj
 0002:00005a08       ??_C@_0P@HJKNJFNN@?$GAomni?5callsig?8?$AA@ 0000000180057a08     libvcruntime:undname.obj
 0002:00005a18       ??_C@_0BL@CNOONJFP@?$GAplacement?5delete?5closure?8?$AA@ 0000000180057a18     libvcruntime:undname.obj
 0002:00005a38       ??_C@_0BN@CKNJLHMB@?$GAplacement?5delete?$FL?$FN?5closure?8?$AA@ 0000000180057a38     libvcruntime:undname.obj
 0002:00005a58       ??_C@_0CG@CFDHKGGD@?$GAmanaged?5vector?5constructor?5iter@ 0000000180057a58     libvcruntime:undname.obj
 0002:00005a80       ??_C@_0CF@IMGKMJNO@?$GAmanaged?5vector?5destructor?5itera@ 0000000180057a80     libvcruntime:undname.obj
 0002:00005aa8       ??_C@_0CG@HLDDJMAG@?$GAeh?5vector?5copy?5constructor?5iter@ 0000000180057aa8     libvcruntime:undname.obj
 0002:00005ad0       ??_C@_0CM@FCBBDIGB@?$GAeh?5vector?5vbase?5copy?5constructo@ 0000000180057ad0     libvcruntime:undname.obj
 0002:00005b00       ??_C@_0BL@CLIPGLGB@?$GAdynamic?5initializer?5for?5?8?$AA@ 0000000180057b00     libvcruntime:undname.obj
 0002:00005b20       ??_C@_0CB@PDBIFEP@?$GAdynamic?5atexit?5destructor?5for?5?8@ 0000000180057b20     libvcruntime:undname.obj
 0002:00005b48       ??_C@_0CD@CGAJBKEJ@?$GAvector?5copy?5constructor?5iterato@ 0000000180057b48     libvcruntime:undname.obj
 0002:00005b70       ??_C@_0CJ@GJELGAMM@?$GAvector?5vbase?5copy?5constructor?5i@ 0000000180057b70     libvcruntime:undname.obj
 0002:00005ba0       ??_C@_0CL@FGIJHLCE@?$GAmanaged?5vector?5copy?5constructor@ 0000000180057ba0     libvcruntime:undname.obj
 0002:00005bd0       ??_C@_0BM@PMGGMLDN@?$GAlocal?5static?5thread?5guard?8?$AA@ 0000000180057bd0     libvcruntime:undname.obj
 0002:00005bf0       ??_C@_0N@BDNMDMOL@operator?5?$CC?$CC?5?$AA@ 0000000180057bf0     libvcruntime:undname.obj
 0002:00005c00       ??_C@_0BC@DAFEJGAK@?5Type?5Descriptor?8?$AA@ 0000000180057c00     libvcruntime:undname.obj
 0002:00005c18       ??_C@_0BM@LDKODKLH@?5Base?5Class?5Descriptor?5at?5?$CI?$AA@ 0000000180057c18     libvcruntime:undname.obj
 0002:00005c38       ??_C@_0BD@LGICGFMM@?5Base?5Class?5Array?8?$AA@ 0000000180057c38     libvcruntime:undname.obj
 0002:00005c50       ??_C@_0BN@MECKDCOJ@?5Class?5Hierarchy?5Descriptor?8?$AA@ 0000000180057c50     libvcruntime:undname.obj
 0002:00005c70       ??_C@_0BK@CFCOFLF@?5Complete?5Object?5Locator?8?$AA@ 0000000180057c70     libvcruntime:undname.obj
 0002:00005c90       standard_lookup_table      0000000180057c90     libucrt:output.obj
 0002:00005cec       ??_C@_06OJHGLDPL@?$CInull?$CJ?$AA@ 0000000180057cec     libucrt:output.obj
 0002:00005cf8       ??_C@_1O@CEDCILHN@?$AA?$CI?$AAn?$AAu?$AAl?$AAl?$AA?$CJ?$AA?$AA@ 0000000180057cf8     libucrt:output.obj
 0002:00005d10       ??_C@_1EK@MBDPDCGA@?$AAM?$AAi?$AAc?$AAr?$AAo?$AAs?$AAo?$AAf?$AAt?$AA?5?$AAV?$AAi?$AAs?$AAu?$AAa?$AAl?$AA?5?$AAC?$AA?$CL?$AA?$CL?$AA?5?$AAR?$AAu?$AAn?$AAt?$AAi?$AAm?$AAe?$AA?5?$AAL?$AAi?$AAb@ 0000000180057d10     libucrt:assert.obj
 0002:00005d60       ??_C@_1FE@LHBLIKM@?$AAA?$AAs?$AAs?$AAe?$AAr?$AAt?$AAi?$AAo?$AAn?$AA?5?$AAf?$AAa?$AAi?$AAl?$AAe?$AAd?$AA?3?$AA?5?$AA?$CF?$AAT?$AAs?$AA?0?$AA?5?$AAf?$AAi?$AAl?$AAe?$AA?5?$AA?$CF?$AAT?$AAs?$AA?0@ 0000000180057d60     libucrt:assert.obj
 0002:00005db8       ??_C@_1CE@OJBNHDMO@?$AAA?$AAs?$AAs?$AAe?$AAr?$AAt?$AAi?$AAo?$AAn?$AA?5?$AAf?$AAa?$AAi?$AAl?$AAe?$AAd?$AA?$CB?$AA?$AA@ 0000000180057db8     libucrt:assert.obj
 0002:00005de0       ??_C@_1BE@PHKBBGE@?$AAP?$AAr?$AAo?$AAg?$AAr?$AAa?$AAm?$AA?3?$AA?5?$AA?$AA@ 0000000180057de0     libucrt:assert.obj
 0002:00005df8       ??_C@_1O@HEMHKNDC@?$AAF?$AAi?$AAl?$AAe?$AA?3?$AA?5?$AA?$AA@ 0000000180057df8     libucrt:assert.obj
 0002:00005e08       ??_C@_1O@KCAFKHJE@?$AAL?$AAi?$AAn?$AAe?$AA?3?$AA?5?$AA?$AA@ 0000000180057e08     libucrt:assert.obj
 0002:00005e18       ??_C@_1BK@PEDCIPMA@?$AAE?$AAx?$AAp?$AAr?$AAe?$AAs?$AAs?$AAi?$AAo?$AAn?$AA?3?$AA?5?$AA?$AA@ 0000000180057e18     libucrt:assert.obj
 0002:00005e40       ??_C@_1OA@EGMLFBHJ@?$AAF?$AAo?$AAr?$AA?5?$AAi?$AAn?$AAf?$AAo?$AAr?$AAm?$AAa?$AAt?$AAi?$AAo?$AAn?$AA?5?$AAo?$AAn?$AA?5?$AAh?$AAo?$AAw?$AA?5?$AAy?$AAo?$AAu?$AAr?$AA?5?$AAp?$AAr?$AAo?$AAg@ 0000000180057e40     libucrt:assert.obj
 0002:00005f20       ??_C@_1HK@POCJMFGK@?$AA?$CI?$AAP?$AAr?$AAe?$AAs?$AAs?$AA?5?$AAR?$AAe?$AAt?$AAr?$AAy?$AA?5?$AAt?$AAo?$AA?5?$AAd?$AAe?$AAb?$AAu?$AAg?$AA?5?$AAt?$AAh?$AAe?$AA?5?$AAa?$AAp?$AAp?$AAl?$AAi?$AAc@ 0000000180057f20     libucrt:assert.obj
 0002:00005fa0       ??_C@_17LGKOMLJ@?$AA?4?$AA?4?$AA?4?$AA?$AA@ 0000000180057fa0     libucrt:assert.obj
 0002:00005fa8       ??_C@_13LBAGMAIH@?$AA?6?$AA?$AA@ 0000000180057fa8     libucrt:assert.obj
 0002:00005fac       ??_C@_15IABLJNFO@?$AA?6?$AA?6?$AA?$AA@ 0000000180057fac     libucrt:assert.obj
 0002:00005fb8       ??_C@_1CO@EAEJAADC@?$AA?$DM?$AAp?$AAr?$AAo?$AAg?$AAr?$AAa?$AAm?$AA?5?$AAn?$AAa?$AAm?$AAe?$AA?5?$AAu?$AAn?$AAk?$AAn?$AAo?$AAw?$AAn?$AA?$DO?$AA?$AA@ 0000000180057fb8     libucrt:assert.obj
 0002:00005ff0       __newctype                 0000000180057ff0     libucrt:ctype.obj
 0002:000062f0       __newclmap                 00000001800582f0     libucrt:ctype.obj
 0002:00006470       __newcumap                 0000000180058470     libucrt:ctype.obj
 0002:000065f0       _wctype                    00000001800585f0     libucrt:ctype.obj
 0002:00006970       ?large_power_data@?1??multiply_by_power_of_ten@__crt_strtox@@YA_NAEAUbig_integer@2@I@Z@4QBIB 0000000180058970     libucrt:strtod.obj
 0002:00007280       ?large_power_indices@?1??multiply_by_power_of_ten@__crt_strtox@@YA_NAEAUbig_integer@2@I@Z@4QBUunpack_index@?1??12@YA_N0I@Z@B 0000000180059280     libucrt:strtod.obj
 0002:00007318       ?small_powers_of_ten@?6??multiply_by_power_of_ten@__crt_strtox@@YA_NAEAUbig_integer@2@I@Z@4QBIB 0000000180059318     libucrt:strtod.obj
 0002:00008ff0       __acrt_exception_action_table 000000018005aff0     libucrt:exception_filter.obj
 0002:000090b0       __acrt_signal_action_table_count 000000018005b0b0     libucrt:exception_filter.obj
 0002:000090b8       __acrt_signal_action_first_fpe_index 000000018005b0b8     libucrt:exception_filter.obj
 0002:000090c0       __acrt_signal_action_fpe_count 000000018005b0c0     libucrt:exception_filter.obj
 0002:000090c8       ??_C@_1BI@BGOHAHKC@?$AAm?$AAs?$AAc?$AAo?$AAr?$AAe?$AAe?$AA?4?$AAd?$AAl?$AAl?$AA?$AA@ 000000018005b0c8     libucrt:exit.obj
 0002:000090e0       ??_C@_0P@MIGLKIOC@CorExitProcess?$AA@ 000000018005b0e0     libucrt:exit.obj
 0002:000091e0       ??_C@_03OEIAHPBN@INF?$AA@  000000018005b1e0     libucrt:cvt.obj
 0002:000091e4       ??_C@_03OJHLLCGB@inf?$AA@  000000018005b1e4     libucrt:cvt.obj
 0002:000091e8       ??_C@_03LKNCIKJB@NAN?$AA@  000000018005b1e8     libucrt:cvt.obj
 0002:000091ec       ??_C@_03LHCJEHON@nan?$AA@  000000018005b1ec     libucrt:cvt.obj
 0002:000091f0       ??_C@_09OFJJIMPC@NAN?$CISNAN?$CJ?$AA@ 000000018005b1f0     libucrt:cvt.obj
 0002:00009200       ??_C@_09IPFBKMDL@nan?$CIsnan?$CJ?$AA@ 000000018005b200     libucrt:cvt.obj
 0002:00009210       ??_C@_08IKHNHAJ@NAN?$CIIND?$CJ?$AA@ 000000018005b210     libucrt:cvt.obj
 0002:00009220       ??_C@_08OFCDMILK@nan?$CIind?$CJ?$AA@ 000000018005b220     libucrt:cvt.obj
 0002:0000922c       ??_C@_05KLBDPFGC@e?$CL000?$AA@ 000000018005b22c     libucrt:cvt.obj
 0002:00009240       __lc_time_c                000000018005b240     libucrt:nlsdata.obj
 0002:00009500       ??_C@_03KOEHGMDN@Sun?$AA@  000000018005b500     libucrt:nlsdata.obj
 0002:00009504       ??_C@_03PDAGKDH@Mon?$AA@   000000018005b504     libucrt:nlsdata.obj
 0002:00009508       ??_C@_03NAGEINEP@Tue?$AA@  000000018005b508     libucrt:nlsdata.obj
 0002:0000950c       ??_C@_03MHOMLAJA@Wed?$AA@  000000018005b50c     libucrt:nlsdata.obj
 0002:00009510       ??_C@_03IOFIKPDN@Thu?$AA@  000000018005b510     libucrt:nlsdata.obj
 0002:00009514       ??_C@_03IDIOELNC@Fri?$AA@  000000018005b514     libucrt:nlsdata.obj
 0002:00009518       ??_C@_03FEFJNEK@Sat?$AA@   000000018005b518     libucrt:nlsdata.obj
 0002:0000951c       ??_C@_06OOPIFAJ@Sunday?$AA@ 000000018005b51c     libucrt:nlsdata.obj
 0002:00009524       ??_C@_06JLEDEDGH@Monday?$AA@ 000000018005b524     libucrt:nlsdata.obj
 0002:00009530       ??_C@_07BAAGCFCM@Tuesday?$AA@ 000000018005b530     libucrt:nlsdata.obj
 0002:00009538       ??_C@_09DLIGFAKA@Wednesday?$AA@ 000000018005b538     libucrt:nlsdata.obj
 0002:00009548       ??_C@_08HACCIKIA@Thursday?$AA@ 000000018005b548     libucrt:nlsdata.obj
 0002:00009554       ??_C@_06JECMNKMI@Friday?$AA@ 000000018005b554     libucrt:nlsdata.obj
 0002:00009560       ??_C@_08INBOOONO@Saturday?$AA@ 000000018005b560     libucrt:nlsdata.obj
 0002:0000956c       ??_C@_03JIHJHPIE@Jan?$AA@  000000018005b56c     libucrt:nlsdata.obj
 0002:00009570       ??_C@_03HJBDCHOM@Feb?$AA@  000000018005b570     libucrt:nlsdata.obj
 0002:00009574       ??_C@_03ODNJBKGA@Mar?$AA@  000000018005b574     libucrt:nlsdata.obj
 0002:00009578       ??_C@_03LEOLGMJP@Apr?$AA@  000000018005b578     libucrt:nlsdata.obj
 0002:0000957c       ??_C@_03CNMDKL@May?$AA@    000000018005b57c     libucrt:nlsdata.obj
 0002:00009580       ??_C@_03IDFGHECI@Jun?$AA@  000000018005b580     libucrt:nlsdata.obj
 0002:00009584       ??_C@_03LBGABGKK@Jul?$AA@  000000018005b584     libucrt:nlsdata.obj
 0002:00009588       ??_C@_03IFJFEIGA@Aug?$AA@  000000018005b588     libucrt:nlsdata.obj
 0002:0000958c       ??_C@_03GGCAPAJC@Sep?$AA@  000000018005b58c     libucrt:nlsdata.obj
 0002:00009590       ??_C@_03BMAOKBAD@Oct?$AA@  000000018005b590     libucrt:nlsdata.obj
 0002:00009594       ??_C@_03JPJOFNIA@Nov?$AA@  000000018005b594     libucrt:nlsdata.obj
 0002:00009598       ??_C@_03MKABNOCG@Dec?$AA@  000000018005b598     libucrt:nlsdata.obj
 0002:000095a0       ??_C@_07CGJPFGJA@January?$AA@ 000000018005b5a0     libucrt:nlsdata.obj
 0002:000095a8       ??_C@_08GNJGEPFN@February?$AA@ 000000018005b5a8     libucrt:nlsdata.obj
 0002:000095b4       ??_C@_05HPCKOFNC@March?$AA@ 000000018005b5b4     libucrt:nlsdata.obj
 0002:000095bc       ??_C@_05DMJDNLEJ@April?$AA@ 000000018005b5bc     libucrt:nlsdata.obj
 0002:000095c4       ??_C@_04CNLMGBGM@June?$AA@ 000000018005b5c4     libucrt:nlsdata.obj
 0002:000095cc       ??_C@_04MIEPOIFP@July?$AA@ 000000018005b5cc     libucrt:nlsdata.obj
 0002:000095d4       ??_C@_06LBBHFDDG@August?$AA@ 000000018005b5d4     libucrt:nlsdata.obj
 0002:000095e0       ??_C@_09BHHEALKD@September?$AA@ 000000018005b5e0     libucrt:nlsdata.obj
 0002:000095f0       ??_C@_07JJNFCEND@October?$AA@ 000000018005b5f0     libucrt:nlsdata.obj
 0002:000095f8       ??_C@_08HCHEGEOA@November?$AA@ 000000018005b5f8     libucrt:nlsdata.obj
 0002:00009608       ??_C@_08EDHMEBNP@December?$AA@ 000000018005b608     libucrt:nlsdata.obj
 0002:00009614       ??_C@_02DEDBPAFC@AM?$AA@   000000018005b614     libucrt:nlsdata.obj
 0002:00009618       ??_C@_02CJNFDJBF@PM?$AA@   000000018005b618     libucrt:nlsdata.obj
 0002:00009620       ??_C@_08BPBNCDIB@MM?1dd?1yy?$AA@ 000000018005b620     libucrt:nlsdata.obj
 0002:00009630       ??_C@_0BE@CKGJFCPC@dddd?0?5MMMM?5dd?0?5yyyy?$AA@ 000000018005b630     libucrt:nlsdata.obj
 0002:00009648       ??_C@_08JCCMCCIL@HH?3mm?3ss?$AA@ 000000018005b648     libucrt:nlsdata.obj
 0002:00009658       ??_C@_17MBGCMIPB@?$AAS?$AAu?$AAn?$AA?$AA@ 000000018005b658     libucrt:nlsdata.obj
 0002:00009660       ??_C@_17KBOMKBF@?$AAM?$AAo?$AAn?$AA?$AA@ 000000018005b660     libucrt:nlsdata.obj
 0002:00009668       ??_C@_17BMKGEGOJ@?$AAT?$AAu?$AAe?$AA?$AA@ 000000018005b668     libucrt:nlsdata.obj
 0002:00009670       ??_C@_17CJEDCEPE@?$AAW?$AAe?$AAd?$AA?$AA@ 000000018005b670     libucrt:nlsdata.obj
 0002:00009678       ??_C@_17PDPHAADD@?$AAT?$AAh?$AAu?$AA?$AA@ 000000018005b678     libucrt:nlsdata.obj
 0002:00009680       ??_C@_17HFOLPPLP@?$AAF?$AAr?$AAi?$AA?$AA@ 000000018005b680     libucrt:nlsdata.obj
 0002:00009688       ??_C@_17GGIBDPIH@?$AAS?$AAa?$AAt?$AA?$AA@ 000000018005b688     libucrt:nlsdata.obj
 0002:00009690       ??_C@_1O@IHNHDHPB@?$AAS?$AAu?$AAn?$AAd?$AAa?$AAy?$AA?$AA@ 000000018005b690     libucrt:nlsdata.obj
 0002:000096a0       ??_C@_1O@MMNBFLIA@?$AAM?$AAo?$AAn?$AAd?$AAa?$AAy?$AA?$AA@ 000000018005b6a0     libucrt:nlsdata.obj
 0002:000096b0       ??_C@_1BA@ENFBFFEK@?$AAT?$AAu?$AAe?$AAs?$AAd?$AAa?$AAy?$AA?$AA@ 000000018005b6b0     libucrt:nlsdata.obj
 0002:000096c0       ??_C@_1BE@EBOGMDOH@?$AAW?$AAe?$AAd?$AAn?$AAe?$AAs?$AAd?$AAa?$AAy?$AA?$AA@ 000000018005b6c0     libucrt:nlsdata.obj
 0002:000096d8       ??_C@_1BC@HHMNLIHE@?$AAT?$AAh?$AAu?$AAr?$AAs?$AAd?$AAa?$AAy?$AA?$AA@ 000000018005b6d8     libucrt:nlsdata.obj
 0002:000096f0       ??_C@_1O@PDICJHAG@?$AAF?$AAr?$AAi?$AAd?$AAa?$AAy?$AA?$AA@ 000000018005b6f0     libucrt:nlsdata.obj
 0002:00009700       ??_C@_1BC@ENMNNPAJ@?$AAS?$AAa?$AAt?$AAu?$AAr?$AAd?$AAa?$AAy?$AA?$AA@ 000000018005b700     libucrt:nlsdata.obj
 0002:00009718       ??_C@_17DKNBKCHM@?$AAJ?$AAa?$AAn?$AA?$AA@ 000000018005b718     libucrt:nlsdata.obj
 0002:00009720       ??_C@_17LMDJEKJN@?$AAF?$AAe?$AAb?$AA?$AA@ 000000018005b720     libucrt:nlsdata.obj
 0002:00009728       ??_C@_17CKNLEDEC@?$AAM?$AAa?$AAr?$AA?$AA@ 000000018005b728     libucrt:nlsdata.obj
 0002:00009730       ??_C@_17LFPOIHDD@?$AAA?$AAp?$AAr?$AA?$AA@ 000000018005b730     libucrt:nlsdata.obj
 0002:00009738       ??_C@_17PNNKMEED@?$AAM?$AAa?$AAy?$AA?$AA@ 000000018005b738     libucrt:nlsdata.obj
 0002:00009740       ??_C@_17KCJGOCPB@?$AAJ?$AAu?$AAn?$AA?$AA@ 000000018005b740     libucrt:nlsdata.obj
 0002:00009748       ??_C@_17IJPCKHK@?$AAJ?$AAu?$AAl?$AA?$AA@ 000000018005b748     libucrt:nlsdata.obj
 0002:00009750       ??_C@_17ICPELBCN@?$AAA?$AAu?$AAg?$AA?$AA@ 000000018005b750     libucrt:nlsdata.obj
 0002:00009758       ??_C@_17HCHCOKMG@?$AAS?$AAe?$AAp?$AA?$AA@ 000000018005b758     libucrt:nlsdata.obj
 0002:00009760       ??_C@_17FNLKOI@?$AAO?$AAc?$AAt?$AA?$AA@ 000000018005b760     libucrt:nlsdata.obj
 0002:00009768       ??_C@_17BBDMLCIG@?$AAN?$AAo?$AAv?$AA?$AA@ 000000018005b768     libucrt:nlsdata.obj
 0002:00009770       ??_C@_17EGKACKIF@?$AAD?$AAe?$AAc?$AA?$AA@ 000000018005b770     libucrt:nlsdata.obj
 0002:00009778       ??_C@_1BA@EFMEIEBA@?$AAJ?$AAa?$AAn?$AAu?$AAa?$AAr?$AAy?$AA?$AA@ 000000018005b778     libucrt:nlsdata.obj
 0002:00009788       ??_C@_1BC@JGDDFFAM@?$AAF?$AAe?$AAb?$AAr?$AAu?$AAa?$AAr?$AAy?$AA?$AA@ 000000018005b788     libucrt:nlsdata.obj
 0002:000097a0       ??_C@_1M@IKEENEDF@?$AAM?$AAa?$AAr?$AAc?$AAh?$AA?$AA@ 000000018005b7a0     libucrt:nlsdata.obj
 0002:000097b0       ??_C@_1M@GJNLMHFD@?$AAA?$AAp?$AAr?$AAi?$AAl?$AA?$AA@ 000000018005b7b0     libucrt:nlsdata.obj
 0002:000097c0       ??_C@_19EPFLPGAP@?$AAJ?$AAu?$AAn?$AAe?$AA?$AA@ 000000018005b7c0     libucrt:nlsdata.obj
 0002:000097d0       ??_C@_19BIFMLPCD@?$AAJ?$AAu?$AAl?$AAy?$AA?$AA@ 000000018005b7d0     libucrt:nlsdata.obj
 0002:000097e0       ??_C@_1O@PAHLKOAC@?$AAA?$AAu?$AAg?$AAu?$AAs?$AAt?$AA?$AA@ 000000018005b7e0     libucrt:nlsdata.obj
 0002:000097f0       ??_C@_1BE@DKAAMBJL@?$AAS?$AAe?$AAp?$AAt?$AAe?$AAm?$AAb?$AAe?$AAr?$AA?$AA@ 000000018005b7f0     libucrt:nlsdata.obj
 0002:00009808       ??_C@_1BA@EPANDLNG@?$AAO?$AAc?$AAt?$AAo?$AAb?$AAe?$AAr?$AA?$AA@ 000000018005b808     libucrt:nlsdata.obj
 0002:00009818       ??_C@_1BC@BGLIFPF@?$AAN?$AAo?$AAv?$AAe?$AAm?$AAb?$AAe?$AAr?$AA?$AA@ 000000018005b818     libucrt:nlsdata.obj
 0002:00009830       ??_C@_1BC@FEMKIFH@?$AAD?$AAe?$AAc?$AAe?$AAm?$AAb?$AAe?$AAr?$AA?$AA@ 000000018005b830     libucrt:nlsdata.obj
 0002:00009844       ??_C@_15ODEHAHHF@?$AAA?$AAM?$AA?$AA@ 000000018005b844     libucrt:nlsdata.obj
 0002:0000984c       ??_C@_15CLMNNGEL@?$AAP?$AAM?$AA?$AA@ 000000018005b84c     libucrt:nlsdata.obj
 0002:00009858       ??_C@_1BC@IEBCMHCM@?$AAM?$AAM?$AA?1?$AAd?$AAd?$AA?1?$AAy?$AAy?$AA?$AA@ 000000018005b858     libucrt:nlsdata.obj
 0002:00009870       ??_C@_1CI@KNAKOEBC@?$AAd?$AAd?$AAd?$AAd?$AA?0?$AA?5?$AAM?$AAM?$AAM?$AAM?$AA?5?$AAd?$AAd?$AA?0?$AA?5?$AAy?$AAy?$AAy?$AAy?$AA?$AA@ 000000018005b870     libucrt:nlsdata.obj
 0002:00009898       ??_C@_1BC@GDGBMEMK@?$AAH?$AAH?$AA?3?$AAm?$AAm?$AA?3?$AAs?$AAs?$AA?$AA@ 000000018005b898     libucrt:nlsdata.obj
 0002:000098ac       ??_C@_03JGHBODFD@pow?$AA@  000000018005b8ac     libucrt:fpexcept.obj
 0002:000098b0       ??_C@_05HGHHAHAP@log10?$AA@ 000000018005b8b0     libucrt:fpexcept.obj
 0002:00009960       ??_C@_1EG@CNNIPFIM@?$AAa?$AAp?$AAi?$AA?9?$AAm?$AAs?$AA?9?$AAw?$AAi?$AAn?$AA?9?$AAa?$AAp?$AAp?$AAm?$AAo?$AAd?$AAe?$AAl?$AA?9?$AAr?$AAu?$AAn?$AAt?$AAi?$AAm?$AAe?$AA?9?$AAl?$AA1?$AA?9?$AA1@ 000000018005b960     libucrt:winapi_thunks.obj
 0002:000099b0       ??_C@_1EA@JGEFHKEI@?$AAa?$AAp?$AAi?$AA?9?$AAm?$AAs?$AA?9?$AAw?$AAi?$AAn?$AA?9?$AAc?$AAo?$AAr?$AAe?$AA?9?$AAd?$AAa?$AAt?$AAe?$AAt?$AAi?$AAm?$AAe?$AA?9?$AAl?$AA1?$AA?9?$AA1?$AA?9?$AA1?$AA?$AA@ 000000018005b9b0     libucrt:winapi_thunks.obj
 0002:000099f0       ??_C@_1DI@GCIAAENM@?$AAa?$AAp?$AAi?$AA?9?$AAm?$AAs?$AA?9?$AAw?$AAi?$AAn?$AA?9?$AAc?$AAo?$AAr?$AAe?$AA?9?$AAf?$AAi?$AAl?$AAe?$AA?9?$AAl?$AA2?$AA?9?$AA1?$AA?9?$AA1?$AA?$AA@ 000000018005b9f0     libucrt:winapi_thunks.obj
 0002:00009a30       ??_C@_1EI@MPIAOHOC@?$AAa?$AAp?$AAi?$AA?9?$AAm?$AAs?$AA?9?$AAw?$AAi?$AAn?$AA?9?$AAc?$AAo?$AAr?$AAe?$AA?9?$AAl?$AAo?$AAc?$AAa?$AAl?$AAi?$AAz?$AAa?$AAt?$AAi?$AAo?$AAn?$AA?9?$AAl?$AA1?$AA?9@ 000000018005ba30     libucrt:winapi_thunks.obj
 0002:00009a80       ??_C@_1FK@FPHCKFIE@?$AAa?$AAp?$AAi?$AA?9?$AAm?$AAs?$AA?9?$AAw?$AAi?$AAn?$AA?9?$AAc?$AAo?$AAr?$AAe?$AA?9?$AAl?$AAo?$AAc?$AAa?$AAl?$AAi?$AAz?$AAa?$AAt?$AAi?$AAo?$AAn?$AA?9?$AAo?$AAb?$AAs@ 000000018005ba80     libucrt:winapi_thunks.obj
 0002:00009ae0       ??_C@_1EM@DILCGIIO@?$AAa?$AAp?$AAi?$AA?9?$AAm?$AAs?$AA?9?$AAw?$AAi?$AAn?$AA?9?$AAc?$AAo?$AAr?$AAe?$AA?9?$AAp?$AAr?$AAo?$AAc?$AAe?$AAs?$AAs?$AAt?$AAh?$AAr?$AAe?$AAa?$AAd?$AAs?$AA?9?$AAl@ 000000018005bae0     libucrt:winapi_thunks.obj
 0002:00009b30       ??_C@_1DM@LNCGDDPN@?$AAa?$AAp?$AAi?$AA?9?$AAm?$AAs?$AA?9?$AAw?$AAi?$AAn?$AA?9?$AAc?$AAo?$AAr?$AAe?$AA?9?$AAs?$AAt?$AAr?$AAi?$AAn?$AAg?$AA?9?$AAl?$AA1?$AA?9?$AA1?$AA?9?$AA0?$AA?$AA@ 000000018005bb30     libucrt:winapi_thunks.obj
 0002:00009b70       ??_C@_1DO@FPAPJEMD@?$AAa?$AAp?$AAi?$AA?9?$AAm?$AAs?$AA?9?$AAw?$AAi?$AAn?$AA?9?$AAc?$AAo?$AAr?$AAe?$AA?9?$AAs?$AAy?$AAs?$AAi?$AAn?$AAf?$AAo?$AA?9?$AAl?$AA1?$AA?9?$AA2?$AA?9?$AA1?$AA?$AA@ 000000018005bb70     libucrt:winapi_thunks.obj
 0002:00009bb0       ??_C@_1DK@NDHNAHIO@?$AAa?$AAp?$AAi?$AA?9?$AAm?$AAs?$AA?9?$AAw?$AAi?$AAn?$AA?9?$AAc?$AAo?$AAr?$AAe?$AA?9?$AAw?$AAi?$AAn?$AAr?$AAt?$AA?9?$AAl?$AA1?$AA?9?$AA1?$AA?9?$AA0?$AA?$AA@ 000000018005bbb0     libucrt:winapi_thunks.obj
 0002:00009bf0       ??_C@_1DM@KGHDGBCM@?$AAa?$AAp?$AAi?$AA?9?$AAm?$AAs?$AA?9?$AAw?$AAi?$AAn?$AA?9?$AAc?$AAo?$AAr?$AAe?$AA?9?$AAx?$AAs?$AAt?$AAa?$AAt?$AAe?$AA?9?$AAl?$AA2?$AA?9?$AA1?$AA?9?$AA0?$AA?$AA@ 000000018005bbf0     libucrt:winapi_thunks.obj
 0002:00009c30       ??_C@_1EO@IJIOEFOH@?$AAa?$AAp?$AAi?$AA?9?$AAm?$AAs?$AA?9?$AAw?$AAi?$AAn?$AA?9?$AAr?$AAt?$AAc?$AAo?$AAr?$AAe?$AA?9?$AAn?$AAt?$AAu?$AAs?$AAe?$AAr?$AA?9?$AAw?$AAi?$AAn?$AAd?$AAo?$AAw?$AA?9@ 000000018005bc30     libucrt:winapi_thunks.obj
 0002:00009c80       ??_C@_1FG@HHGEKANL@?$AAa?$AAp?$AAi?$AA?9?$AAm?$AAs?$AA?9?$AAw?$AAi?$AAn?$AA?9?$AAs?$AAe?$AAc?$AAu?$AAr?$AAi?$AAt?$AAy?$AA?9?$AAs?$AAy?$AAs?$AAt?$AAe?$AAm?$AAf?$AAu?$AAn?$AAc?$AAt?$AAi@ 000000018005bc80     libucrt:winapi_thunks.obj
 0002:00009ce0       ??_C@_1FG@NCKKOLKO@?$AAe?$AAx?$AAt?$AA?9?$AAm?$AAs?$AA?9?$AAw?$AAi?$AAn?$AA?9?$AAk?$AAe?$AAr?$AAn?$AAe?$AAl?$AA3?$AA2?$AA?9?$AAp?$AAa?$AAc?$AAk?$AAa?$AAg?$AAe?$AA?9?$AAc?$AAu?$AAr?$AAr@ 000000018005bce0     libucrt:winapi_thunks.obj
 0002:00009d40       ??_C@_1EG@DBIOJECG@?$AAe?$AAx?$AAt?$AA?9?$AAm?$AAs?$AA?9?$AAw?$AAi?$AAn?$AA?9?$AAn?$AAt?$AAu?$AAs?$AAe?$AAr?$AA?9?$AAd?$AAi?$AAa?$AAl?$AAo?$AAg?$AAb?$AAo?$AAx?$AA?9?$AAl?$AA1?$AA?9?$AA1@ 000000018005bd40     libucrt:winapi_thunks.obj
 0002:00009d90       ??_C@_1EO@FIHMJCLF@?$AAe?$AAx?$AAt?$AA?9?$AAm?$AAs?$AA?9?$AAw?$AAi?$AAn?$AA?9?$AAn?$AAt?$AAu?$AAs?$AAe?$AAr?$AA?9?$AAw?$AAi?$AAn?$AAd?$AAo?$AAw?$AAs?$AAt?$AAa?$AAt?$AAi?$AAo?$AAn?$AA?9@ 000000018005bd90     libucrt:winapi_thunks.obj
 0002:00009de0       ??_C@_1O@BCCLBEOE@?$AAu?$AAs?$AAe?$AAr?$AA3?$AA2?$AA?$AA@ 000000018005bde0     libucrt:winapi_thunks.obj
 0002:00009e18       ??_C@_0BA@HNOPNCHB@GetActiveWindow?$AA@ 000000018005be18     libucrt:winapi_thunks.obj
 0002:00009e38       ??_C@_0BD@HHGDFDBJ@GetLastActivePopup?$AA@ 000000018005be38     libucrt:winapi_thunks.obj
 0002:00009e58       ??_C@_0BI@DFKBFLJE@GetProcessWindowStation?$AA@ 000000018005be58     libucrt:winapi_thunks.obj
 0002:00009e78       ??_C@_0BK@DEKFELLI@GetUserObjectInformationW?$AA@ 000000018005be78     libucrt:winapi_thunks.obj
 0002:00009eb0       ??_C@_0BB@HBDEELFH@LocaleNameToLCID?$AA@ 000000018005beb0     libucrt:winapi_thunks.obj
 0002:00009ed0       ??_C@_0M@CHKKJDAI@MessageBoxA?$AA@ 000000018005bed0     libucrt:winapi_thunks.obj
 0002:00009ee8       ??_C@_0M@DLDCCGNP@MessageBoxW?$AA@ 000000018005bee8     libucrt:winapi_thunks.obj
 0002:00009f40       __log_256_lead             000000018005bf40     libucrt:log_256_lead_tail_table.obj
 0002:0000a750       __log_256_tail             000000018005c750     libucrt:log_256_lead_tail_table.obj
 0002:0000af60       __two_to_jby64_head_table  000000018005cf60     libucrt:two_to_jby64_head_tail_table.obj
 0002:0000b160       __two_to_jby64_tail_table  000000018005d160     libucrt:two_to_jby64_head_tail_table.obj
 0002:0000b360       ??_C@_04MBFDLNIM@powf?$AA@ 000000018005d360     libucrt:pow_special.obj
 0002:0000b370       __two_to_jby64_table       000000018005d370     libucrt:two_to_jby64_table.obj
 0002:0000b570       __log_F_inv_qword          000000018005d570     libucrt:log_f_inv_qword_table.obj
 0002:0000bda0       ??_C@_01GBGANLPD@0?$AA@    000000018005dda0     libucrt:cfout.obj
 0002:0000bda4       ??_C@_05DNEBIAHO@1?$CDINF?$AA@ 000000018005dda4     libucrt:cfout.obj
 0002:0000bdac       ??_C@_06IMKFLFPG@1?$CDQNAN?$AA@ 000000018005ddac     libucrt:cfout.obj
 0002:0000bdb4       ??_C@_06PGGFOGJG@1?$CDSNAN?$AA@ 000000018005ddb4     libucrt:cfout.obj
 0002:0000bdbc       ??_C@_05PHHOCPM@1?$CDIND?$AA@ 000000018005ddbc     libucrt:cfout.obj
 0002:0000dcb0       __log10_256_lead           000000018005fcb0     libucrt:log10_256_lead_tail_table.obj
 0002:0000e4c0       __log10_256_tail           00000001800604c0     libucrt:log10_256_lead_tail_table.obj
 0002:0000ecc8       ??_C@_1BA@BALFACEM@?$AAC?$AAO?$AAN?$AAO?$AAU?$AAT?$AA$?$AA?$AA@ 0000000180060cc8     libucrt:initcon.obj
 0002:0000ecd8       ??_C@_1BK@DBDEIDLH@?$AAK?$AAE?$AAR?$AAN?$AAE?$AAL?$AA3?$AA2?$AA?4?$AAD?$AAL?$AAL?$AA?$AA@ 0000000180060cd8     DelayImp:delayhlp.obj
 0002:0000ed00       _load_config_used          0000000180060d00     LIBCMT:loadcfg.obj
 0002:0000ed94       ??_C@_00CNPNBAHC@?$AA@     0000000180060d94     init.obj
 0002:0000ed98       ??_C@_0BA@JFNIOLAK@string?5too?5long?$AA@ 0000000180060d98     init.obj
 0002:0000eda8       ??_C@_0P@PAFBMNKD@?4?4?2src?2init?4cc?$AA@ 0000000180060da8     init.obj
 0002:0000edb8       ??_C@_06KNJAMCEI@opencv?$AA@ 0000000180060db8     init.obj
 0002:0000edc0       ??_C@_0BI@CFPLBAOH@invalid?5string?5position?$AA@ 0000000180060dc0     init.obj
 0002:0000edf0       ??_C@_1DG@OKCGPKIB@?$AAp?$AAe?$AAr?$AAs?$AAi?$AAs?$AAt?$AAe?$AAn?$AAt?$AA?$CI?$AA?$CJ?$AA?4?$AAI?$AAs?$AAN?$AAe?$AAa?$AAr?$AAD?$AAe?$AAa?$AAt?$AAh?$AA?$CI?$AA?$CJ?$AA?$AA@ 0000000180060df0     Matrix.obj
 0002:0000ee28       ??_C@_1CO@EGNPJLKI@?$AAp?$AAe?$AAr?$AAs?$AAi?$AAs?$AAt?$AAe?$AAn?$AAt?$AA?$CI?$AA?$CJ?$AA?4?$AAI?$AAs?$AAE?$AAm?$AAp?$AAt?$AAy?$AA?$CI?$AA?$CJ?$AA?$AA@ 0000000180060e28     Matrix.obj
 0002:0000ee58       ??_C@_1DA@FBGAEOIO@?$AA?$CB?$AAp?$AAe?$AAr?$AAs?$AAi?$AAs?$AAt?$AAe?$AAn?$AAt?$AA?$CI?$AA?$CJ?$AA?4?$AAI?$AAs?$AAE?$AAm?$AAp?$AAt?$AAy?$AA?$CI?$AA?$CJ?$AA?$AA@ 0000000180060e58     Matrix.obj
 0002:0000ee88       ??_C@_1CO@JCKLEFMA@?$AA?$CB?$AAp?$AAe?$AAr?$AAs?$AAi?$AAs?$AAt?$AAe?$AAn?$AAt?$AA?$CI?$AA?$CJ?$AA?4?$AAI?$AAs?$AAW?$AAe?$AAa?$AAk?$AA?$CI?$AA?$CJ?$AA?$AA@ 0000000180060e88     Matrix.obj
 0002:0000eeb8       ??_C@_1BE@GMLLOIPJ@?$AAr?$AAe?$AAf?$AAs?$AA_?$AA?5?$AA?$DO?$AA?5?$AA0?$AA?$AA@ 0000000180060eb8     Matrix.obj
 0002:0000eed0       ??_C@_1CC@GBFLAAPF@?$AAw?$AAr?$AAa?$AAp?$AA?9?$AA?$DO?$AAr?$AAe?$AAf?$AAs?$AA_?$AA?5?$AA?$DN?$AA?$DN?$AA?5?$AA0?$AA?$AA@ 0000000180060ed0     Matrix.obj
 0002:0000ef00       ??_C@_1HI@PEAMPKOO@?$AAC?$AA?3?$AA?2?$AAU?$AAs?$AAe?$AAr?$AAs?$AA?2?$AAA?$AAs?$AAu?$AAs?$AA?2?$AAD?$AAe?$AAs?$AAk?$AAt?$AAo?$AAp?$AA?2?$AAM?$AAe?$AAa?$AAt?$AAX?$AA?2?$AAm?$AAe?$AAe?$AAt@ 0000000180060f00     Matrix.obj
 0002:0000ef80       ??_C@_1FM@LOELJOFK@?$AAs?$AAi?$AAz?$AAe?$AA?5?$AA?$DM?$AA?$DN?$AA?5?$AAi?$AAm?$AAp?$AA?3?$AA?3?$AAk?$AAM?$AAa?$AAx?$AAL?$AAe?$AAn?$AAg?$AAt?$AAh?$AA?5?$AA?$CG?$AA?$CG?$AA?5?$AA?$CC?$AAt?$AAo?$AAo?$AA?5@ 0000000180060f80     Matrix.obj
 0002:0000efe0       ??_C@_1BO@OPFMAOCA@?$AAl?$AAe?$AAn?$AA?5?$AA?$DM?$AA?$DN?$AA?5?$AAI?$AAN?$AAT?$AA_?$AAM?$AAA?$AAX?$AA?$AA@ 0000000180060fe0     Matrix.obj
 0002:0000f000       ??_C@_1BE@CKDJNAPC@?$AAs?$AAt?$AAr?$AA_?$AA?5?$AA?$CB?$AA?$DN?$AA?5?$AA0?$AA?$AA@ 0000000180061000     Matrix.obj
 0002:0000f020       ??_C@_1JA@PCMALGLA@?$AAc?$AA?3?$AA?2?$AAu?$AAs?$AAe?$AAr?$AAs?$AA?2?$AAa?$AAs?$AAu?$AAs?$AA?2?$AAd?$AAe?$AAs?$AAk?$AAt?$AAo?$AAp?$AA?2?$AAm?$AAe?$AAa?$AAt?$AAx?$AA?2?$AAm?$AAe?$AAe?$AAt@ 0000000180061020     Matrix.obj
 0002:0000f0b0       ??_C@_1EC@MGGLMBLC@?$AAo?$AAb?$AAj?$AAe?$AAc?$AAt?$AA?9?$AA?$DO?$AAI?$AAn?$AAt?$AAe?$AAr?$AAn?$AAa?$AAl?$AAF?$AAi?$AAe?$AAl?$AAd?$AAC?$AAo?$AAu?$AAn?$AAt?$AA?$CI?$AA?$CJ?$AA?5?$AA?$DO?$AA?5?$AA0@ 00000001800610b0     Matrix.obj
 0002:0000f0f8       ??_C@_1DI@ELDBKNAK@?$AAw?$AAr?$AAa?$AAp?$AA?9?$AA?$DO?$AAh?$AAa?$AAn?$AAd?$AAl?$AAe?$AA_?$AA?4?$AAI?$AAs?$AAN?$AAe?$AAa?$AAr?$AAD?$AAe?$AAa?$AAt?$AAh?$AA?$CI?$AA?$CJ?$AA?$AA@ 00000001800610f8     Matrix.obj
 0002:0000f130       ??_C@_06OJGDMFIO@Matrix?$AA@ 0000000180061130     Matrix.obj
 0002:0000f138       ??_C@_03DMHICLNI@row?$AA@  0000000180061138     Matrix.obj
 0002:0000f13c       ??_C@_03HNOLNALI@col?$AA@  000000018006113c     Matrix.obj
 0002:0000f140       ??_C@_08LPHMKNPI@pixelRow?$AA@ 0000000180061140     Matrix.obj
 0002:0000f150       ??_C@_08POOPFGJI@pixelCol?$AA@ 0000000180061150     Matrix.obj
 0002:0000f15c       ??_C@_05LBJMNBOG@empty?$AA@ 000000018006115c     Matrix.obj
 0002:0000f164       ??_C@_03HNAFFKGA@get?$AA@  0000000180061164     Matrix.obj
 0002:0000f168       ??_C@_03KCHOJKKI@set?$AA@  0000000180061168     Matrix.obj
 0002:0000f16c       ??_C@_03KMONJGDG@put?$AA@  000000018006116c     Matrix.obj
 0002:0000f170       ??_C@_0L@BECHNFGG@brightness?$AA@ 0000000180061170     Matrix.obj
 0002:0000f180       ??_C@_09MMDNNKKJ@normalize?$AA@ 0000000180061180     Matrix.obj
 0002:0000f18c       ??_C@_04PLLMIPEP@norm?$AA@ 000000018006118c     Matrix.obj
 0002:0000f198       ??_C@_07IDJFBCE@getData?$AA@ 0000000180061198     Matrix.obj
 0002:0000f1a0       ??_C@_05PIOCODLC@pixel?$AA@ 00000001800611a0     Matrix.obj
 0002:0000f1a8       ??_C@_05IGKADHGO@width?$AA@ 00000001800611a8     Matrix.obj
 0002:0000f1b0       ??_C@_06LNLHEAAG@height?$AA@ 00000001800611b0     Matrix.obj
 0002:0000f1b8       ??_C@_04IAGNFIBA@size?$AA@ 00000001800611b8     Matrix.obj
 0002:0000f1c0       ??_C@_05KFBJCHHJ@clone?$AA@ 00000001800611c0     Matrix.obj
 0002:0000f1c8       ??_C@_04EKMNJIID@crop?$AA@ 00000001800611c8     Matrix.obj
 0002:0000f1d0       ??_C@_08GOCDALDA@toBuffer?$AA@ 00000001800611d0     Matrix.obj
 0002:0000f1e0       ??_C@_0O@NHINPDJJ@toBufferAsync?$AA@ 00000001800611e0     Matrix.obj
 0002:0000f1f0       ??_C@_07IANGJLLC@ellipse?$AA@ 00000001800611f0     Matrix.obj
 0002:0000f1f8       ??_C@_09KEGCCCGI@rectangle?$AA@ 00000001800611f8     Matrix.obj
 0002:0000f204       ??_C@_04HJPCFDOP@line?$AA@ 0000000180061204     Matrix.obj
 0002:0000f210       ??_C@_08COGNJJDK@fillPoly?$AA@ 0000000180061210     Matrix.obj
 0002:0000f21c       ??_C@_04EMMDIJJL@save?$AA@ 000000018006121c     Matrix.obj
 0002:0000f228       ??_C@_09JJHKLFCO@saveAsync?$AA@ 0000000180061228     Matrix.obj
 0002:0000f234       ??_C@_06PIONCPJI@resize?$AA@ 0000000180061234     Matrix.obj
 0002:0000f23c       ??_C@_06CEHMNFAL@rotate?$AA@ 000000018006123c     Matrix.obj
 0002:0000f248       ??_C@_0L@DJAPMNMI@warpAffine?$AA@ 0000000180061248     Matrix.obj
 0002:0000f254       ??_C@_06EHFKDFKL@copyTo?$AA@ 0000000180061254     Matrix.obj
 0002:0000f260       ??_C@_09FJAANKJO@convertTo?$AA@ 0000000180061260     Matrix.obj
 0002:0000f270       ??_C@_07GNGBKJBE@pyrDown?$AA@ 0000000180061270     Matrix.obj
 0002:0000f278       ??_C@_05DFKDCMJJ@pyrUp?$AA@ 0000000180061278     Matrix.obj
 0002:0000f280       ??_C@_08PAMBCCJ@channels?$AA@ 0000000180061280     Matrix.obj
 0002:0000f290       ??_C@_0BB@MHAJJHCC@convertGrayscale?$AA@ 0000000180061290     Matrix.obj
 0002:0000f2a8       ??_C@_0BA@NGCOGBBM@convertHSVscale?$AA@ 00000001800612a8     Matrix.obj
 0002:0000f2b8       ??_C@_0N@KHLCBKJA@gaussianBlur?$AA@ 00000001800612b8     Matrix.obj
 0002:0000f2c8       ??_C@_0L@PFBCOKAG@medianBlur?$AA@ 00000001800612c8     Matrix.obj
 0002:0000f2d8       ??_C@_0BA@DHCBAHLD@bilateralFilter?$AA@ 00000001800612d8     Matrix.obj
 0002:0000f2e8       ??_C@_05MOJCNDEH@sobel?$AA@ 00000001800612e8     Matrix.obj
 0002:0000f2f0       ??_C@_04COAGEIMF@copy?$AA@ 00000001800612f0     Matrix.obj
 0002:0000f2f8       ??_C@_04DGGGELON@flip?$AA@ 00000001800612f8     Matrix.obj
 0002:0000f300       ??_C@_03OIDJBEAH@roi?$AA@  0000000180061300     Matrix.obj
 0002:0000f304       ??_C@_03PLHFFLIH@ptr?$AA@  0000000180061304     Matrix.obj
 0002:0000f308       ??_C@_07IDKDJPKD@absDiff?$AA@ 0000000180061308     Matrix.obj
 0002:0000f310       ??_C@_0M@IIKJEANM@addWeighted?$AA@ 0000000180061310     Matrix.obj
 0002:0000f320       ??_C@_0L@CIJJHKEA@bitwiseXor?$AA@ 0000000180061320     Matrix.obj
 0002:0000f330       ??_C@_0L@LLBNFIF@bitwiseNot?$AA@ 0000000180061330     Matrix.obj
 0002:0000f340       ??_C@_0L@BINCLNLF@bitwiseAnd?$AA@ 0000000180061340     Matrix.obj
 0002:0000f350       ??_C@_0N@EMDMDNML@countNonZero?$AA@ 0000000180061350     Matrix.obj
 0002:0000f360       ??_C@_07MFGGCHMA@moments?$AA@ 0000000180061360     Matrix.obj
 0002:0000f368       ??_C@_05DECNJPA@canny?$AA@ 0000000180061368     Matrix.obj
 0002:0000f370       ??_C@_06KGLLEDKB@dilate?$AA@ 0000000180061370     Matrix.obj
 0002:0000f378       ??_C@_05KBAHGIFB@erode?$AA@ 0000000180061378     Matrix.obj
 0002:0000f380       ??_C@_0N@IAMCCANA@findContours?$AA@ 0000000180061380     Matrix.obj
 0002:0000f390       ??_C@_0M@GLOBMDDK@drawContour?$AA@ 0000000180061390     Matrix.obj
 0002:0000f3a0       ??_C@_0BA@NGCMCAJ@drawAllContours?$AA@ 00000001800613a0     Matrix.obj
 0002:0000f3b0       ??_C@_0BE@HDDDHMDD@goodFeaturesToTrack?$AA@ 00000001800613b0     Matrix.obj
 0002:0000f3c8       ??_C@_0M@CIJCFMPI@houghLinesP?$AA@ 00000001800613c8     Matrix.obj
 0002:0000f3d8       ??_C@_0N@LPPCIHBJ@houghCircles?$AA@ 00000001800613d8     Matrix.obj
 0002:0000f3e8       ??_C@_07OFAPJJMI@inRange?$AA@ 00000001800613e8     Matrix.obj
 0002:0000f3f0       ??_C@_09GGDJKLGI@adjustROI?$AA@ 00000001800613f0     Matrix.obj
 0002:0000f400       ??_C@_09NNMJJDHJ@locateROI?$AA@ 0000000180061400     Matrix.obj
 0002:0000f410       ??_C@_09DEHKFMCJ@threshold?$AA@ 0000000180061410     Matrix.obj
 0002:0000f420       ??_C@_0BC@PGOGMCIO@adaptiveThreshold?$AA@ 0000000180061420     Matrix.obj
 0002:0000f438       ??_C@_0L@HLLMAINH@meanStdDev?$AA@ 0000000180061438     Matrix.obj
 0002:0000f448       ??_C@_08LDNMHNJD@cvtColor?$AA@ 0000000180061448     Matrix.obj
 0002:0000f454       ??_C@_05EHPMMFBK@split?$AA@ 0000000180061454     Matrix.obj
 0002:0000f45c       ??_C@_05DPKBJALF@merge?$AA@ 000000018006145c     Matrix.obj
 0002:0000f468       ??_C@_0N@LLHDJFAC@equalizeHist?$AA@ 0000000180061468     Matrix.obj
 0002:0000f478       ??_C@_09IEJDFBNG@floodFill?$AA@ 0000000180061478     Matrix.obj
 0002:0000f488       ??_C@_0O@CIJALPKC@matchTemplate?$AA@ 0000000180061488     Matrix.obj
 0002:0000f498       ??_C@_0BG@BKAJOJAL@matchTemplateByMatrix?$AA@ 0000000180061498     Matrix.obj
 0002:0000f4b0       ??_C@_0BA@NIMJJEOH@templateMatches?$AA@ 00000001800614b0     Matrix.obj
 0002:0000f4c0       ??_C@_09POICKNIL@minMaxLoc?$AA@ 00000001800614c0     Matrix.obj
 0002:0000f4d0       ??_C@_08FJPDKMKL@pushBack?$AA@ 00000001800614d0     Matrix.obj
 0002:0000f4e0       ??_C@_07MILEOKHN@putText?$AA@ 00000001800614e0     Matrix.obj
 0002:0000f4e8       ??_C@_0BI@DIMPALDO@getPerspectiveTransform?$AA@ 00000001800614e8     Matrix.obj
 0002:0000f500       ??_C@_0BA@KELFFKMC@warpPerspective?$AA@ 0000000180061500     Matrix.obj
 0002:0000f510       ??_C@_05DEFFEDMP@Zeros?$AA@ 0000000180061510     Matrix.obj
 0002:0000f518       ??_C@_04HCIJGELE@Ones?$AA@ 0000000180061518     Matrix.obj
 0002:0000f520       ??_C@_03DBNLEENB@Eye?$AA@  0000000180061520     Matrix.obj
 0002:0000f528       ??_C@_0BE@DKGIBNNG@getRotationMatrix2D?$AA@ 0000000180061528     Matrix.obj
 0002:0000f540       ??_C@_0N@DLFKIGOO@copyWithMask?$AA@ 0000000180061540     Matrix.obj
 0002:0000f550       ??_C@_0M@NPIPPDNH@setWithMask?$AA@ 0000000180061550     Matrix.obj
 0002:0000f560       ??_C@_0N@IBIBODKF@meanWithMask?$AA@ 0000000180061560     Matrix.obj
 0002:0000f570       ??_C@_04OGOMFLBB@mean?$AA@ 0000000180061570     Matrix.obj
 0002:0000f578       ??_C@_05CLOOKOFG@shift?$AA@ 0000000180061578     Matrix.obj
 0002:0000f580       ??_C@_07EGDDPBAO@reshape?$AA@ 0000000180061580     Matrix.obj
 0002:0000f588       ??_C@_07EOGFDLKI@release?$AA@ 0000000180061588     Matrix.obj
 0002:0000f590       ??_C@_08LJLIHDOM@subtract?$AA@ 0000000180061590     Matrix.obj
 0002:0000f5a0       ??_C@_0BP@MKEGDBMG@Cannot?5instantiate?5without?5new?$AA@ 00000001800615a0     Matrix.obj
 0002:0000f5c0       ??_C@_0CA@CLJJNNEF@Only?51?93?5channels?5are?5supported?$AA@ 00000001800615c0     Matrix.obj
 0002:0000f5e0       ??_C@_0BM@BOFOKECO@Invalid?5number?5of?5arguments?$AA@ 00000001800615e0     Matrix.obj
 0002:0000f600       ??_C@_0N@ECACPLDM@Not?5a?5buffer?$AA@ 0000000180061600     Matrix.obj
 0002:0000f610       ??_C@_06LBMCOACO@Buffer?$AA@ 0000000180061610     Matrix.obj
 0002:0000f618       ??_C@_0CB@HGOPCKAE@those?5channels?5are?5not?5supported@ 0000000180061618     Matrix.obj
 0002:0000f640       ??_C@_0CA@NNNEHMFP@Insufficient?5or?5wrong?5arguments?$AA@ 0000000180061640     Matrix.obj
 0002:0000f660       ??_C@_0JH@KMADPBBA@type?5value?5must?5be?5NORM_INF?$DN1?0?5N@ 0000000180061660     Matrix.obj
 0002:0000f6f8       ??_C@_0BN@DPPBMFEA@min?5is?5required?5?$CIargument?51?$CJ?$AA@ 00000001800616f8     Matrix.obj
 0002:0000f718       ??_C@_0BN@NCDFGFGD@max?5is?5required?5?$CIargument?52?$CJ?$AA@ 0000000180061718     Matrix.obj
 0002:0000f738       ??_C@_04GNPKBLNA@?4jpg?$AA@ 0000000180061738     Matrix.obj
 0002:0000f740       ??_C@_03MDPCKCMI@ext?$AA@  0000000180061740     Matrix.obj
 0002:0000f748       ??_C@_0M@OEDMDMIO@jpegQuality?$AA@ 0000000180061748     Matrix.obj
 0002:0000f758       ??_C@_0P@LADJAJJC@pngCompression?$AA@ 0000000180061758     Matrix.obj
 0002:0000f768       ??_C@_0BO@EOGBJBPM@Argument?50?5must?5be?5a?5function?$AA@ 0000000180061768     Matrix.obj
 0002:0000f788       ??_C@_06BBLOAEEI@center?$AA@ 0000000180061788     Matrix.obj
 0002:0000f790       ??_C@_01FJMABOPO@x?$AA@    0000000180061790     Matrix.obj
 0002:0000f794       ??_C@_01EANLCPLP@y?$AA@    0000000180061794     Matrix.obj
 0002:0000f798       ??_C@_04HJAKPNJC@axes?$AA@ 0000000180061798     Matrix.obj
 0002:0000f7a0       ??_C@_09GLPKLBIH@thickness?$AA@ 00000001800617a0     Matrix.obj
 0002:0000f7ac       ??_C@_05FECBCJJD@angle?$AA@ 00000001800617ac     Matrix.obj
 0002:0000f7b8       ??_C@_0L@KMOANKMI@startAngle?$AA@ 00000001800617b8     Matrix.obj
 0002:0000f7c8       ??_C@_08KICKIHDM@endAngle?$AA@ 00000001800617c8     Matrix.obj
 0002:0000f7d8       ??_C@_08HIGKPKIP@lineType?$AA@ 00000001800617d8     Matrix.obj
 0002:0000f7e4       ??_C@_05PEENBMOG@color?$AA@ 00000001800617e4     Matrix.obj
 0002:0000f7f0       ??_C@_0BC@INONGHIP@filename?5required?$AA@ 00000001800617f0     Matrix.obj
 0002:0000f808       ??_C@_0BO@NBLLBCGC@Argument?51?5must?5be?5a?5function?$AA@ 0000000180061808     Matrix.obj
 0002:0000f828       ??_C@_0BG@HDICIIB@Image?5is?5no?53?9channel?$AA@ 0000000180061828     Matrix.obj
 0002:0000f840       ??_C@_0CK@FLMCPMFD@?8ksize?8?5argument?5must?5be?5a?52?5dou@ 0000000180061840     Matrix.obj
 0002:0000f870       ??_C@_0DA@JELNOFAA@?8ksize?8?5argument?5must?5be?5a?5posit@ 0000000180061870     Matrix.obj
 0002:0000f8a0       ??_C@_0CL@IINMOJEI@BilateralFilter?5takes?50?0?53?0?5or?54@ 00000001800618a0     Matrix.obj
 0002:0000f8d0       ??_C@_0HA@PMMHMFH@Need?5more?5arguments?3?5sobel?$CIddept@ 00000001800618d0     Matrix.obj
 0002:0000f940       ??_C@_0GB@MHOFLMCE@Flip?5requires?5an?5integer?5flipCod@ 0000000180061940     Matrix.obj
 0002:0000f9a8       ??_C@_0BP@GILKPLEM@ROI?5requires?5x?0y?0w?0h?5arguments?$AA@ 00000001800619a8     Matrix.obj
 0002:0000f9c8       ??_C@_03OMNKNMFO@m00?$AA@  00000001800619c8     Matrix.obj
 0002:0000f9cc       ??_C@_03ONBILGGJ@m10?$AA@  00000001800619cc     Matrix.obj
 0002:0000f9d0       ??_C@_03PFMBONBP@m01?$AA@  00000001800619d0     Matrix.obj
 0002:0000f9d4       ??_C@_03OPFOAIDA@m20?$AA@  00000001800619d4     Matrix.obj
 0002:0000f9d8       ??_C@_03PEADIHCI@m11?$AA@  00000001800619d8     Matrix.obj
 0002:0000f9dc       ??_C@_03NOOMLONM@m02?$AA@  00000001800619dc     Matrix.obj
 0002:0000f9e0       ??_C@_03OOJMGCAH@m30?$AA@  00000001800619e0     Matrix.obj
 0002:0000f9e4       ??_C@_03PGEFDJHB@m21?$AA@  00000001800619e4     Matrix.obj
 0002:0000f9e8       ??_C@_03NPCONEOL@m12?$AA@  00000001800619e8     Matrix.obj
 0002:0000f9ec       ??_C@_03MHPHIPJN@m03?$AA@  00000001800619ec     Matrix.obj
 0002:0000f9f0       ??_C@_04PMDHOMLN@mu20?$AA@ 00000001800619f0     Matrix.obj
 0002:0000f9f8       ??_C@_04OHGKGDKF@mu11?$AA@ 00000001800619f8     Matrix.obj
 0002:0000fa00       ??_C@_04MNIFFKFB@mu02?$AA@ 0000000180061a00     Matrix.obj
 0002:0000fa08       ??_C@_04PNPFIGIK@mu30?$AA@ 0000000180061a08     Matrix.obj
 0002:0000fa10       ??_C@_04OFCMNNPM@mu21?$AA@ 0000000180061a10     Matrix.obj
 0002:0000fa18       ??_C@_04MMEHDAGG@mu12?$AA@ 0000000180061a18     Matrix.obj
 0002:0000fa20       ??_C@_04NEJOGLBA@mu03?$AA@ 0000000180061a20     Matrix.obj
 0002:0000fa28       ??_C@_04LLJHJGGN@nu20?$AA@ 0000000180061a28     Matrix.obj
 0002:0000fa30       ??_C@_04KAMKBJHF@nu11?$AA@ 0000000180061a30     Matrix.obj
 0002:0000fa38       ??_C@_04IKCFCAIB@nu02?$AA@ 0000000180061a38     Matrix.obj
 0002:0000fa40       ??_C@_04LKFFPMFK@nu30?$AA@ 0000000180061a40     Matrix.obj
 0002:0000fa48       ??_C@_04KCIMKHCM@nu21?$AA@ 0000000180061a48     Matrix.obj
 0002:0000fa50       ??_C@_04ILOHEKLG@nu12?$AA@ 0000000180061a50     Matrix.obj
 0002:0000fa58       ??_C@_04JDDOBBMA@nu03?$AA@ 0000000180061a58     Matrix.obj
 0002:0000fa60       ??_C@_05KKCIMGE@error?$AA@ 0000000180061a60     Matrix.obj
 0002:0000fa68       ??_C@_06JCOMDNII@Binary?$AA@ 0000000180061a68     Matrix.obj
 0002:0000fa70       ??_C@_0BA@FAKFMDCB@Binary?5Inverted?$AA@ 0000000180061a70     Matrix.obj
 0002:0000fa80       ??_C@_0BE@KIDJPDK@Threshold?5Truncated?$AA@ 0000000180061a80     Matrix.obj
 0002:0000fa98       ??_C@_0BC@LKOAENJB@Threshold?5to?5Zero?$AA@ 0000000180061a98     Matrix.obj
 0002:0000fab0       ??_C@_0BL@NAMJELLE@Threshold?5to?5Zero?5Inverted?$AA@ 0000000180061ab0     Matrix.obj
 0002:0000fad0       ??_C@_0KA@NOKOGNF@?$CC?5is?5no?5supported?5binarization?5t@ 0000000180061ad0     Matrix.obj
 0002:0000fb70       ??_C@_06MIPDDPP@Simple?$AA@ 0000000180061b70     Matrix.obj
 0002:0000fb78       ??_C@_04DNMKLAL@Otsu?$AA@  0000000180061b78     Matrix.obj
 0002:0000fb80       ??_C@_0EJ@BCEBGCLE@?$CC?5is?5no?5supported?5threshold?5algo@ 0000000180061b80     Matrix.obj
 0002:0000fbcc       ??_C@_06MACPMDIC@stddev?$AA@ 0000000180061bcc     Matrix.obj
 0002:0000fbd8       ??_C@_0M@KEPBGKOF@CV_BGR2GRAY?$AA@ 0000000180061bd8     Matrix.obj
 0002:0000fbe8       ??_C@_0M@GIGKPEHG@CV_GRAY2BGR?$AA@ 0000000180061be8     Matrix.obj
 0002:0000fbf8       ??_C@_0L@JPAAACIE@CV_BGR2XYZ?$AA@ 0000000180061bf8     Matrix.obj
 0002:0000fc08       ??_C@_0L@EIAMPJBA@CV_XYZ2BGR?$AA@ 0000000180061c08     Matrix.obj
 0002:0000fc18       ??_C@_0N@BAHMECII@CV_BGR2YCrCb?$AA@ 0000000180061c18     Matrix.obj
 0002:0000fc28       ??_C@_0N@KDNMIIMN@CV_YCrCb2BGR?$AA@ 0000000180061c28     Matrix.obj
 0002:0000fc38       ??_C@_0L@GODLJPMB@CV_BGR2HSV?$AA@ 0000000180061c38     Matrix.obj
 0002:0000fc48       ??_C@_0L@OHAFFHAO@CV_HSV2BGR?$AA@ 0000000180061c48     Matrix.obj
 0002:0000fc58       ??_C@_0L@EDGIPMJ@CV_BGR2HLS?$AA@ 0000000180061c58     Matrix.obj
 0002:0000fc68       ??_C@_0L@CGFOCKJK@CV_HLS2BGR?$AA@ 0000000180061c68     Matrix.obj
 0002:0000fc78       ??_C@_0L@HNJMMKJP@CV_BGR2Lab?$AA@ 0000000180061c78     Matrix.obj
 0002:0000fc88       ??_C@_0L@MDFIKIDE@CV_Lab2BGR?$AA@ 0000000180061c88     Matrix.obj
 0002:0000fc98       ??_C@_0L@EIBNBGGG@CV_BGR2Luv?$AA@ 0000000180061c98     Matrix.obj
 0002:0000fca8       ??_C@_0L@MIIOFAGE@CV_Luv2BGR?$AA@ 0000000180061ca8     Matrix.obj
 0002:0000fcb8       ??_C@_0P@GLCLJCPH@CV_BayerBG2BGR?$AA@ 0000000180061cb8     Matrix.obj
 0002:0000fcc8       ??_C@_0P@GJNOCMOD@CV_BayerGB2BGR?$AA@ 0000000180061cc8     Matrix.obj
 0002:0000fcd8       ??_C@_0P@MPFAODJ@CV_BayerRG2BGR?$AA@ 0000000180061cd8     Matrix.obj
 0002:0000fce8       ??_C@_0P@GKAICOHI@CV_BayerGR2BGR?$AA@ 0000000180061ce8     Matrix.obj
 0002:0000fcf8       ??_C@_0L@GEBOPEMD@CV_BGR2RGB?$AA@ 0000000180061cf8     Matrix.obj
 0002:0000fd08       ??_C@_0BP@OEHNPNH@Conversion?5code?5is?5unsupported?$AA@ 0000000180061d08     Matrix.obj
 0002:0000fd28       ??_C@_0BO@HJHBFJCP@The?5argument?5must?5be?5an?5array?$AA@ 0000000180061d28     Matrix.obj
 0002:0000fd48       ??_C@_06EDEBOPHP@upDiff?$AA@ 0000000180061d48     Matrix.obj
 0002:0000fd50       ??_C@_06EDIHIGCM@loDiff?$AA@ 0000000180061d50     Matrix.obj
 0002:0000fd58       ??_C@_04LHPFHFPH@rect?$AA@ 0000000180061d58     Matrix.obj
 0002:0000fd60       ??_C@_08IBEPLGJB@newColor?$AA@ 0000000180061d60     Matrix.obj
 0002:0000fd70       ??_C@_09KINFKBOK@seedPoint?$AA@ 0000000180061d70     Matrix.obj
 0002:0000fd80       ??_C@_0M@MMCNCGAE@probability?$AA@ 0000000180061d80     Matrix.obj
 0002:0000fd8c       ??_C@_06OPDAEPNI@minVal?$AA@ 0000000180061d8c     Matrix.obj
 0002:0000fd94       ??_C@_06OMMDKPJH@maxVal?$AA@ 0000000180061d94     Matrix.obj
 0002:0000fd9c       ??_C@_06FNJCMJOG@minLoc?$AA@ 0000000180061d9c     Matrix.obj
 0002:0000fda4       ??_C@_06FOGBCJKJ@maxLoc?$AA@ 0000000180061da4     Matrix.obj
 0002:0000fdb0       ??_C@_0P@NBJMCDDE@HERSEY_SIMPLEX?$AA@ 0000000180061db0     Matrix.obj
 0002:0000fdc0       ??_C@_0N@GFFBADCN@HERSEY_PLAIN?$AA@ 0000000180061dc0     Matrix.obj
 0002:0000fdd0       ??_C@_0O@OGJLJAEF@HERSEY_DUPLEX?$AA@ 0000000180061dd0     Matrix.obj
 0002:0000fde0       ??_C@_0P@MOPHCHCF@HERSEY_COMPLEX?$AA@ 0000000180061de0     Matrix.obj
 0002:0000fdf0       ??_C@_0P@CFBBKAAP@HERSEY_TRIPLEX?$AA@ 0000000180061df0     Matrix.obj
 0002:0000fe00       ??_C@_0BF@FNAAMGMP@HERSEY_COMPLEX_SMALL?$AA@ 0000000180061e00     Matrix.obj
 0002:0000fe18       ??_C@_0BG@NLAECADK@HERSEY_SCRIPT_SIMPLEX?$AA@ 0000000180061e18     Matrix.obj
 0002:0000fe30       ??_C@_0BG@MEGPCECL@HERSEY_SCRIPT_COMPLEX?$AA@ 0000000180061e30     Matrix.obj
 0002:0000fe48       ??_C@_0BD@OLBABOEK@vector?$DMT?$DO?5too?5long?$AA@ 0000000180061e48     Matrix.obj
 0002:0000fe60       ??_C@_1CE@LNAGEONJ@?$AA?$CB?$AAo?$AAb?$AAj?$AAe?$AAc?$AAt?$AA?4?$AAI?$AAs?$AAE?$AAm?$AAp?$AAt?$AAy?$AA?$CI?$AA?$CJ?$AA?$AA@ 0000000180061e60     Matrix.obj
 0002:0000fe88       ??_7AsyncWorker@Nan@@6B@   0000000180061e88     Matrix.obj
 0002:0000feb8       ??_7AsyncSaveWorker@@6B@   0000000180061eb8     Matrix.obj
 0002:0000fee8       ??_7Matrix@@6B@            0000000180061ee8     Matrix.obj
 0002:0000ff00       ??_7_OutputArray@cv@@6B@   0000000180061f00     Matrix.obj
 0002:0000ffa8       ??_7ObjectWrap@Nan@@6B@    0000000180061fa8     Matrix.obj
 0002:0000ffc0       ??_7Matrix@node_opencv@@6B@ 0000000180061fc0     Matrix.obj
 0002:0000ffd8       ??_7_InputArray@cv@@6B@    0000000180061fd8     Matrix.obj
 0002:00010038       ??_7AsyncToBufferWorker@@6B@ 0000000180062038     Matrix.obj
 0002:00010068       ??_C@_05EHCKFDAN@?$CFi?4?$CFi?$AA@ 0000000180062068     OpenCV.obj
 0002:00010070       ??_C@_07CPCPJPKL@version?$AA@ 0000000180062070     OpenCV.obj
 0002:00010078       ??_C@_09EPIPEGN@readImage?$AA@ 0000000180062078     OpenCV.obj
 0002:00010088       ??_C@_0BD@MIKBHOC@Error?5loading?5file?$AA@ 0000000180062088     OpenCV.obj
 0002:000100a0       ??_C@_0BC@OKKMMIHI@CascadeClassifier?$AA@ 00000001800620a0     CascadeClassifierWrap.obj
 0002:000100b8       ??_C@_0BB@GKEEMIFO@detectMultiScale?$AA@ 00000001800620b8     CascadeClassifierWrap.obj
 0002:000100d0       ??_C@_0CH@NJPHEOJH@detectMultiScale?5takes?5at?5least?5@ 00000001800620d0     CascadeClassifierWrap.obj
 0002:000100f8       ??_7AsyncDetectMultiScale@@6B@ 00000001800620f8     CascadeClassifierWrap.obj
 0002:00010128       ??_7CascadeClassifierWrap@@6B@ 0000000180062128     CascadeClassifierWrap.obj
 0002:00010140       ??_C@_08KIPMDINC@Contours?$AA@ 0000000180062140     Contours.obj
 0002:0001014c       ??_C@_05BBEJFBFA@point?$AA@ 000000018006214c     Contours.obj
 0002:00010154       ??_C@_06GPGIDCJA@points?$AA@ 0000000180062154     Contours.obj
 0002:00010160       ??_C@_0M@FKHOBHPA@cornerCount?$AA@ 0000000180062160     Contours.obj
 0002:0001016c       ??_C@_04GOEDGNCF@area?$AA@ 000000018006216c     Contours.obj
 0002:00010178       ??_C@_09HNMBCJN@arcLength?$AA@ 0000000180062178     Contours.obj
 0002:00010188       ??_C@_0N@KKPPKBHO@approxPolyDP?$AA@ 0000000180062188     Contours.obj
 0002:00010198       ??_C@_0L@BCEJKNB@convexHull?$AA@ 0000000180062198     Contours.obj
 0002:000101a8       ??_C@_0N@MLADNOBA@boundingRect?$AA@ 00000001800621a8     Contours.obj
 0002:000101b8       ??_C@_0M@KEDDKEAN@minAreaRect?$AA@ 00000001800621b8     Contours.obj
 0002:000101c8       ??_C@_0L@EPNJHGHJ@fitEllipse?$AA@ 00000001800621c8     Contours.obj
 0002:000101d8       ??_C@_08IGAEFEOP@isConvex?$AA@ 00000001800621d8     Contours.obj
 0002:000101e8       ??_C@_09BMGJOELF@hierarchy?$AA@ 00000001800621e8     Contours.obj
 0002:000101f8       ??_C@_09HPAMHOHM@serialize?$AA@ 00000001800621f8     Contours.obj
 0002:00010208       ??_C@_0M@ONIELNGI@deserialize?$AA@ 0000000180062208     Contours.obj
 0002:00010218       ??_C@_08CKANLKHB@contours?$AA@ 0000000180062218     Contours.obj
 0002:00010228       ??_7Contour@@6B@           0000000180062228     Contours.obj
 0002:00010240       ??_C@_05BGOFFEGG@Point?$AA@ 0000000180062240     Point.obj
 0002:00010248       ??_C@_03GCCHHAFI@dot?$AA@  0000000180062248     Point.obj
 0002:00010250       ??_C@_0BP@DEJAMPLM@Cannot?5Instantiate?5without?5new?$AA@ 0000000180062250     Point.obj
 0002:00010270       ??_C@_0BD@PFBKGOKM@Point?5is?5immutable?$AA@ 0000000180062270     Point.obj
 0002:00010288       ??_7StereoGC@@6B@          0000000180062288     Stereo.obj
 0002:00010288       ??_7Point@@6B@             0000000180062288     Point.obj
 0002:000102a0       ??_7AsyncVCWorker@@6B@     00000001800622a0     VideoCaptureWrap.obj
 0002:000102d0       ??_7VideoCaptureWrap@@6B@  00000001800622d0     VideoCaptureWrap.obj
 0002:000102e8       ??_7AsyncGrabWorker@@6B@   00000001800622e8     VideoCaptureWrap.obj
 0002:00010318       ??_C@_0N@CGLLNJFA@VideoCapture?$AA@ 0000000180062318     VideoCaptureWrap.obj
 0002:00010328       ??_C@_04POLDLDMI@read?$AA@ 0000000180062328     VideoCaptureWrap.obj
 0002:00010330       ??_C@_08JPMFCCKC@setWidth?$AA@ 0000000180062330     VideoCaptureWrap.obj
 0002:00010340       ??_C@_09CPHMKLII@setHeight?$AA@ 0000000180062340     VideoCaptureWrap.obj
 0002:00010350       ??_C@_0M@HCLECGPL@setPosition?$AA@ 0000000180062350     VideoCaptureWrap.obj
 0002:00010360       ??_C@_0L@HHOKKJBK@getFrameAt?$AA@ 0000000180062360     VideoCaptureWrap.obj
 0002:00010370       ??_C@_0O@CBKICHPJ@getFrameCount?$AA@ 0000000180062370     VideoCaptureWrap.obj
 0002:00010380       ??_C@_08GOAKCCA@ReadSync?$AA@ 0000000180062380     VideoCaptureWrap.obj
 0002:0001038c       ??_C@_04MNCHGDJK@grab?$AA@ 000000018006238c     VideoCaptureWrap.obj
 0002:00010398       ??_C@_08NBEJGPCC@retrieve?$AA@ 0000000180062398     VideoCaptureWrap.obj
 0002:000103a8       ??_C@_0BL@HINGHBND@Camera?5could?5not?5be?5opened?$AA@ 00000001800623a8     VideoCaptureWrap.obj
 0002:000103d0       ??_C@_0EB@KGMELMLG@Video?5file?5could?5not?5be?5opened?5?$CI@ 00000001800623d0     VideoCaptureWrap.obj
 0002:00010418       ??_C@_0BA@BCGMEMGH@retrieve?5failed?$AA@ 0000000180062418     VideoCaptureWrap.obj
 0002:00010428       ??_C@_0M@EKPJKMNA@grab?5failed?$AA@ 0000000180062428     VideoCaptureWrap.obj
 0002:00010438       ??_C@_0O@PCBPEEJF@TrackedObject?$AA@ 0000000180062438     CamShift.obj
 0002:00010448       ??_C@_05BCJOPFFH@track?$AA@ 0000000180062448     CamShift.obj
 0002:00010450       ??_C@_0BN@OICPNMNN@Must?5pass?5rectangle?5to?5track?$AA@ 0000000180062450     CamShift.obj
 0002:00010470       ??_C@_07MFOHDNMP@channel?$AA@ 0000000180062470     CamShift.obj
 0002:00010478       ??_C@_03GKJJMKFG@hue?$AA@  0000000180062478     CamShift.obj
 0002:0001047c       ??_C@_01BDACAMKP@h?$AA@    000000018006247c     CamShift.obj
 0002:00010480       ??_C@_0L@MOLEDBMN@saturation?$AA@ 0000000180062480     CamShift.obj
 0002:0001048c       ??_C@_01LKDEMHDF@s?$AA@    000000018006248c     CamShift.obj
 0002:00010490       ??_C@_05MFEJDJP@value?$AA@ 0000000180062490     CamShift.obj
 0002:00010498       ??_C@_01MHEDDDHA@v?$AA@    0000000180062498     CamShift.obj
 0002:000104a0       ??_C@_0BL@PCEGKIJF@track?5takes?5an?5image?5param?$AA@ 00000001800624a0     CamShift.obj
 0002:000104c0       ??_C@_0CK@JLOABPOH@OPENCV?5ERROR?3?5prev?5rectangle?5is?5@ 00000001800624c0     CamShift.obj
 0002:000104f0       ??_7TrackedObject@@6B@     00000001800624f0     CamShift.obj
 0002:00010508       ??_C@_0M@NCFELCBD@NamedWindow?$AA@ 0000000180062508     HighGUI.obj
 0002:00010514       ??_C@_04FKMICODN@show?$AA@ 0000000180062514     HighGUI.obj
 0002:00010520       ??_C@_07OKFGPCEA@destroy?$AA@ 0000000180062520     HighGUI.obj
 0002:00010528       ??_C@_0BA@OLBEHEEI@blockingWaitKey?$AA@ 0000000180062528     HighGUI.obj
 0002:00010538       ??_7NamedWindow@@6B@       0000000180062538     HighGUI.obj
 0002:00010550       ??_C@_0P@BGFEGPNN@FaceRecognizer?$AA@ 0000000180062550     FaceRecognizer.obj
 0002:00010560       ??_C@_0BJ@JKFNBBPJ@createLBPHFaceRecognizer?$AA@ 0000000180062560     FaceRecognizer.obj
 0002:00010580       ??_C@_0BK@NCGJMOIE@createEigenFaceRecognizer?$AA@ 0000000180062580     FaceRecognizer.obj
 0002:000105a0       ??_C@_0BL@KAJMAKBO@createFisherFaceRecognizer?$AA@ 00000001800625a0     FaceRecognizer.obj
 0002:000105c0       ??_C@_09GIAOBKEC@trainSync?$AA@ 00000001800625c0     FaceRecognizer.obj
 0002:000105cc       ??_C@_05GCHOIEME@train?$AA@ 00000001800625cc     FaceRecognizer.obj
 0002:000105d8       ??_C@_0L@NFIJKLCF@updateSync?$AA@ 00000001800625d8     FaceRecognizer.obj
 0002:000105e8       ??_C@_0M@LADLGKLG@predictSync?$AA@ 00000001800625e8     FaceRecognizer.obj
 0002:000105f8       ??_C@_07DOBNEOGC@predict?$AA@ 00000001800625f8     FaceRecognizer.obj
 0002:00010600       ??_C@_08HOAFELNP@saveSync?$AA@ 0000000180062600     FaceRecognizer.obj
 0002:00010610       ??_C@_08HBNDKFKI@loadSync?$AA@ 0000000180062610     FaceRecognizer.obj
 0002:0001061c       ??_C@_06BDNBBHAJ@getMat?$AA@ 000000018006261c     FaceRecognizer.obj
 0002:00010630       ??_C@_0EB@CEMIIOPK@FaceRecognizer?4train?5takes?5a?5lis@ 0000000180062630     FaceRecognizer.obj
 0002:00010678       ??_C@_0CM@HKHPMOBN@train?5takes?5a?5list?5of?5?$FLlabel?0?5im@ 0000000180062678     FaceRecognizer.obj
 0002:000106a8       ??_C@_0DA@EOJJMBMB@Invalid?5number?5of?5arguments?5or?5i@ 00000001800626a8     FaceRecognizer.obj
 0002:000106d8       ??_C@_0CJ@GMKBLJHM@Eigen?5Recognizer?5does?5not?5suppor@ 00000001800626d8     FaceRecognizer.obj
 0002:00010708       ??_C@_0CK@KEHLGEGO@Fisher?5Recognizer?5does?5not?5suppo@ 0000000180062708     FaceRecognizer.obj
 0002:00010734       ??_C@_02EGCJHIOB@id?$AA@   0000000180062734     FaceRecognizer.obj
 0002:00010738       ??_C@_0L@KKPMMEDB@confidence?$AA@ 0000000180062738     FaceRecognizer.obj
 0002:00010748       ??_C@_0BG@GOIDBLEB@Save?5takes?5a?5filename?$AA@ 0000000180062748     FaceRecognizer.obj
 0002:00010760       ??_C@_0BG@BOEBMIBO@Load?5takes?5a?5filename?$AA@ 0000000180062760     FaceRecognizer.obj
 0002:00010778       ??_C@_0BD@LGKMBFJC@getMat?5takes?5a?5key?$AA@ 0000000180062778     FaceRecognizer.obj
 0002:00010790       ??_7TrainASyncWorker@@6B@  0000000180062790     FaceRecognizer.obj
 0002:000107c0       ??_7PredictASyncWorker@@6B@ 00000001800627c0     FaceRecognizer.obj
 0002:000107f0       ??_7FaceRecognizerWrap@@6B@ 00000001800627f0     FaceRecognizer.obj
 0002:00010808       ??_C@_0BA@MFHDGIKH@ImageSimilarity?$AA@ 0000000180062808     Features2d.obj
 0002:00010818       ??_C@_03LALLLPNB@ORB?$AA@  0000000180062818     Features2d.obj
 0002:00010820       ??_C@_0BD@MDGGGBIH@BruteForce?9Hamming?$AA@ 0000000180062820     Features2d.obj
 0002:00010838       ??_C@_0BO@KKKFJAIB@Argument?52?5must?5be?5a?5function?$AA@ 0000000180062838     Features2d.obj
 0002:00010858       ??_7AsyncDetectSimilarity@@6B@ 0000000180062858     Features2d.obj
 0002:00010888       ??_C@_0BF@ONFAAOIL@BackgroundSubtractor?$AA@ 0000000180062888     BackgroundSubtractor.obj
 0002:000108a0       ??_C@_09CBNLAOBC@createMOG?$AA@ 00000001800628a0     BackgroundSubtractor.obj
 0002:000108b0       ??_C@_08DEKCOBEN@applyMOG?$AA@ 00000001800628b0     BackgroundSubtractor.obj
 0002:000108c0       ??_C@_0BE@EENDAMGA@Input?5image?5missing?$AA@ 00000001800628c0     BackgroundSubtractor.obj
 0002:000108d8       ??_7BackgroundSubtractorWrap@@6B@ 00000001800628d8     BackgroundSubtractor.obj
 0002:000108f0       ??_C@_05OHIBODI@CV_8U?$AA@ 00000001800628f0     Constants.obj
 0002:000108f8       ??_C@_05FICCLJLO@CV_8S?$AA@ 00000001800628f8     Constants.obj
 0002:00010900       ??_C@_06NIFJFDGC@CV_16U?$AA@ 0000000180062900     Constants.obj
 0002:00010908       ??_C@_06IOADPEOE@CV_16S?$AA@ 0000000180062908     Constants.obj
 0002:00010910       ??_C@_06CDADJELD@CV_32S?$AA@ 0000000180062910     Constants.obj
 0002:00010918       ??_C@_06BELGHCKH@CV_32F?$AA@ 0000000180062918     Constants.obj
 0002:00010920       ??_C@_06CHOFPOCH@CV_64F?$AA@ 0000000180062920     Constants.obj
 0002:00010928       ??_C@_0M@JFPIDONA@CV_USRTYPE1?$AA@ 0000000180062928     Constants.obj
 0002:00010938       ??_C@_07FJBBLLML@CV_8UC1?$AA@ 0000000180062938     Constants.obj
 0002:00010940       ??_C@_07HCDMOIAI@CV_8UC2?$AA@ 0000000180062940     Constants.obj
 0002:00010948       ??_C@_07GLCHNJEJ@CV_8UC3?$AA@ 0000000180062948     Constants.obj
 0002:00010950       ??_C@_07CEGGEPIO@CV_8UC4?$AA@ 0000000180062950     Constants.obj
 0002:00010958       ??_C@_07HMHKOEBH@CV_8SC1?$AA@ 0000000180062958     Constants.obj
 0002:00010960       ??_C@_07FHFHLHNE@CV_8SC2?$AA@ 0000000180062960     Constants.obj
 0002:00010968       ??_C@_07EOEMIGJF@CV_8SC3?$AA@ 0000000180062968     Constants.obj
 0002:00010970       ??_C@_07BANBAFC@CV_8SC4?$AA@ 0000000180062970     Constants.obj
 0002:00010978       ??_C@_08BBCIOFBJ@CV_16UC1?$AA@ 0000000180062978     Constants.obj
 0002:00010988       ??_C@_08DKAFLGNK@CV_16UC2?$AA@ 0000000180062988     Constants.obj
 0002:00010998       ??_C@_08CDBOIHJL@CV_16UC3?$AA@ 0000000180062998     Constants.obj
 0002:000109a8       ??_C@_08GMFPBBFM@CV_16UC4?$AA@ 00000001800629a8     Constants.obj
 0002:000109b8       ??_C@_08DEEDLKMF@CV_16SC1?$AA@ 00000001800629b8     Constants.obj
 0002:000109c8       ??_C@_08BPGOOJAG@CV_16SC2?$AA@ 00000001800629c8     Constants.obj
 0002:000109d8       ??_C@_08GHFNIEH@CV_16SC3?$AA@ 00000001800629d8     Constants.obj
 0002:000109e8       ??_C@_08EJDEEOIA@CV_16SC4?$AA@ 00000001800629e8     Constants.obj
 0002:000109f8       ??_C@_08IMALLNAO@CV_32SC1?$AA@ 00000001800629f8     Constants.obj
 0002:00010a08       ??_C@_08KHCGOOMN@CV_32SC2?$AA@ 0000000180062a08     Constants.obj
 0002:00010a18       ??_C@_08LODNNPIM@CV_32SC3?$AA@ 0000000180062a18     Constants.obj
 0002:00010a28       ??_C@_08PBHMEJEL@CV_32SC4?$AA@ 0000000180062a28     Constants.obj
 0002:00010a38       ??_C@_08OLMMBKKD@CV_32FC1?$AA@ 0000000180062a38     Constants.obj
 0002:00010a48       ??_C@_08MAOBEJGA@CV_32FC2?$AA@ 0000000180062a48     Constants.obj
 0002:00010a58       ??_C@_08NJPKHICB@CV_32FC3?$AA@ 0000000180062a58     Constants.obj
 0002:00010a68       ??_C@_08JGLLOOOG@CV_32FC4?$AA@ 0000000180062a68     Constants.obj
 0002:00010a78       ??_C@_08DEEBHOLA@CV_64FC1?$AA@ 0000000180062a78     Constants.obj
 0002:00010a88       ??_C@_08BPGMCNHD@CV_64FC2?$AA@ 0000000180062a88     Constants.obj
 0002:00010a98       ??_C@_08GHHBMDC@CV_64FC3?$AA@ 0000000180062a98     Constants.obj
 0002:00010aa8       ??_C@_08EJDGIKPF@CV_64FC4?$AA@ 0000000180062aa8     Constants.obj
 0002:00010ab4       ??_C@_05KOMLNJPN@CV_PI?$AA@ 0000000180062ab4     Constants.obj
 0002:00010ac0       ??_C@_09EFLPHOLM@CV_FILLED?$AA@ 0000000180062ac0     Constants.obj
 0002:00010ad0       ??_C@_0P@OMCIALBM@BORDER_DEFAULT?$AA@ 0000000180062ad0     Constants.obj
 0002:00010ae0       ??_C@_0BB@PHCOAPIO@BORDER_REPLICATE?$AA@ 0000000180062ae0     Constants.obj
 0002:00010af8       ??_C@_0P@PFCJOHKD@BORDER_REFLECT?$AA@ 0000000180062af8     Constants.obj
 0002:00010b08       ??_C@_0BD@GKAAMMEK@BORDER_REFLECT_101?$AA@ 0000000180062b08     Constants.obj
 0002:00010b20       ??_C@_0M@CLGGBJMM@BORDER_WRAP?$AA@ 0000000180062b20     Constants.obj
 0002:00010b30       ??_C@_0BA@JMNBKHCJ@BORDER_CONSTANT?$AA@ 0000000180062b30     Constants.obj
 0002:00010b40       ??_C@_0O@LOLMHAEL@INTER_NEAREST?$AA@ 0000000180062b40     Constants.obj
 0002:00010b50       ??_C@_0N@GKLHHOKH@INTER_LINEAR?$AA@ 0000000180062b50     Constants.obj
 0002:00010b60       ??_C@_0L@CFPLEHJK@INTER_AREA?$AA@ 0000000180062b60     Constants.obj
 0002:00010b70       ??_C@_0M@KHIHIJMB@INTER_CUBIC?$AA@ 0000000180062b70     Constants.obj
 0002:00010b80       ??_C@_0P@DDNEKOMF@INTER_LANCZOS4?$AA@ 0000000180062b80     Constants.obj
 0002:00010b90       ??_C@_0M@IGPOPKGG@NORM_MINMAX?$AA@ 0000000180062b90     Constants.obj
 0002:00010ba0       ??_C@_08HIOPAFEN@NORM_INF?$AA@ 0000000180062ba0     Constants.obj
 0002:00010bb0       ??_C@_07NJBPKMDP@NORM_L1?$AA@ 0000000180062bb0     Constants.obj
 0002:00010bb8       ??_C@_07PCDCPPPM@NORM_L2?$AA@ 0000000180062bb8     Constants.obj
 0002:00010bc0       ??_C@_0L@NLGGPNKJ@NORM_L2SQR?$AA@ 0000000180062bc0     Constants.obj
 0002:00010bd0       ??_C@_0N@DLOLCGNF@NORM_HAMMING?$AA@ 0000000180062bd0     Constants.obj
 0002:00010be0       ??_C@_0O@BLPCJJAM@NORM_HAMMING2?$AA@ 0000000180062be0     Constants.obj
 0002:00010bf0       ??_C@_0O@PNONJCK@NORM_RELATIVE?$AA@ 0000000180062bf0     Constants.obj
 0002:00010c00       ??_C@_0P@BKKKKGHD@NORM_TYPE_MASK?$AA@ 0000000180062c00     Constants.obj
 0002:00010c10       ??_C@_0O@JBHGNPPI@RETR_EXTERNAL?$AA@ 0000000180062c10     Constants.obj
 0002:00010c20       ??_C@_09GGFNJCHC@RETR_LIST?$AA@ 0000000180062c20     Constants.obj
 0002:00010c30       ??_C@_0L@LGAIMKHK@RETR_CCOMP?$AA@ 0000000180062c30     Constants.obj
 0002:00010c40       ??_C@_09PKKHGCHN@RETR_TREE?$AA@ 0000000180062c40     Constants.obj
 0002:00010c50       ??_C@_09EKDBGGMD@Constants?$AA@ 0000000180062c50     Constants.obj
 0002:00010c60       ??_C@_0BK@MPJIJEMN@Size?5is?5not?5a?5valid?5array?$AA@ 0000000180062c60     Calib3D.obj
 0002:00010c80       ??_C@_0BJ@BLJDKNA@Points?5not?5a?5valid?5array?$AA@ 0000000180062c80     Calib3D.obj
 0002:00010c9c       ??_C@_01GLPGHMHM@z?$AA@    0000000180062c9c     Calib3D.obj
 0002:00010ca0       ??_C@_0DA@PONKJKIP@Must?5pass?5array?5of?5object?5points@ 0000000180062ca0     Calib3D.obj
 0002:00010cd0       ??_C@_0BG@LOLNPFPB@findChessboardCorners?$AA@ 0000000180062cd0     Calib3D.obj
 0002:00010ce8       ??_C@_0BG@EJGOGIIK@drawChessboardCorners?$AA@ 0000000180062ce8     Calib3D.obj
 0002:00010d00       ??_C@_0BA@EOICHGIF@calibrateCamera?$AA@ 0000000180062d00     Calib3D.obj
 0002:00010d10       ??_C@_08CKFDCCPK@solvePnP?$AA@ 0000000180062d10     Calib3D.obj
 0002:00010d20       ??_C@_0BK@DJBDJDEP@getOptimalNewCameraMatrix?$AA@ 0000000180062d20     Calib3D.obj
 0002:00010d40       ??_C@_0BA@GBPIBKJD@stereoCalibrate?$AA@ 0000000180062d40     Calib3D.obj
 0002:00010d50       ??_C@_0O@NIJKBGHJ@stereoRectify?$AA@ 0000000180062d50     Calib3D.obj
 0002:00010d60       ??_C@_0BK@OMGIFBPM@computeCorrespondEpilines?$AA@ 0000000180062d60     Calib3D.obj
 0002:00010d80       ??_C@_0BD@BAPJDIOL@reprojectImageTo3d?$AA@ 0000000180062d80     Calib3D.obj
 0002:00010d98       ??_C@_07LEPPNAGA@calib3d?$AA@ 0000000180062d98     Calib3D.obj
 0002:00010da0       ??_C@_05JEMLEKKA@found?$AA@ 0000000180062da0     Calib3D.obj
 0002:00010da8       ??_C@_07IGDAEPBO@corners?$AA@ 0000000180062da8     Calib3D.obj
 0002:00010db0       ??_C@_0BC@KLJOIAOF@reprojectionError?$AA@ 0000000180062db0     Calib3D.obj
 0002:00010dc4       ??_C@_01KNKLHLMO@K?$AA@    0000000180062dc4     Calib3D.obj
 0002:00010dc8       ??_C@_0L@HBCOEABN@distortion?$AA@ 0000000180062dc8     Calib3D.obj
 0002:00010dd4       ??_C@_04PEFHHFKC@rvec?$AA@ 0000000180062dd4     Calib3D.obj
 0002:00010ddc       ??_C@_04HLBHIAAC@tvec?$AA@ 0000000180062ddc     Calib3D.obj
 0002:00010de4       ??_C@_02LKCMEDHO@K1?$AA@   0000000180062de4     Calib3D.obj
 0002:00010de8       ??_C@_0M@KFCKEFCL@distortion1?$AA@ 0000000180062de8     Calib3D.obj
 0002:00010df4       ??_C@_02JBABBALN@K2?$AA@   0000000180062df4     Calib3D.obj
 0002:00010df8       ??_C@_0M@IOAHBGOI@distortion2?$AA@ 0000000180062df8     Calib3D.obj
 0002:00010e04       ??_C@_01DGKLNCNG@R?$AA@    0000000180062e04     Calib3D.obj
 0002:00010e08       ??_C@_01PFHFFBPC@t?$AA@    0000000180062e08     Calib3D.obj
 0002:00010e0c       ??_C@_01DDCIFGEA@E?$AA@    0000000180062e0c     Calib3D.obj
 0002:00010e10       ??_C@_01BIAFAFID@F?$AA@    0000000180062e10     Calib3D.obj
 0002:00010e14       ??_C@_02KJNLNLIB@R1?$AA@   0000000180062e14     Calib3D.obj
 0002:00010e18       ??_C@_02ICPGIIEC@R2?$AA@   0000000180062e18     Calib3D.obj
 0002:00010e1c       ??_C@_02KKFPAPOP@P1?$AA@   0000000180062e1c     Calib3D.obj
 0002:00010e20       ??_C@_02IBHCFMCM@P2?$AA@   0000000180062e20     Calib3D.obj
 0002:00010e24       ??_C@_01BNIGIBBF@Q?$AA@    0000000180062e24     Calib3D.obj
 0002:00010e28       ??_C@_01MCMALHOG@a?$AA@    0000000180062e28     Calib3D.obj
 0002:00010e2c       ??_C@_01OJONOECF@b?$AA@    0000000180062e2c     Calib3D.obj
 0002:00010e30       ??_C@_01PAPGNFGE@c?$AA@    0000000180062e30     Calib3D.obj
 0002:00010e38       ??_C@_09CMLMPKON@undistort?$AA@ 0000000180062e38     ImgProc.obj
 0002:00010e44       ??_C@_05PGGDPNJE@remap?$AA@ 0000000180062e44     ImgProc.obj
 0002:00010e50       ??_C@_0BI@CIGFBMGP@initUndistortRectifyMap?$AA@ 0000000180062e50     ImgProc.obj
 0002:00010e68       ??_C@_07JPFGLFGA@imgproc?$AA@ 0000000180062e68     ImgProc.obj
 0002:00010e70       ??_C@_0BG@DHBNJFIH@getStructuringElement?$AA@ 0000000180062e70     ImgProc.obj
 0002:00010e88       ??_C@_04EJEJEEJK@map1?$AA@ 0000000180062e88     ImgProc.obj
 0002:00010e90       ??_C@_0BF@GFPOHJFK@Must?5pass?5image?5size?$AA@ 0000000180062e90     ImgProc.obj
 0002:00010ea8       ??_C@_0CC@BPGICPEI@?8shape?8?5argument?5must?5be?5a?5numbe@ 0000000180062ea8     ImgProc.obj
 0002:00010ecc       ??_C@_04GCGEBHFJ@map2?$AA@ 0000000180062ecc     ImgProc.obj
 0002:00010ee0       ??_C@_1GM@FKHMJCIJ@?$AAD?$AA?3?$AA?2?$AAO?$AAp?$AAe?$AAn?$AAC?$AAV?$AA?2?$AAo?$AAp?$AAe?$AAn?$AAc?$AAv?$AA?2?$AAb?$AAu?$AAi?$AAl?$AAd?$AA?2?$AAi?$AAn?$AAc?$AAl?$AAu?$AAd?$AAe?$AA?2?$AAo@ 0000000180062ee0     Stereo.obj
 0002:00010f50       ??_C@_1EO@NDAHBCK@?$AA?$CI?$AAu?$AAn?$AAs?$AAi?$AAg?$AAn?$AAe?$AAd?$AA?$CJ?$AAC?$AAV?$AA_?$AAM?$AAA?$AAT?$AA_?$AAD?$AAE?$AAP?$AAT?$AAH?$AA?$CI?$AAt?$AAy?$AAp?$AAe?$AA?$CJ?$AA?5?$AA?$DM?$AA?$DN?$AA?5@ 0000000180062f50     Stereo.obj
 0002:00010fa0       ??_C@_07ODGMEIEJ@compute?$AA@ 0000000180062fa0     Stereo.obj
 0002:00010fa8       ??_C@_08OBAJLBIO@StereoBM?$AA@ 0000000180062fa8     Stereo.obj
 0002:00010fb8       ??_C@_0BA@FJIKHBBD@FISH_EYE_PRESET?$AA@ 0000000180062fb8     Stereo.obj
 0002:00010fc8       ??_C@_0N@ONMIMPKA@BASIC_PRESET?$AA@ 0000000180062fc8     Stereo.obj
 0002:00010fd8       ??_C@_0L@BNJCOBGG@StereoSGBM?$AA@ 0000000180062fd8     Stereo.obj
 0002:00010fe8       ??_C@_0O@ECNFLNKM@NARROW_PRESET?$AA@ 0000000180062fe8     Stereo.obj
 0002:00010ff8       ??_C@_08HJEBFOOL@StereoGC?$AA@ 0000000180062ff8     Stereo.obj
 0002:00011010       ??_C@_0FK@EJONPJOC@If?5overriding?5default?5settings?0?5@ 0000000180063010     Stereo.obj
 0002:00011070       ??_7StereoBM@@6B@          0000000180063070     Stereo.obj
 0002:00011088       ??_7StereoSGBM@@6B@        0000000180063088     Stereo.obj
 0002:000110a0       ??_C@_0BA@CKEDBBCB@subspaceProject?$AA@ 00000001800630a0     LDAWrap.obj
 0002:000110b0       ??_C@_03JBIIJMDO@LDA?$AA@  00000001800630b0     LDAWrap.obj
 0002:000110b8       ??_C@_0CO@NKDIMPOD@SubspaceProject?5function?5require@ 00000001800630b8     LDAWrap.obj
 0002:000110e8       ??_C@_0BE@NKFNJEAI@subspaceReconstruct?$AA@ 00000001800630e8     LDAWrap.obj
 0002:00011100       ??_C@_0DC@IOCKJPNB@SubspaceReconstruct?5function?5req@ 0000000180063100     LDAWrap.obj
 0002:00011138       ??_7LDAWrap@@6B@           0000000180063138     LDAWrap.obj
 0002:00011150       ??_C@_08JDDNMFDB@node?4exe?$AA@ 0000000180063150     win_delay_load_hook.obj
 0002:00011160       ??_C@_08HCOMDCCD@iojs?4exe?$AA@ 0000000180063160     win_delay_load_hook.obj
 0002:000111c0       __real@3cb0000000000000    00000001800631c0     Calib3D.obj
 0002:000111c8       __real@3eb0c6f7a0b5ed8d    00000001800631c8     Calib3D.obj
 0002:000111d0       __real@3f847ae147ae147b    00000001800631d0     Matrix.obj
 0002:000111d8       __real@3f91df46a2529d39    00000001800631d8     Matrix.obj
 0002:000111e0       __real@3f947ae147ae147b    00000001800631e0     Features2d.obj
 0002:000111e8       __real@3fa47ae147ae147b    00000001800631e8     Matrix.obj
 0002:000111f0       __real@3fe0000000000000    00000001800631f0     Matrix.obj
 0002:000111f8       __real@3ff0000000000000    00000001800631f8     Matrix.obj
 0002:00011200       __real@3ff199999999999a    0000000180063200     CascadeClassifierWrap.obj
 0002:00011208       __real@4000000000000000    0000000180063208     Features2d.obj
 0002:00011210       __real@400921fb54442d18    0000000180063210     Constants.obj
 0002:00011218       __real@4024000000000000    0000000180063218     Matrix.obj
 0002:00011220       __real@403e000000000000    0000000180063220     Matrix.obj
 0002:00011228       __real@4054000000000000    0000000180063228     Matrix.obj
 0002:00011230       __real@4059000000000000    0000000180063230     Matrix.obj
 0002:00011238       __real@406fe00000000000    0000000180063238     Matrix.obj
 0002:00011240       __real@4076800000000000    0000000180063240     Matrix.obj
 0002:00011248       __real@43800000            0000000180063248     CamShift.obj
 0002:00011250       __real@43f0000000000000    0000000180063250     Contours.obj
 0002:00011258       __real@7fefffffffffffff    0000000180063258     FaceRecognizer.obj
 0002:00011260       __real@bff0000000000000    0000000180063260     Calib3D.obj
 0002:00011268       __real@c030000000000000    0000000180063268     Stereo.obj
 0002:00011270       __xmm@00000000000000004050400000000000 0000000180063270     CamShift.obj
 0002:00011280       __xmm@0000000000000000406fe00000000000 0000000180063280     Matrix.obj
 0002:00011290       __xmm@00000000000000004070000000000000 0000000180063290     CamShift.obj
 0002:000112a0       __xmm@404b8000000000000000000000000000 00000001800632a0     CamShift.obj
 0002:000112b0       __xmm@40700000000000004066800000000000 00000001800632b0     CamShift.obj
 0002:000112c0       __xmm@7fefffffffffffff7fefffffffffffff 00000001800632c0     Matrix.obj
 0002:00014520       __real@3f800000            0000000180066520     libucrt:ceilf.obj
 0002:00014588       _tls_used                  0000000180066588     LIBCMT:tlssup.obj
 0002:000145b0       ??_R4exception@std@@6B@    00000001800665b0     libcpmt:xthrow.obj
 0002:000145d8       ??_R3exception@std@@8      00000001800665d8     libcpmt:xthrow.obj
 0002:000145f0       ??_R2exception@std@@8      00000001800665f0     libcpmt:xthrow.obj
 0002:00014600       ??_R1A@?0A@EA@exception@std@@8 0000000180066600     libcpmt:xthrow.obj
 0002:00014628       ??_R4bad_alloc@std@@6B@    0000000180066628     libcpmt:xthrow.obj
 0002:00014650       ??_R3bad_alloc@std@@8      0000000180066650     libcpmt:xthrow.obj
 0002:00014668       ??_R2bad_alloc@std@@8      0000000180066668     libcpmt:xthrow.obj
 0002:00014680       ??_R1A@?0A@EA@bad_alloc@std@@8 0000000180066680     libcpmt:xthrow.obj
 0002:000146a8       ??_R4logic_error@std@@6B@  00000001800666a8     libcpmt:xthrow.obj
 0002:000146d0       ??_R3logic_error@std@@8    00000001800666d0     libcpmt:xthrow.obj
 0002:000146e8       ??_R2logic_error@std@@8    00000001800666e8     libcpmt:xthrow.obj
 0002:00014700       ??_R1A@?0A@EA@logic_error@std@@8 0000000180066700     libcpmt:xthrow.obj
 0002:00014728       ??_R4length_error@std@@6B@ 0000000180066728     libcpmt:xthrow.obj
 0002:00014750       ??_R3length_error@std@@8   0000000180066750     libcpmt:xthrow.obj
 0002:00014768       ??_R2length_error@std@@8   0000000180066768     libcpmt:xthrow.obj
 0002:00014788       ??_R1A@?0A@EA@length_error@std@@8 0000000180066788     libcpmt:xthrow.obj
 0002:000147b0       ??_R4out_of_range@std@@6B@ 00000001800667b0     libcpmt:xthrow.obj
 0002:000147d8       ??_R3out_of_range@std@@8   00000001800667d8     libcpmt:xthrow.obj
 0002:000147f0       ??_R2out_of_range@std@@8   00000001800667f0     libcpmt:xthrow.obj
 0002:00014810       ??_R1A@?0A@EA@out_of_range@std@@8 0000000180066810     libcpmt:xthrow.obj
 0002:00014838       ??_R4type_info@@6B@        0000000180066838     LIBCMT:std_type_info_static.obj
 0002:00014860       ??_R3type_info@@8          0000000180066860     LIBCMT:std_type_info_static.obj
 0002:00014878       ??_R2type_info@@8          0000000180066878     LIBCMT:std_type_info_static.obj
 0002:00014888       ??_R1A@?0A@EA@type_info@@8 0000000180066888     LIBCMT:std_type_info_static.obj
 0002:000148b0       ??_R4bad_array_new_length@std@@6B@ 00000001800668b0     LIBCMT:throw_bad_alloc.obj
 0002:000148d8       ??_R3bad_array_new_length@std@@8 00000001800668d8     LIBCMT:throw_bad_alloc.obj
 0002:000148f0       ??_R2bad_array_new_length@std@@8 00000001800668f0     LIBCMT:throw_bad_alloc.obj
 0002:00014910       ??_R1A@?0A@EA@bad_array_new_length@std@@8 0000000180066910     LIBCMT:throw_bad_alloc.obj
 0002:00014938       ??_R4bad_exception@std@@6B@ 0000000180066938     libvcruntime:frame.obj
 0002:00014960       ??_R3bad_exception@std@@8  0000000180066960     libvcruntime:frame.obj
 0002:00014978       ??_R2bad_exception@std@@8  0000000180066978     libvcruntime:frame.obj
 0002:00014990       ??_R1A@?0A@EA@bad_exception@std@@8 0000000180066990     libvcruntime:frame.obj
 0002:000149b8       ?_TraceLoggingMetadata@?1??_TlgWrite@__vcrt_trace_logging_provider@@YAJPEBU_TlgProvider_t@2@PEFBXPEBU_GUID@@2IPEAU_EVENT_DATA_DESCRIPTOR@@@Z@4U_TraceLoggingMetadata_t@2@B 00000001800669b8     libvcruntime:telemetry.obj
 0002:00014a6b       ?_TraceLoggingMetadataEnd@?1??_TlgWrite@__vcrt_trace_logging_provider@@YAJPEBU_TlgProvider_t@2@PEFBXPEBU_GUID@@2IPEAU_EVENT_DATA_DESCRIPTOR@@@Z@4EB 0000000180066a6b     libvcruntime:telemetry.obj
 0002:00014f88       __rtc_iaa                  0000000180066f88     LIBCMT:_initsect_.obj
 0002:00014f90       __rtc_izz                  0000000180066f90     LIBCMT:_initsect_.obj
 0002:00014f98       __rtc_taa                  0000000180066f98     LIBCMT:_initsect_.obj
 0002:00014fa0       __rtc_tzz                  0000000180066fa0     LIBCMT:_initsect_.obj
 0002:0001eaf8       _TI2?AVbad_alloc@std@@     0000000180070af8     libcpmt:xthrow.obj
 0002:0001eb18       _CTA2?AVbad_alloc@std@@    0000000180070b18     libcpmt:xthrow.obj
 0002:0001eb30       _CT??_R0?AVbad_alloc@std@@@8??0bad_alloc@std@@QEAA@AEBV01@@Z24 0000000180070b30     libcpmt:xthrow.obj
 0002:0001eb58       _CT??_R0?AVexception@std@@@8??0exception@std@@QEAA@AEBV01@@Z24 0000000180070b58     libcpmt:xthrow.obj
 0002:0001eb80       _CT??_R0?AVlogic_error@std@@@8??0logic_error@std@@QEAA@AEBV01@@Z24 0000000180070b80     libcpmt:xthrow.obj
 0002:0001eba8       _TI3?AVlength_error@std@@  0000000180070ba8     libcpmt:xthrow.obj
 0002:0001ebc8       _CTA3?AVlength_error@std@@ 0000000180070bc8     libcpmt:xthrow.obj
 0002:0001ebe8       _CT??_R0?AVlength_error@std@@@8??0length_error@std@@QEAA@AEBV01@@Z24 0000000180070be8     libcpmt:xthrow.obj
 0002:0001ec10       _TI3?AVout_of_range@std@@  0000000180070c10     libcpmt:xthrow.obj
 0002:0001ec30       _CTA3?AVout_of_range@std@@ 0000000180070c30     libcpmt:xthrow.obj
 0002:0001ec50       _CT??_R0?AVout_of_range@std@@@8??0out_of_range@std@@QEAA@AEBV01@@Z24 0000000180070c50     libcpmt:xthrow.obj
 0002:0001ec78       _TI3?AVbad_array_new_length@std@@ 0000000180070c78     LIBCMT:throw_bad_alloc.obj
 0002:0001ec98       _CTA3?AVbad_array_new_length@std@@ 0000000180070c98     LIBCMT:throw_bad_alloc.obj
 0002:0001ecb8       _CT??_R0?AVbad_array_new_length@std@@@8??0bad_array_new_length@std@@QEAA@AEBV01@@Z24 0000000180070cb8     LIBCMT:throw_bad_alloc.obj
 0002:0001ece0       _TI2?AVbad_exception@std@@ 0000000180070ce0     libvcruntime:frame.obj
 0002:0001ed00       _CTA2?AVbad_exception@std@@ 0000000180070d00     libvcruntime:frame.obj
 0002:0001ed18       _CT??_R0?AVbad_exception@std@@@8??0bad_exception@std@@QEAA@AEBV01@@Z24 0000000180070d18     libvcruntime:frame.obj
 0002:0001ed3c       __DELAY_IMPORT_DESCRIPTOR_node_exe 0000000180070d3c     node:node.exe
 0002:0001ed5c       __NULL_DELAY_IMPORT_DESCRIPTOR 0000000180070d5c     node:node.exe
 0002:0001f048       \177node_NULL_THUNK_DATA_DLN 0000000180071048     node:node.exe
 0002:000205e0       \177node_NULL_THUNK_DATA_DLB 00000001800725e0     node:node.exe
 0002:00020900       __IMPORT_DESCRIPTOR_KERNEL32 0000000180072900     kernel32:KERNEL32.dll
 0002:00020914       __IMPORT_DESCRIPTOR_opencv_calib3d2413 0000000180072914     opencv_calib3d2413:opencv_calib3d2413.dll
 0002:00020928       __IMPORT_DESCRIPTOR_opencv_contrib2413 0000000180072928     opencv_contrib2413:opencv_contrib2413.dll
 0002:0002093c       __IMPORT_DESCRIPTOR_opencv_core2413 000000018007293c     opencv_core2413:opencv_core2413.dll
 0002:00020950       __IMPORT_DESCRIPTOR_opencv_features2d2413 0000000180072950     opencv_features2d2413:opencv_features2d2413.dll
 0002:00020964       __IMPORT_DESCRIPTOR_opencv_highgui2413 0000000180072964     opencv_highgui2413:opencv_highgui2413.dll
 0002:00020978       __IMPORT_DESCRIPTOR_opencv_imgproc2413 0000000180072978     opencv_imgproc2413:opencv_imgproc2413.dll
 0002:0002098c       __IMPORT_DESCRIPTOR_opencv_legacy2413 000000018007298c     opencv_legacy2413:opencv_legacy2413.dll
 0002:000209a0       __IMPORT_DESCRIPTOR_opencv_objdetect2413 00000001800729a0     opencv_objdetect2413:opencv_objdetect2413.dll
 0002:000209b4       __IMPORT_DESCRIPTOR_opencv_video2413 00000001800729b4     opencv_video2413:opencv_video2413.dll
 0002:000209c8       __IMPORT_DESCRIPTOR_ADVAPI32 00000001800729c8     advapi32:ADVAPI32.dll
 0002:000209dc       __NULL_IMPORT_DESCRIPTOR   00000001800729dc     kernel32:KERNEL32.dll
 0003:00000020       ?_PJP_CPP_Copyright@@3PADA 0000000180077020     libcpmt:iosptrs.obj
 0003:00000080       _Init_global_epoch         0000000180077080     LIBCMT:thread_safe_statics.obj
 0003:00000084       __scrt_native_dllmain_reason 0000000180077084     LIBCMT:utility.obj
 0003:00000088       __security_cookie          0000000180077088     LIBCMT:gs_cookie.obj
 0003:00000090       __security_cookie_complement 0000000180077090     LIBCMT:gs_cookie.obj
 0003:00000098       _fltused                   0000000180077098     LIBCMT:fltused.obj
 0003:000000a0       __isa_available            00000001800770a0     LIBCMT:_cpu_disp_.obj
 0003:000000a4       __isa_enabled              00000001800770a4     LIBCMT:_cpu_disp_.obj
 0003:000000a8       __memcpy_nt_iters          00000001800770a8     LIBCMT:_cpu_disp_.obj
 0003:00000110       __abort_behavior           0000000180077110     libucrt:abort.obj
 0003:00000120       __acrt_lconv_c             0000000180077120     libucrt:localeconv.obj
 0003:000001b8       __acrt_lconv_static_decimal 00000001800771b8     libucrt:localeconv.obj
 0003:000001bc       __acrt_lconv_static_W_decimal 00000001800771bc     libucrt:localeconv.obj
 0003:000001c0       _iob                       00000001800771c0     libucrt:_file.obj
 0003:000002c8       _pwctype                   00000001800772c8     libucrt:ctype.obj
 0003:000002f0       __acrt_initial_locale_data 00000001800772f0     libucrt:nlsdata.obj
 0003:00000448       __acrt_initial_locale_pointers 0000000180077448     libucrt:nlsdata.obj
 0003:00000458       __acrt_wide_c_locale_string 0000000180077458     libucrt:nlsdata.obj
 0003:00000460       __badioinfo                0000000180077460     libucrt:ioinit.obj
 0003:000004a4       __globallocalestatus       00000001800774a4     libucrt:glstatus.obj
 0003:00000540       __acrt_initial_multibyte_data 0000000180077540     libucrt:mbctype.obj
 0003:00000768       __acrt_current_multibyte_data 0000000180077768     libucrt:mbctype.obj
 0003:00000870       _mbctype                   0000000180077870     libucrt:mbctype.obj
 0003:00000980       _mbcasemap                 0000000180077980     libucrt:mbctype.obj
 0003:00000a90       __dcrt_lowio_console_output_handle 0000000180077a90     libucrt:initcon.obj
 0003:00000ae0       __pfnDliNotifyHook2        0000000180077ae0     win_delay_load_hook.obj
 0003:00000af0       ??_R0?AVbad_alloc@std@@@8  0000000180077af0     libcpmt:xthrow.obj
 0003:00000b18       ??_R0?AVexception@std@@@8  0000000180077b18     libcpmt:xthrow.obj
 0003:00000b40       ??_R0?AVlogic_error@std@@@8 0000000180077b40     libcpmt:xthrow.obj
 0003:00000b68       ??_R0?AVlength_error@std@@@8 0000000180077b68     libcpmt:xthrow.obj
 0003:00000b90       ??_R0?AVout_of_range@std@@@8 0000000180077b90     libcpmt:xthrow.obj
 0003:00000bb8       ??_R0?AVtype_info@@@8      0000000180077bb8     LIBCMT:std_type_info_static.obj
 0003:00000bd8       ??_R0?AVbad_array_new_length@std@@@8 0000000180077bd8     LIBCMT:throw_bad_alloc.obj
 0003:00000c08       ??_R0?AVbad_exception@std@@@8 0000000180077c08     libvcruntime:frame.obj
 0003:00000c30       ??_R0?AVException@cv@@@8   0000000180077c30     Matrix.obj
 0003:00000c58       __imp_?GetCurrent@Isolate@v8@@SAPEAV12@XZ 0000000180077c58     node:node.exe
 0003:00000c60       __imp_??1HandleScope@v8@@QEAA@XZ 0000000180077c60     node:node.exe
 0003:00000c68       __imp_??0HandleScope@v8@@QEAA@PEAVIsolate@1@@Z 0000000180077c68     node:node.exe
 0003:00000c70       __imp_node_module_register 0000000180077c70     node:node.exe
 0003:00000c78       __imp_uv_queue_work        0000000180077c78     node:node.exe
 0003:00000c80       __imp_?Global@Context@v8@@QEAA?AV?$Local@VObject@v8@@@2@XZ 0000000180077c80     node:node.exe
 0003:00000c88       __imp_?Value@External@v8@@QEBAPEAXXZ 0000000180077c88     node:node.exe
 0003:00000c90       __imp_?New@External@v8@@SA?AV?$Local@VExternal@v8@@@2@PEAVIsolate@2@PEAX@Z 0000000180077c90     node:node.exe
 0003:00000c98       __imp_?NewFromUnsigned@Integer@v8@@SA?AV?$Local@VInteger@v8@@@2@PEAVIsolate@2@I@Z 0000000180077c98     node:node.exe
 0003:00000ca0       __imp_?New@Integer@v8@@SA?AV?$Local@VInteger@v8@@@2@PEAVIsolate@2@H@Z 0000000180077ca0     node:node.exe
 0003:00000ca8       __imp_?New@Signature@v8@@SA?AV?$Local@VSignature@v8@@@2@PEAVIsolate@2@V?$Local@VFunctionTemplate@v8@@@2@@Z 0000000180077ca8     node:node.exe
 0003:00000cb0       __imp_?ThrowException@Isolate@v8@@QEAA?AV?$Local@VValue@v8@@@2@V32@@Z 0000000180077cb0     node:node.exe
 0003:00000cb8       __imp_?GetCurrentContext@Isolate@v8@@QEAA?AV?$Local@VContext@v8@@@2@XZ 0000000180077cb8     node:node.exe
 0003:00000cc0       __imp_?CreateHandle@HandleScope@v8@@KAPEAPEAVObject@internal@2@PEAVIsolate@42@PEAV342@@Z 0000000180077cc0     node:node.exe
 0003:00000cc8       __imp_?CreateHandle@HandleScope@v8@@CAPEAPEAVObject@internal@2@PEAVHeapObject@42@PEAV342@@Z 0000000180077cc8     node:node.exe
 0003:00000cd0       __imp_?Set@Template@v8@@QEAAXV?$Local@VName@v8@@@2@V?$Local@VData@v8@@@2@W4PropertyAttribute@2@@Z 0000000180077cd0     node:node.exe
 0003:00000cd8       __imp_?Error@Exception@v8@@SA?AV?$Local@VValue@v8@@@2@V?$Local@VString@v8@@@2@@Z 0000000180077cd8     node:node.exe
 0003:00000ce0       __imp_?TypeError@Exception@v8@@SA?AV?$Local@VValue@v8@@@2@V?$Local@VString@v8@@@2@@Z 0000000180077ce0     node:node.exe
 0003:00000ce8       __imp_?New@Array@v8@@SA?AV?$Local@VArray@v8@@@2@PEAVIsolate@2@H@Z 0000000180077ce8     node:node.exe
 0003:00000cf0       __imp_?Length@Array@v8@@QEBAIXZ 0000000180077cf0     node:node.exe
 0003:00000cf8       __imp_?SetClassName@FunctionTemplate@v8@@QEAAXV?$Local@VString@v8@@@2@@Z 0000000180077cf8     node:node.exe
 0003:00000d00       __imp_?PrototypeTemplate@FunctionTemplate@v8@@QEAA?AV?$Local@VObjectTemplate@v8@@@2@XZ 0000000180077d00     node:node.exe
 0003:00000d08       __imp_?InstanceTemplate@FunctionTemplate@v8@@QEAA?AV?$Local@VObjectTemplate@v8@@@2@XZ 0000000180077d08     node:node.exe
 0003:00000d10       __imp_?GetFunction@FunctionTemplate@v8@@QEAA?AV?$Local@VFunction@v8@@@2@XZ 0000000180077d10     node:node.exe
 0003:00000d18       __imp_?New@FunctionTemplate@v8@@SA?AV?$Local@VFunctionTemplate@v8@@@2@PEAVIsolate@2@P6AXAEBV?$FunctionCallbackInfo@VValue@v8@@@2@@ZV?$Local@VValue@v8@@@2@V?$Local@VSignature@v8@@@2@HW4ConstructorBehavior@2@@Z 0000000180077d18     node:node.exe
 0003:00000d20       __imp_?ToLocalEmpty@V8@v8@@CAXXZ 0000000180077d20     node:node.exe
 0003:00000d28       __imp_?ClearWeak@V8@v8@@CAPEAXPEAPEAVObject@internal@2@@Z 0000000180077d28     node:node.exe
 0003:00000d30       __imp_?MakeWeak@V8@v8@@CAXPEAPEAVObject@internal@2@PEAXP6AXAEBV?$WeakCallbackInfo@X@2@@ZW4WeakCallbackType@2@@Z 0000000180077d30     node:node.exe
 0003:00000d38       __imp_?DisposeGlobal@V8@v8@@CAXPEAPEAVObject@internal@2@@Z 0000000180077d38     node:node.exe
 0003:00000d40       __imp_?GlobalizeReference@V8@v8@@CAPEAPEAVObject@internal@2@PEAVIsolate@42@PEAPEAV342@@Z 0000000180077d40     node:node.exe
 0003:00000d48       __imp_?Uint32Value@Value@v8@@QEBAIXZ 0000000180077d48     node:node.exe
 0003:00000d50       __imp_?IntegerValue@Value@v8@@QEBA_JXZ 0000000180077d50     node:node.exe
 0003:00000d58       __imp_?NumberValue@Value@v8@@QEBANXZ 0000000180077d58     node:node.exe
 0003:00000d60       __imp_?BooleanValue@Value@v8@@QEBA_NXZ 0000000180077d60     node:node.exe
 0003:00000d68       __imp_?ToInteger@Value@v8@@QEBA?AV?$MaybeLocal@VInteger@v8@@@2@V?$Local@VContext@v8@@@2@@Z 0000000180077d68     node:node.exe
 0003:00000d70       __imp_?IsInt32@Value@v8@@QEBA_NXZ 0000000180077d70     node:node.exe
 0003:00000d78       __imp_?IsNumber@Value@v8@@QEBA_NXZ 0000000180077d78     node:node.exe
 0003:00000d80       __imp_?IsObject@Value@v8@@QEBA_NXZ 0000000180077d80     node:node.exe
 0003:00000d88       __imp_?IsArray@Value@v8@@QEBA_NXZ 0000000180077d88     node:node.exe
 0003:00000d90       __imp_?IsFunction@Value@v8@@QEBA_NXZ 0000000180077d90     node:node.exe
 0003:00000d98       __imp_?HasCaught@TryCatch@v8@@QEBA_NXZ 0000000180077d98     node:node.exe
 0003:00000da0       __imp_??1TryCatch@v8@@QEAA@XZ 0000000180077da0     node:node.exe
 0003:00000da8       __imp_??0TryCatch@v8@@QEAA@PEAVIsolate@1@@Z 0000000180077da8     node:node.exe
 0003:00000db0       __imp_?Escape@EscapableHandleScope@v8@@AEAAPEAPEAVObject@internal@2@PEAPEAV342@@Z 0000000180077db0     node:node.exe
 0003:00000db8       __imp_??0EscapableHandleScope@v8@@QEAA@PEAVIsolate@1@@Z 0000000180077db8     node:node.exe
 0003:00000dc0       __imp_??1Utf8Value@String@v8@@QEAA@XZ 0000000180077dc0     node:node.exe
 0003:00000dc8       __imp_??0Utf8Value@String@v8@@QEAA@V?$Local@VValue@v8@@@2@@Z 0000000180077dc8     node:node.exe
 0003:00000dd0       __imp_?NewFromUtf8@String@v8@@SA?AV?$MaybeLocal@VString@v8@@@2@PEAVIsolate@2@PEBDW4NewStringType@2@H@Z 0000000180077dd0     node:node.exe
 0003:00000dd8       __imp_?WriteUtf8@String@v8@@QEBAHPEADHPEAHH@Z 0000000180077dd8     node:node.exe
 0003:00000de0       __imp_?Length@String@v8@@QEBAHXZ 0000000180077de0     node:node.exe
 0003:00000de8       __imp_?Value@Int32@v8@@QEBAHXZ 0000000180077de8     node:node.exe
 0003:00000df0       __imp_?New@Number@v8@@SA?AV?$Local@VNumber@v8@@@2@PEAVIsolate@2@N@Z 0000000180077df0     node:node.exe
 0003:00000df8       __imp_?Value@Number@v8@@QEBANXZ 0000000180077df8     node:node.exe
 0003:00000e00       __imp_?SlowGetAlignedPointerFromInternalField@Object@v8@@AEAAPEAXH@Z 0000000180077e00     node:node.exe
 0003:00000e08       __imp_?SlowGetInternalField@Object@v8@@AEAA?AV?$Local@VValue@v8@@@2@H@Z 0000000180077e08     node:node.exe
 0003:00000e10       __imp_?New@Object@v8@@SA?AV?$Local@VObject@v8@@@2@PEAVIsolate@2@@Z 0000000180077e10     node:node.exe
 0003:00000e18       __imp_?SetAlignedPointerInInternalField@Object@v8@@QEAAXHPEAX@Z 0000000180077e18     node:node.exe
 0003:00000e20       __imp_?SetInternalField@Object@v8@@QEAAXHV?$Local@VValue@v8@@@2@@Z 0000000180077e20     node:node.exe
 0003:00000e28       __imp_?InternalFieldCount@Object@v8@@QEAAHXZ 0000000180077e28     node:node.exe
 0003:00000e30       __imp_?Has@Object@v8@@QEAA_NV?$Local@VValue@v8@@@2@@Z 0000000180077e30     node:node.exe
 0003:00000e38       __imp_?Get@Object@v8@@QEAA?AV?$Local@VValue@v8@@@2@V32@@Z 0000000180077e38     node:node.exe
 0003:00000e40       __imp_?Get@Object@v8@@QEAA?AV?$Local@VValue@v8@@@2@I@Z 0000000180077e40     node:node.exe
 0003:00000e48       __imp_?Set@Object@v8@@QEAA_NV?$Local@VValue@v8@@@2@0@Z 0000000180077e48     node:node.exe
 0003:00000e50       __imp_?Set@Object@v8@@QEAA_NIV?$Local@VValue@v8@@@2@@Z 0000000180077e50     node:node.exe
 0003:00000e58       __imp_?NewInstance@Function@v8@@QEBA?AV?$Local@VObject@v8@@@2@HQEAV?$Local@VValue@v8@@@2@@Z 0000000180077e58     node:node.exe
 0003:00000e60       __imp_?NewInstance@Function@v8@@QEBA?AV?$Local@VObject@v8@@@2@XZ 0000000180077e60     node:node.exe
 0003:00000e68       __imp_?SetInternalFieldCount@ObjectTemplate@v8@@QEAAXH@Z 0000000180077e68     node:node.exe
 0003:00000e70       __imp_?NewInstance@ObjectTemplate@v8@@QEAA?AV?$MaybeLocal@VObject@v8@@@2@V?$Local@VContext@v8@@@2@@Z 0000000180077e70     node:node.exe
 0003:00000e78       __imp_?New@ObjectTemplate@v8@@SA?AV?$Local@VObjectTemplate@v8@@@2@PEAVIsolate@2@V?$Local@VFunctionTemplate@v8@@@2@@Z 0000000180077e78     node:node.exe
 0003:00000e80       __imp_?FatalException@node@@YAXPEAVIsolate@v8@@AEBVTryCatch@3@@Z 0000000180077e80     node:node.exe
 0003:00000e88       __imp_?HasInstance@Buffer@node@@YA_NV?$Local@VValue@v8@@@v8@@@Z 0000000180077e88     node:node.exe
 0003:00000e90       __imp_?New@Buffer@node@@YA?AV?$MaybeLocal@VObject@v8@@@v8@@PEAVIsolate@4@_K@Z 0000000180077e90     node:node.exe
 0003:00000e98       __imp_?New@Buffer@node@@YA?AV?$MaybeLocal@VObject@v8@@@v8@@PEAVIsolate@4@PEAD_K@Z 0000000180077e98     node:node.exe
 0003:00000ea0       __imp_?Data@Buffer@node@@YAPEADV?$Local@VValue@v8@@@v8@@@Z 0000000180077ea0     node:node.exe
 0003:00000ea8       __imp_?Data@Buffer@node@@YAPEADV?$Local@VObject@v8@@@v8@@@Z 0000000180077ea8     node:node.exe
 0003:00000eb0       __imp_?Length@Buffer@node@@YA_KV?$Local@VValue@v8@@@v8@@@Z 0000000180077eb0     node:node.exe
 0003:00000eb8       __imp_?MakeCallback@node@@YA?AV?$Local@VValue@v8@@@v8@@PEAVIsolate@3@V?$Local@VObject@v8@@@3@V?$Local@VFunction@v8@@@3@HPEAV23@@Z 0000000180077eb8     node:node.exe
 0003:00000ec0       __imp_uv_default_loop      0000000180077ec0     node:node.exe
 0003:00000ec8       __imp_?ToInt32@Value@v8@@QEBA?AV?$Local@VInt32@v8@@@2@XZ 0000000180077ec8     node:node.exe
 0003:00000ed0       __imp_?ToObject@Value@v8@@QEBA?AV?$Local@VObject@v8@@@2@XZ 0000000180077ed0     node:node.exe
 0003:00000ed8       __imp_?ToString@Value@v8@@QEBA?AV?$Local@VString@v8@@@2@XZ 0000000180077ed8     node:node.exe
 0003:00000ee0       __imp_?ToNumber@Value@v8@@QEBA?AV?$Local@VNumber@v8@@@2@XZ 0000000180077ee0     node:node.exe
 0003:00000ee8       __imp_??1EscapableHandleScope@v8@@QEAA@XZ 0000000180077ee8     node:node.exe
 0003:00000ef0       __imp_?GetFunction@FunctionTemplate@v8@@QEAA?AV?$MaybeLocal@VFunction@v8@@@2@V?$Local@VContext@v8@@@2@@Z 0000000180077ef0     node:node.exe
 0003:00000ef8       __imp_?Call@Function@v8@@QEAA?AV?$Local@VValue@v8@@@2@V32@HQEAV32@@Z 0000000180077ef8     node:node.exe
 0003:00000f00       __imp_?Length@Buffer@node@@YA_KV?$Local@VObject@v8@@@v8@@@Z 0000000180077f00     node:node.exe
 0003:00000f08       __imp_?SetAccessor@ObjectTemplate@v8@@QEAAXV?$Local@VName@v8@@@2@P6AX0AEBV?$PropertyCallbackInfo@VValue@v8@@@2@@ZP6AX0V?$Local@VValue@v8@@@2@AEBV?$PropertyCallbackInfo@X@2@@Z3W4AccessControl@2@W4PropertyAttribute@2@V?$Local@VAccessorSignature@v8@@@2@@Z 0000000180077f08     node:node.exe
 0003:00000f10       __imp_?Value@Boolean@v8@@QEBA_NXZ 0000000180077f10     node:node.exe
 0003:00000f18       __imp_?ToBoolean@Value@v8@@QEBA?AV?$Local@VBoolean@v8@@@2@XZ 0000000180077f18     node:node.exe
 0003:00000f20       \177node_NULL_THUNK_DATA_DLA 0000000180077f20     node:node.exe
 0003:00000f30       __hmod__node_exe           0000000180077f30     node:node.exe
 0003:00001098       ?_Id_cnt@id@locale@std@@0HA 0000000180078098     libcpmt:locale0.obj
 0003:000010a0       ?_Clocptr@_Locimp@locale@std@@0PEAV123@EA 00000001800780a0     libcpmt:locale0.obj
 0003:000010b0       ?id@?$ctype@_W@std@@2V0locale@2@A 00000001800780b0     libcpmt:locale0.obj
 0003:000010b8       ?id@?$ctype@D@std@@2V0locale@2@A 00000001800780b8     libcpmt:locale0.obj
 0003:000010c0       ?id@?$codecvt@GDU_Mbstatet@@@std@@2V0locale@2@A 00000001800780c0     libcpmt:locale0.obj
 0003:000010c8       ?id@?$ctype@G@std@@2V0locale@2@A 00000001800780c8     libcpmt:locale0.obj
 0003:000010e0       ?id@?$codecvt@_WDU_Mbstatet@@@std@@2V0locale@2@A 00000001800780e0     libcpmt:locale0.obj
 0003:000010f0       ?_Raise_handler@std@@3P6AXAEBVexception@stdext@@@ZEA 00000001800780f0     libcpmt:raisehan.obj
 0003:00001150       ?_Ptr_cin@std@@3PEAV?$basic_istream@DU?$char_traits@D@std@@@1@EA 0000000180078150     libcpmt:iosptrs.obj
 0003:00001158       ?_Ptr_cout@std@@3PEAV?$basic_ostream@DU?$char_traits@D@std@@@1@EA 0000000180078158     libcpmt:iosptrs.obj
 0003:00001160       ?_Ptr_cerr@std@@3PEAV?$basic_ostream@DU?$char_traits@D@std@@@1@EA 0000000180078160     libcpmt:iosptrs.obj
 0003:00001168       ?_Ptr_clog@std@@3PEAV?$basic_ostream@DU?$char_traits@D@std@@@1@EA 0000000180078168     libcpmt:iosptrs.obj
 0003:00001170       ?_Ptr_wcin@std@@3PEAV?$basic_istream@_WU?$char_traits@_W@std@@@1@EA 0000000180078170     libcpmt:iosptrs.obj
 0003:00001178       ?_Ptr_wcout@std@@3PEAV?$basic_ostream@_WU?$char_traits@_W@std@@@1@EA 0000000180078178     libcpmt:iosptrs.obj
 0003:00001180       ?_Ptr_wcerr@std@@3PEAV?$basic_ostream@_WU?$char_traits@_W@std@@@1@EA 0000000180078180     libcpmt:iosptrs.obj
 0003:00001188       ?_Ptr_wclog@std@@3PEAV?$basic_ostream@_WU?$char_traits@_W@std@@@1@EA 0000000180078188     libcpmt:iosptrs.obj
 0003:00001198       ?id@?$num_get@DV?$istreambuf_iterator@DU?$char_traits@D@std@@@std@@@std@@2V0locale@2@A 0000000180078198     libcpmt:locale.obj
 0003:000011a0       ?id@?$codecvt@DDU_Mbstatet@@@std@@2V0locale@2@A 00000001800781a0     libcpmt:locale.obj
 0003:000011b0       __encodedKERNEL32Functions 00000001800781b0     libcpmt:winapisupp.obj
 0003:000012f0       ?id@?$time_put@_WV?$ostreambuf_iterator@_WU?$char_traits@_W@std@@@std@@@std@@2V0locale@2@A 00000001800782f0     libcpmt:wlocale.obj
 0003:000012f8       ?id@?$num_get@_WV?$istreambuf_iterator@_WU?$char_traits@_W@std@@@std@@@std@@2V0locale@2@A 00000001800782f8     libcpmt:wlocale.obj
 0003:00001300       ?id@?$num_put@_WV?$ostreambuf_iterator@_WU?$char_traits@_W@std@@@std@@@std@@2V0locale@2@A 0000000180078300     libcpmt:wlocale.obj
 0003:00001308       ?id@?$numpunct@_W@std@@2V0locale@2@A 0000000180078308     libcpmt:wlocale.obj
 0003:00001310       ?id@?$collate@_W@std@@2V0locale@2@A 0000000180078310     libcpmt:wlocale.obj
 0003:00001318       ?id@?$messages@_W@std@@2V0locale@2@A 0000000180078318     libcpmt:wlocale.obj
 0003:00001320       ?id@?$money_get@_WV?$istreambuf_iterator@_WU?$char_traits@_W@std@@@std@@@std@@2V0locale@2@A 0000000180078320     libcpmt:wlocale.obj
 0003:00001328       ?id@?$money_put@_WV?$ostreambuf_iterator@_WU?$char_traits@_W@std@@@std@@@std@@2V0locale@2@A 0000000180078328     libcpmt:wlocale.obj
 0003:00001330       ?id@?$moneypunct@_W$0A@@std@@2V0locale@2@A 0000000180078330     libcpmt:wlocale.obj
 0003:00001338       ?id@?$moneypunct@_W$00@std@@2V0locale@2@A 0000000180078338     libcpmt:wlocale.obj
 0003:00001340       ?id@?$time_get@_WV?$istreambuf_iterator@_WU?$char_traits@_W@std@@@std@@@std@@2V0locale@2@A 0000000180078340     libcpmt:wlocale.obj
 0003:00001348       ?id@?$num_get@GV?$istreambuf_iterator@GU?$char_traits@G@std@@@std@@@std@@2V0locale@2@A 0000000180078348     libcpmt:wlocale.obj
 0003:00001350       ?id@?$num_put@GV?$ostreambuf_iterator@GU?$char_traits@G@std@@@std@@@std@@2V0locale@2@A 0000000180078350     libcpmt:wlocale.obj
 0003:00001358       ?id@?$numpunct@G@std@@2V0locale@2@A 0000000180078358     libcpmt:wlocale.obj
 0003:00001360       ?id@?$collate@G@std@@2V0locale@2@A 0000000180078360     libcpmt:wlocale.obj
 0003:00001368       ?id@?$messages@G@std@@2V0locale@2@A 0000000180078368     libcpmt:wlocale.obj
 0003:00001370       ?id@?$money_get@GV?$istreambuf_iterator@GU?$char_traits@G@std@@@std@@@std@@2V0locale@2@A 0000000180078370     libcpmt:wlocale.obj
 0003:00001378       ?id@?$money_put@GV?$ostreambuf_iterator@GU?$char_traits@G@std@@@std@@@std@@2V0locale@2@A 0000000180078378     libcpmt:wlocale.obj
 0003:00001380       ?id@?$moneypunct@G$0A@@std@@2V0locale@2@A 0000000180078380     libcpmt:wlocale.obj
 0003:00001388       ?id@?$moneypunct@G$00@std@@2V0locale@2@A 0000000180078388     libcpmt:wlocale.obj
 0003:00001390       ?id@?$time_get@GV?$istreambuf_iterator@GU?$char_traits@G@std@@@std@@@std@@2V0locale@2@A 0000000180078390     libcpmt:wlocale.obj
 0003:00001398       ?id@?$time_put@GV?$ostreambuf_iterator@GU?$char_traits@G@std@@@std@@@std@@2V0locale@2@A 0000000180078398     libcpmt:wlocale.obj
 0003:000013a0       ?id@?$collate@D@std@@2V0locale@2@A 00000001800783a0     libcpmt:xlocale.obj
 0003:000013a8       ?id@?$messages@D@std@@2V0locale@2@A 00000001800783a8     libcpmt:xlocale.obj
 0003:000013b0       ?id@?$money_get@DV?$istreambuf_iterator@DU?$char_traits@D@std@@@std@@@std@@2V0locale@2@A 00000001800783b0     libcpmt:xlocale.obj
 0003:000013b8       ?id@?$money_put@DV?$ostreambuf_iterator@DU?$char_traits@D@std@@@std@@@std@@2V0locale@2@A 00000001800783b8     libcpmt:xlocale.obj
 0003:000013c0       ?id@?$moneypunct@D$0A@@std@@2V0locale@2@A 00000001800783c0     libcpmt:xlocale.obj
 0003:000013c8       ?id@?$moneypunct@D$00@std@@2V0locale@2@A 00000001800783c8     libcpmt:xlocale.obj
 0003:000013d0       ?id@?$time_get@DV?$istreambuf_iterator@DU?$char_traits@D@std@@@std@@@std@@2V0locale@2@A 00000001800783d0     libcpmt:xlocale.obj
 0003:000013d8       ?id@?$time_put@DV?$ostreambuf_iterator@DU?$char_traits@D@std@@@std@@@std@@2V0locale@2@A 00000001800783d8     libcpmt:xlocale.obj
 0003:00001428       __scrt_current_native_startup_state 0000000180078428     LIBCMT:utility.obj
 0003:00001430       __scrt_native_startup_lock 0000000180078430     LIBCMT:utility.obj
 0003:000019e0       __scrt_debugger_hook_flag  00000001800789e0     LIBCMT:utility_desktop.obj
 0003:000019e4       _tls_index                 00000001800789e4     LIBCMT:tlssup.obj
 0003:000019e8       __favor                    00000001800789e8     LIBCMT:_cpu_disp_.obj
 0003:000019f0       ?__type_info_root_node@@3U__type_info_node@@A 00000001800789f0     LIBCMT:tncleanup.obj
 0003:00001a00       ?_OptionsStorage@?1??__local_stdio_scanf_options@@9@4_KA 0000000180078a00     LIBCMT:default_local_stdio_options.obj
 0003:00001a08       ?g_OutOfMemoryExceptionCallback@@3P6APEAXXZEA 0000000180078a08     libvcruntime:frame.obj
 0003:00001a78       __pPurecall                0000000180078a78     libvcruntime:purevirt_data.obj
 0003:00001b28       ?pArgList@UnDecorator@@0PEAVReplicator@@EA 0000000180078b28     libvcruntime:undname.obj
 0003:00001b30       ?pZNameList@UnDecorator@@0PEAVReplicator@@EA 0000000180078b30     libvcruntime:undname.obj
 0003:00001b38       ?pTemplateArgList@UnDecorator@@0PEAVReplicator@@EA 0000000180078b38     libvcruntime:undname.obj
 0003:00001b40       ?gName@UnDecorator@@0PEBDEB 0000000180078b40     libvcruntime:undname.obj
 0003:00001b48       ?name@UnDecorator@@0PEBDEB 0000000180078b48     libvcruntime:undname.obj
 0003:00001b50       ?outputString@UnDecorator@@0PEADEA 0000000180078b50     libvcruntime:undname.obj
 0003:00001b58       ?maxStringLength@UnDecorator@@0HA 0000000180078b58     libvcruntime:undname.obj
 0003:00001b5c       ?disableFlags@UnDecorator@@0KA 0000000180078b5c     libvcruntime:undname.obj
 0003:00001b60       ?fExplicitTemplateParams@UnDecorator@@0_NA 0000000180078b60     libvcruntime:undname.obj
 0003:00001b61       ?fGetTemplateArgumentList@UnDecorator@@0_NA 0000000180078b61     libvcruntime:undname.obj
 0003:00001b68       ?m_pGetParameter@UnDecorator@@0P6APEADJ@ZEA 0000000180078b68     libvcruntime:undname.obj
 0003:00001ba0       __acrt_lconv_static_null   0000000180078ba0     libucrt:localeconv.obj
 0003:00001ba4       __acrt_lconv_static_W_null 0000000180078ba4     libucrt:localeconv.obj
 0003:00001ba8       _nstream                   0000000180078ba8     libucrt:_file.obj
 0003:00001bb0       __piob                     0000000180078bb0     libucrt:_file.obj
 0003:00001bb8       _cflush                    0000000180078bb8     libucrt:_file.obj
 0003:00001ef8       _environ_table             0000000180078ef8     libucrt:environment_initialization.obj
 0003:00001f00       _wenviron_table            0000000180078f00     libucrt:environment_initialization.obj
 0003:00001f08       __dcrt_initial_wide_environment 0000000180078f08     libucrt:environment_initialization.obj
 0003:00001f10       __dcrt_initial_narrow_environment 0000000180078f10     libucrt:environment_initialization.obj
 0003:00001f18       __acrt_atexit_table        0000000180078f18     libucrt:onexit.obj
 0003:00001f30       __acrt_at_quick_exit_table 0000000180078f30     libucrt:onexit.obj
 0003:00001f70       __acrt_stdout_buffer       0000000180078f70     libucrt:_sftbuf.obj
 0003:00001f78       __acrt_stderr_buffer       0000000180078f78     libucrt:_sftbuf.obj
 0003:00001f80       __acrt_locale_changed_data 0000000180078f80     libucrt:wsetlocale.obj
 0003:00001f88       __acrt_current_locale_data 0000000180078f88     libucrt:nlsdata.obj
 0003:00001f90       __pioinfo                  0000000180078f90     libucrt:ioinit.obj
 0003:00002390       _nhandle                   0000000180079390     libucrt:ioinit.obj
 0003:00002550       __acrt_heap                0000000180079550     libucrt:heap_handle.obj
 0003:00002558       __fma3_is_available        0000000180079558     libucrt:fma3_available.obj
 0003:0000255c       __use_fma3_lib             000000018007955c     libucrt:fma3_available.obj
 0003:00002560       ?_timezone@@3V?$dual_state_global@J@__crt_state_management@@A 0000000180079560     libucrt:timeset.obj
 0003:00002564       ?_daylight@@3V?$dual_state_global@H@__crt_state_management@@A 0000000180079564     libucrt:timeset.obj
 0003:00002568       ?_dstbias@@3V?$dual_state_global@J@__crt_state_management@@A 0000000180079568     libucrt:timeset.obj
 0003:0000263c       __mbcodepage               000000018007963c     libucrt:mbctype.obj
 0003:00002640       __ismbcodepage             0000000180079640     libucrt:mbctype.obj
 0003:00002648       __mbulinfo                 0000000180079648     libucrt:mbctype.obj
 0003:00002658       __mblocalename             0000000180079658     libucrt:mbctype.obj
 0003:00002664       __argc                     0000000180079664     libucrt:argv_data.obj
 0003:00002668       __argv                     0000000180079668     libucrt:argv_data.obj
 0003:00002670       __wargv                    0000000180079670     libucrt:argv_data.obj
 0003:00002678       _acmdln                    0000000180079678     libucrt:argv_data.obj
 0003:00002680       _wcmdln                    0000000180079680     libucrt:argv_data.obj
 0003:00002688       _pgmptr                    0000000180079688     libucrt:argv_data.obj
 0003:00002698       ?DloadKernel32@@3PEAUHINSTANCE__@@EA 0000000180079698     DelayImp:delayhlp.obj
 0003:000026a0       ?DloadAcquireSRWLockExclusive@@3P6AXPEA_K@ZEA 00000001800796a0     DelayImp:delayhlp.obj
 0003:000026a8       ?DloadReleaseSRWLockExclusive@@3P6AXPEA_K@ZEA 00000001800796a8     DelayImp:delayhlp.obj
 0003:000026b0       ?DloadSrwLock@@3_KA        00000001800796b0     DelayImp:delayhlp.obj
 0003:000026b8       ?DloadSectionLockCount@@3KA 00000001800796b8     DelayImp:delayhlp.obj
 0003:000026bc       ?DloadSectionOldProtection@@3KA 00000001800796bc     DelayImp:delayhlp.obj
 0003:000026c0       ?DloadSectionCommitPermanent@@3KA 00000001800796c0     DelayImp:delayhlp.obj
 0003:000026c8       __pfnDliFailureHook2       00000001800796c8     DelayImp:delayhk1.obj
 0003:000026d0       ?_OptionsStorage@?1??__local_stdio_printf_options@@9@4_KA 00000001800796d0     init.obj
 0003:000026d8       ?id@?$num_put@DV?$ostreambuf_iterator@DU?$char_traits@D@std@@@std@@@std@@2V0locale@2@A 00000001800796d8     init.obj
 0003:000026e0       ?id@?$numpunct@D@std@@2V0locale@2@A 00000001800796e0     init.obj
 0003:000026e8       ?policy@?$SinglePolicy@I@anyimpl@cvflann@@0U?$small_any_policy@I@23@A 00000001800796e8     init.obj
 0003:000026f0       ?policy@?$SinglePolicy@W4flann_algorithm_t@cvflann@@@anyimpl@cvflann@@0U?$big_any_policy@W4flann_algorithm_t@cvflann@@@23@A 00000001800796f0     init.obj
 0003:000026f8       ?policy@?$SinglePolicy@Uempty_any@anyimpl@cvflann@@@anyimpl@cvflann@@0U?$big_any_policy@Uempty_any@anyimpl@cvflann@@@23@A 00000001800796f8     init.obj
 0003:00002700       ?policy@?$SinglePolicy@_N@anyimpl@cvflann@@0U?$small_any_policy@_N@23@A 0000000180079700     init.obj
 0003:00002708       ?policy@?$SinglePolicy@V?$basic_string@DU?$char_traits@D@std@@V?$allocator@D@2@@std@@@anyimpl@cvflann@@0U?$big_any_policy@V?$basic_string@DU?$char_traits@D@std@@V?$allocator@D@2@@std@@@23@A 0000000180079708     init.obj
 0003:00002710       ?policy@?$SinglePolicy@H@anyimpl@cvflann@@0U?$small_any_policy@H@23@A 0000000180079710     init.obj
 0003:00002718       ?policy@?$SinglePolicy@M@anyimpl@cvflann@@0U?$small_any_policy@M@23@A 0000000180079718     init.obj
 0003:00002720       ?policy@?$SinglePolicy@W4flann_centers_init_t@cvflann@@@anyimpl@cvflann@@0U?$big_any_policy@W4flann_centers_init_t@cvflann@@@23@A 0000000180079720     init.obj
 0003:00002728       ?policy@?$SinglePolicy@PEBD@anyimpl@cvflann@@0U?$small_any_policy@PEBD@23@A 0000000180079728     init.obj
 0003:00002730       ?constructor@Matrix@@2V?$Persistent@VFunctionTemplate@v8@@V?$NonCopyablePersistentTraits@VFunctionTemplate@v8@@@2@@Nan@@A 0000000180079730     Matrix.obj
 0003:00002738       ?constructor@CascadeClassifierWrap@@2V?$Persistent@VFunctionTemplate@v8@@V?$NonCopyablePersistentTraits@VFunctionTemplate@v8@@@2@@Nan@@A 0000000180079738     CascadeClassifierWrap.obj
 0003:00002740       ?constructor@Contour@@2V?$Persistent@VFunctionTemplate@v8@@V?$NonCopyablePersistentTraits@VFunctionTemplate@v8@@@2@@Nan@@A 0000000180079740     Contours.obj
 0003:00002748       ?constructor@Point@@2V?$Persistent@VFunctionTemplate@v8@@V?$NonCopyablePersistentTraits@VFunctionTemplate@v8@@@2@@Nan@@A 0000000180079748     Point.obj
 0003:00002750       ?constructor@VideoCaptureWrap@@2V?$Persistent@VFunctionTemplate@v8@@V?$NonCopyablePersistentTraits@VFunctionTemplate@v8@@@2@@Nan@@A 0000000180079750     VideoCaptureWrap.obj
 0003:00002758       ?constructor@TrackedObject@@2V?$Persistent@VFunctionTemplate@v8@@V?$NonCopyablePersistentTraits@VFunctionTemplate@v8@@@2@@Nan@@A 0000000180079758     CamShift.obj
 0003:00002760       ?constructor@NamedWindow@@2V?$Persistent@VFunctionTemplate@v8@@V?$NonCopyablePersistentTraits@VFunctionTemplate@v8@@@2@@Nan@@A 0000000180079760     HighGUI.obj
 0003:00002768       ?constructor@FaceRecognizerWrap@@2V?$Persistent@VFunctionTemplate@v8@@V?$NonCopyablePersistentTraits@VFunctionTemplate@v8@@@2@@Nan@@A 0000000180079768     FaceRecognizer.obj
 0003:00002770       ?constructor@BackgroundSubtractorWrap@@2V?$Persistent@VFunctionTemplate@v8@@V?$NonCopyablePersistentTraits@VFunctionTemplate@v8@@@2@@Nan@@A 0000000180079770     BackgroundSubtractor.obj
 0003:00002778       ?constructor@StereoBM@@2V?$Persistent@VFunctionTemplate@v8@@V?$NonCopyablePersistentTraits@VFunctionTemplate@v8@@@2@@Nan@@A 0000000180079778     Stereo.obj
 0003:00002780       ?constructor@StereoSGBM@@2V?$Persistent@VFunctionTemplate@v8@@V?$NonCopyablePersistentTraits@VFunctionTemplate@v8@@@2@@Nan@@A 0000000180079780     Stereo.obj
 0003:00002788       ?constructor@StereoGC@@2V?$Persistent@VFunctionTemplate@v8@@V?$NonCopyablePersistentTraits@VFunctionTemplate@v8@@@2@@Nan@@A 0000000180079788     Stereo.obj
 0003:00002790       ?constructor@LDAWrap@@2V?$Persistent@VFunctionTemplate@v8@@V?$NonCopyablePersistentTraits@VFunctionTemplate@v8@@@2@@Nan@@A 0000000180079790     LDAWrap.obj
 0003:00002798       __dyn_tls_init_callback    0000000180079798     <common>
 0003:000027a0       __scrt_ucrt_dll_is_in_use  00000001800797a0     <common>
 0006:00000000       _tls_start                 000000018007f000     LIBCMT:tlssup.obj
 0006:00000004       _Init_thread_epoch         000000018007f004     LIBCMT:thread_safe_statics.obj
 0006:00000008       _tls_end                   000000018007f008     LIBCMT:tlssup.obj

 entry point at        0001:00033370

 Static symbols

 0000:fff7d000       .debug$S                   0000000180000000     node:node.exe
 0000:fff7d000       .debug$S                   0000000180000000     opencv.exp
 0000:fff7d000       .debug$S                   0000000180000000     kernel32:KERNEL32.dll
 0000:fff7d000       .debug$S                   0000000180000000     kernel32:KERNEL32.dll
 0000:fff7d000       .debug$S                   0000000180000000     node:node.exe
 0000:fff7d000       .debug$S                   0000000180000000     node:node.exe
 0000:fff7d000       .debug$S                   0000000180000000     node:node.exe
 0000:fff7d000       .debug$S                   0000000180000000     node:node.exe
 0000:fff7d000       .debug$S                   0000000180000000     kernel32:KERNEL32.dll
 0000:fff7d000       .debug$S                   0000000180000000     node:node.exe
 0000:fff7d000       .debug$S                   0000000180000000     node:node.exe
 0000:fff7d000       .debug$S                   0000000180000000     node:node.exe
 0000:fff7d000       .debug$S                   0000000180000000     node:node.exe
 0000:fff7d000       .debug$S                   0000000180000000     node:node.exe
 0000:fff7d000       .debug$S                   0000000180000000     node:node.exe
 0000:fff7d000       .debug$S                   0000000180000000     node:node.exe
 0000:fff7d000       .debug$S                   0000000180000000     kernel32:KERNEL32.dll
 0000:fff7d000       .debug$S                   0000000180000000     kernel32:KERNEL32.dll
 0000:fff7d000       .debug$S                   0000000180000000     kernel32:KERNEL32.dll
 0000:fff7d000       .debug$S                   0000000180000000     kernel32:KERNEL32.dll
 0000:fff7d000       .debug$S                   0000000180000000     kernel32:KERNEL32.dll
 0000:fff7d000       .debug$S                   0000000180000000     kernel32:KERNEL32.dll
 0000:fff7d000       .debug$S                   0000000180000000     node:node.exe
 0000:fff7d000       .debug$S                   0000000180000000     node:node.exe
 0000:fff7d000       .debug$S                   0000000180000000     node:node.exe
 0000:fff7d000       .debug$S                   0000000180000000     node:node.exe
 0000:fff7d000       .debug$S                   0000000180000000     node:node.exe
 0000:fff7d000       .debug$S                   0000000180000000     node:node.exe
 0000:fff7d000       .debug$S                   0000000180000000     node:node.exe
 0000:fff7d000       .debug$S                   0000000180000000     node:node.exe
 0000:fff7d000       .debug$S                   0000000180000000     node:node.exe
 0000:fff7d000       .debug$S                   0000000180000000     kernel32:KERNEL32.dll
 0000:fff7d000       .debug$S                   0000000180000000     kernel32:KERNEL32.dll
 0000:fff7d000       .debug$S                   0000000180000000     kernel32:KERNEL32.dll
 0000:fff7d000       .debug$S                   0000000180000000     kernel32:KERNEL32.dll
 0000:fff7d000       .debug$S                   0000000180000000     kernel32:KERNEL32.dll
 0000:fff7d000       .debug$S                   0000000180000000     kernel32:KERNEL32.dll
 0000:fff7d000       .debug$S                   0000000180000000     kernel32:KERNEL32.dll
 0000:fff7d000       .debug$S                   0000000180000000     kernel32:KERNEL32.dll
 0000:fff7d000       .debug$S                   0000000180000000     node:node.exe
 0000:fff7d000       .debug$S                   0000000180000000     node:node.exe
 0000:fff7d000       .debug$S                   0000000180000000     node:node.exe
 0000:fff7d000       .debug$S                   0000000180000000     node:node.exe
 0000:fff7d000       .debug$S                   0000000180000000     node:node.exe
 0000:fff7d000       .debug$S                   0000000180000000     node:node.exe
 0000:fff7d000       .debug$S                   0000000180000000     node:node.exe
 0000:fff7d000       .debug$S                   0000000180000000     node:node.exe
 0000:fff7d000       .debug$S                   0000000180000000     node:node.exe
 0000:fff7d000       .debug$S                   0000000180000000     node:node.exe
 0000:fff7d000       .debug$S                   0000000180000000     node:node.exe
 0000:fff7d000       .debug$S                   0000000180000000     kernel32:KERNEL32.dll
 0000:fff7d000       .debug$S                   0000000180000000     node:node.exe
 0000:fff7d000       .debug$S                   0000000180000000     node:node.exe
 0000:fff7d000       .debug$S                   0000000180000000     node:node.exe
 0000:fff7d000       .debug$S                   0000000180000000     node:node.exe
 0000:fff7d000       .debug$S                   0000000180000000     node:node.exe
 0000:fff7d000       .debug$S                   0000000180000000     kernel32:KERNEL32.dll
 0000:fff7d000       .debug$S                   0000000180000000     node:node.exe
 0000:fff7d000       .debug$S                   0000000180000000     kernel32:KERNEL32.dll
 0000:fff7d000       .debug$S                   0000000180000000     node:node.exe
 0000:fff7d000       .debug$S                   0000000180000000     node:node.exe
 0000:fff7d000       .debug$S                   0000000180000000     kernel32:KERNEL32.dll
 0000:fff7d000       .debug$S                   0000000180000000     node:node.exe
 0000:fff7d000       .debug$S                   0000000180000000     node:node.exe
 0000:fff7d000       .debug$S                   0000000180000000     node:node.exe
 0000:fff7d000       .debug$S                   0000000180000000     node:node.exe
 0000:fff7d000       .debug$S                   0000000180000000     kernel32:KERNEL32.dll
 0000:fff7d000       .debug$S                   0000000180000000     kernel32:KERNEL32.dll
 0000:fff7d000       .debug$S                   0000000180000000     node:node.exe
 0000:fff7d000       .debug$S                   0000000180000000     kernel32:KERNEL32.dll
 0000:fff7d000       .debug$S                   0000000180000000     kernel32:KERNEL32.dll
 0000:fff7d000       .debug$S                   0000000180000000     kernel32:KERNEL32.dll
 0000:fff7d000       .debug$S                   0000000180000000     kernel32:KERNEL32.dll
 0000:fff7d000       .debug$S                   0000000180000000     kernel32:KERNEL32.dll
 0000:fff7d000       .debug$S                   0000000180000000     kernel32:KERNEL32.dll
 0000:fff7d000       .debug$S                   0000000180000000     kernel32:KERNEL32.dll
 0000:fff7d000       .debug$S                   0000000180000000     node:node.exe
 0000:fff7d000       .debug$S                   0000000180000000     node:node.exe
 0000:fff7d000       .debug$S                   0000000180000000     node:node.exe
 0000:fff7d000       .debug$S                   0000000180000000     kernel32:KERNEL32.dll
 0000:fff7d000       .debug$S                   0000000180000000     node:node.exe
 0000:fff7d000       .debug$S                   0000000180000000     kernel32:KERNEL32.dll
 0000:fff7d000       .debug$S                   0000000180000000     kernel32:KERNEL32.dll
 0000:fff7d000       .debug$S                   0000000180000000     node:node.exe
 0000:fff7d000       .debug$S                   0000000180000000     kernel32:KERNEL32.dll
 0000:fff7d000       .debug$S                   0000000180000000     kernel32:KERNEL32.dll
 0000:fff7d000       .debug$S                   0000000180000000     node:node.exe
 0000:fff7d000       .debug$S                   0000000180000000     node:node.exe
 0000:fff7d000       .debug$S                   0000000180000000     node:node.exe
 0000:fff7d000       .debug$S                   0000000180000000     node:node.exe
 0000:fff7d000       .debug$S                   0000000180000000     kernel32:KERNEL32.dll
 0000:fff7d000       .debug$S                   0000000180000000     kernel32:KERNEL32.dll
 0000:fff7d000       .debug$S                   0000000180000000     node:node.exe
 0000:fff7d000       .debug$S                   0000000180000000     node:node.exe
 0000:fff7d000       .debug$S                   0000000180000000     node:node.exe
 0000:fff7d000       .debug$S                   0000000180000000     node:node.exe
 0000:fff7d000       .debug$S                   0000000180000000     node:node.exe
 0000:fff7d000       .debug$S                   0000000180000000     node:node.exe
 0000:fff7d000       .debug$S                   0000000180000000     node:node.exe
 0000:fff7d000       .debug$S                   0000000180000000     node:node.exe
 0000:fff7d000       .debug$S                   0000000180000000     kernel32:KERNEL32.dll
 0000:fff7d000       .debug$S                   0000000180000000     node:node.exe
 0000:fff7d000       .debug$S                   0000000180000000     node:node.exe
 0000:fff7d000       .debug$S                   0000000180000000     node:node.exe
 0000:fff7d000       .debug$S                   0000000180000000     node:node.exe
 0000:fff7d000       .debug$S                   0000000180000000     opencv_calib3d2413:opencv_calib3d2413.dll
 0000:fff7d000       .debug$S                   0000000180000000     kernel32:KERNEL32.dll
 0000:fff7d000       .debug$S                   0000000180000000     kernel32:KERNEL32.dll
 0000:fff7d000       .debug$S                   0000000180000000     kernel32:KERNEL32.dll
 0000:fff7d000       .debug$S                   0000000180000000     opencv_calib3d2413:opencv_calib3d2413.dll
 0000:fff7d000       .debug$S                   0000000180000000     opencv_calib3d2413:opencv_calib3d2413.dll
 0000:fff7d000       .debug$S                   0000000180000000     opencv_calib3d2413:opencv_calib3d2413.dll
 0000:fff7d000       .debug$S                   0000000180000000     kernel32:KERNEL32.dll
 0000:fff7d000       .debug$S                   0000000180000000     opencv_calib3d2413:opencv_calib3d2413.dll
 0000:fff7d000       .debug$S                   0000000180000000     kernel32:KERNEL32.dll
 0000:fff7d000       .debug$S                   0000000180000000     opencv_calib3d2413:opencv_calib3d2413.dll
 0000:fff7d000       .debug$S                   0000000180000000     opencv_calib3d2413:opencv_calib3d2413.dll
 0000:fff7d000       .debug$S                   0000000180000000     opencv_calib3d2413:opencv_calib3d2413.dll
 0000:fff7d000       .debug$S                   0000000180000000     opencv_calib3d2413:opencv_calib3d2413.dll
 0000:fff7d000       .debug$S                   0000000180000000     opencv_calib3d2413:opencv_calib3d2413.dll
 0000:fff7d000       .debug$S                   0000000180000000     opencv_calib3d2413:opencv_calib3d2413.dll
 0000:fff7d000       .debug$S                   0000000180000000     opencv_calib3d2413:opencv_calib3d2413.dll
 0000:fff7d000       .debug$S                   0000000180000000     opencv_calib3d2413:opencv_calib3d2413.dll
 0000:fff7d000       .debug$S                   0000000180000000     opencv_calib3d2413:opencv_calib3d2413.dll
 0000:fff7d000       .debug$S                   0000000180000000     opencv_calib3d2413:opencv_calib3d2413.dll
 0000:fff7d000       .debug$S                   0000000180000000     opencv_contrib2413:opencv_contrib2413.dll
 0000:fff7d000       .debug$S                   0000000180000000     opencv_contrib2413:opencv_contrib2413.dll
 0000:fff7d000       .debug$S                   0000000180000000     opencv_contrib2413:opencv_contrib2413.dll
 0000:fff7d000       .debug$S                   0000000180000000     opencv_contrib2413:opencv_contrib2413.dll
 0000:fff7d000       .debug$S                   0000000180000000     opencv_contrib2413:opencv_contrib2413.dll
 0000:fff7d000       .debug$S                   0000000180000000     opencv_contrib2413:opencv_contrib2413.dll
 0000:fff7d000       .debug$S                   0000000180000000     node:node.exe
 0000:fff7d000       .debug$S                   0000000180000000     opencv_core2413:opencv_core2413.dll
 0000:fff7d000       .debug$S                   0000000180000000     opencv_core2413:opencv_core2413.dll
 0000:fff7d000       .debug$S                   0000000180000000     opencv_core2413:opencv_core2413.dll
 0000:fff7d000       .debug$S                   0000000180000000     opencv_core2413:opencv_core2413.dll
 0000:fff7d000       .debug$S                   0000000180000000     node:node.exe
 0000:fff7d000       .debug$S                   0000000180000000     opencv_core2413:opencv_core2413.dll
 0000:fff7d000       .debug$S                   0000000180000000     opencv_core2413:opencv_core2413.dll
 0000:fff7d000       .debug$S                   0000000180000000     opencv_core2413:opencv_core2413.dll
 0000:fff7d000       .debug$S                   0000000180000000     opencv_core2413:opencv_core2413.dll
 0000:fff7d000       .debug$S                   0000000180000000     node:node.exe
 0000:fff7d000       .debug$S                   0000000180000000     kernel32:KERNEL32.dll
 0000:fff7d000       .debug$S                   0000000180000000     opencv_core2413:opencv_core2413.dll
 0000:fff7d000       .debug$S                   0000000180000000     opencv_core2413:opencv_core2413.dll
 0000:fff7d000       .debug$S                   0000000180000000     opencv_core2413:opencv_core2413.dll
 0000:fff7d000       .debug$S                   0000000180000000     opencv_core2413:opencv_core2413.dll
 0000:fff7d000       .debug$S                   0000000180000000     node:node.exe
 0000:fff7d000       .debug$S                   0000000180000000     opencv_core2413:opencv_core2413.dll
 0000:fff7d000       .debug$S                   0000000180000000     opencv_core2413:opencv_core2413.dll
 0000:fff7d000       .debug$S                   0000000180000000     opencv_core2413:opencv_core2413.dll
 0000:fff7d000       .debug$S                   0000000180000000     opencv_core2413:opencv_core2413.dll
 0000:fff7d000       .debug$S                   0000000180000000     node:node.exe
 0000:fff7d000       .debug$S                   0000000180000000     opencv_core2413:opencv_core2413.dll
 0000:fff7d000       .debug$S                   0000000180000000     kernel32:KERNEL32.dll
 0000:fff7d000       .debug$S                   0000000180000000     kernel32:KERNEL32.dll
 0000:fff7d000       .debug$S                   0000000180000000     kernel32:KERNEL32.dll
 0000:fff7d000       .debug$S                   0000000180000000     opencv_core2413:opencv_core2413.dll
 0000:fff7d000       .debug$S                   0000000180000000     opencv_core2413:opencv_core2413.dll
 0000:fff7d000       .debug$S                   0000000180000000     node:node.exe
 0000:fff7d000       .debug$S                   0000000180000000     opencv_core2413:opencv_core2413.dll
 0000:fff7d000       .debug$S                   0000000180000000     kernel32:KERNEL32.dll
 0000:fff7d000       .debug$S                   0000000180000000     opencv_core2413:opencv_core2413.dll
 0000:fff7d000       .debug$S                   0000000180000000     kernel32:KERNEL32.dll
 0000:fff7d000       .debug$S                   0000000180000000     opencv_core2413:opencv_core2413.dll
 0000:fff7d000       .debug$S                   0000000180000000     opencv_core2413:opencv_core2413.dll
 0000:fff7d000       .debug$S                   0000000180000000     node:node.exe
 0000:fff7d000       .debug$S                   0000000180000000     opencv_core2413:opencv_core2413.dll
 0000:fff7d000       .debug$S                   0000000180000000     opencv_core2413:opencv_core2413.dll
 0000:fff7d000       .debug$S                   0000000180000000     opencv_core2413:opencv_core2413.dll
 0000:fff7d000       .debug$S                   0000000180000000     opencv_core2413:opencv_core2413.dll
 0000:fff7d000       .debug$S                   0000000180000000     node:node.exe
 0000:fff7d000       .debug$S                   0000000180000000     opencv_core2413:opencv_core2413.dll
 0000:fff7d000       .debug$S                   0000000180000000     opencv_core2413:opencv_core2413.dll
 0000:fff7d000       .debug$S                   0000000180000000     opencv_core2413:opencv_core2413.dll
 0000:fff7d000       .debug$S                   0000000180000000     opencv_core2413:opencv_core2413.dll
 0000:fff7d000       .debug$S                   0000000180000000     opencv_core2413:opencv_core2413.dll
 0000:fff7d000       .debug$S                   0000000180000000     opencv_core2413:opencv_core2413.dll
 0000:fff7d000       .debug$S                   0000000180000000     opencv_core2413:opencv_core2413.dll
 0000:fff7d000       .debug$S                   0000000180000000     opencv_core2413:opencv_core2413.dll
 0000:fff7d000       .debug$S                   0000000180000000     node:node.exe
 0000:fff7d000       .debug$S                   0000000180000000     opencv_core2413:opencv_core2413.dll
 0000:fff7d000       .debug$S                   0000000180000000     opencv_core2413:opencv_core2413.dll
 0000:fff7d000       .debug$S                   0000000180000000     opencv_core2413:opencv_core2413.dll
 0000:fff7d000       .debug$S                   0000000180000000     opencv_core2413:opencv_core2413.dll
 0000:fff7d000       .debug$S                   0000000180000000     node:node.exe
 0000:fff7d000       .debug$S                   0000000180000000     opencv_core2413:opencv_core2413.dll
 0000:fff7d000       .debug$S                   0000000180000000     opencv_core2413:opencv_core2413.dll
 0000:fff7d000       .debug$S                   0000000180000000     opencv_core2413:opencv_core2413.dll
 0000:fff7d000       .debug$S                   0000000180000000     opencv_core2413:opencv_core2413.dll
 0000:fff7d000       .debug$S                   0000000180000000     node:node.exe
 0000:fff7d000       .debug$S                   0000000180000000     opencv_core2413:opencv_core2413.dll
 0000:fff7d000       .debug$S                   0000000180000000     kernel32:KERNEL32.dll
 0000:fff7d000       .debug$S                   0000000180000000     opencv_core2413:opencv_core2413.dll
 0000:fff7d000       .debug$S                   0000000180000000     opencv_core2413:opencv_core2413.dll
 0000:fff7d000       .debug$S                   0000000180000000     kernel32:KERNEL32.dll
 0000:fff7d000       .debug$S                   0000000180000000     kernel32:KERNEL32.dll
 0000:fff7d000       .debug$S                   0000000180000000     opencv_core2413:opencv_core2413.dll
 0000:fff7d000       .debug$S                   0000000180000000     node:node.exe
 0000:fff7d000       .debug$S                   0000000180000000     opencv_core2413:opencv_core2413.dll
 0000:fff7d000       .debug$S                   0000000180000000     opencv_core2413:opencv_core2413.dll
 0000:fff7d000       .debug$S                   0000000180000000     opencv_core2413:opencv_core2413.dll
 0000:fff7d000       .debug$S                   0000000180000000     kernel32:KERNEL32.dll
 0000:fff7d000       .debug$S                   0000000180000000     opencv_core2413:opencv_core2413.dll
 0000:fff7d000       .debug$S                   0000000180000000     opencv_core2413:opencv_core2413.dll
 0000:fff7d000       .debug$S                   0000000180000000     kernel32:KERNEL32.dll
 0000:fff7d000       .debug$S                   0000000180000000     kernel32:KERNEL32.dll
 0000:fff7d000       .debug$S                   0000000180000000     opencv_core2413:opencv_core2413.dll
 0000:fff7d000       .debug$S                   0000000180000000     opencv_core2413:opencv_core2413.dll
 0000:fff7d000       .debug$S                   0000000180000000     opencv_core2413:opencv_core2413.dll
 0000:fff7d000       .debug$S                   0000000180000000     opencv_core2413:opencv_core2413.dll
 0000:fff7d000       .debug$S                   0000000180000000     node:node.exe
 0000:fff7d000       .debug$S                   0000000180000000     opencv_core2413:opencv_core2413.dll
 0000:fff7d000       .debug$S                   0000000180000000     opencv_core2413:opencv_core2413.dll
 0000:fff7d000       .debug$S                   0000000180000000     opencv_core2413:opencv_core2413.dll
 0000:fff7d000       .debug$S                   0000000180000000     opencv_core2413:opencv_core2413.dll
 0000:fff7d000       .debug$S                   0000000180000000     opencv_core2413:opencv_core2413.dll
 0000:fff7d000       .debug$S                   0000000180000000     node:node.exe
 0000:fff7d000       .debug$S                   0000000180000000     opencv_core2413:opencv_core2413.dll
 0000:fff7d000       .debug$S                   0000000180000000     opencv_core2413:opencv_core2413.dll
 0000:fff7d000       .debug$S                   0000000180000000     opencv_core2413:opencv_core2413.dll
 0000:fff7d000       .debug$S                   0000000180000000     opencv_core2413:opencv_core2413.dll
 0000:fff7d000       .debug$S                   0000000180000000     node:node.exe
 0000:fff7d000       .debug$S                   0000000180000000     opencv_core2413:opencv_core2413.dll
 0000:fff7d000       .debug$S                   0000000180000000     opencv_core2413:opencv_core2413.dll
 0000:fff7d000       .debug$S                   0000000180000000     opencv_core2413:opencv_core2413.dll
 0000:fff7d000       .debug$S                   0000000180000000     opencv_core2413:opencv_core2413.dll
 0000:fff7d000       .debug$S                   0000000180000000     opencv_core2413:opencv_core2413.dll
 0000:fff7d000       .debug$S                   0000000180000000     opencv_core2413:opencv_core2413.dll
 0000:fff7d000       .debug$S                   0000000180000000     kernel32:KERNEL32.dll
 0000:fff7d000       .debug$S                   0000000180000000     node:node.exe
 0000:fff7d000       .debug$S                   0000000180000000     opencv_core2413:opencv_core2413.dll
 0000:fff7d000       .debug$S                   0000000180000000     opencv_core2413:opencv_core2413.dll
 0000:fff7d000       .debug$S                   0000000180000000     node:node.exe
 0000:fff7d000       .debug$S                   0000000180000000     opencv_core2413:opencv_core2413.dll
 0000:fff7d000       .debug$S                   0000000180000000     kernel32:KERNEL32.dll
 0000:fff7d000       .debug$S                   0000000180000000     opencv_core2413:opencv_core2413.dll
 0000:fff7d000       .debug$S                   0000000180000000     kernel32:KERNEL32.dll
 0000:fff7d000       .debug$S                   0000000180000000     kernel32:KERNEL32.dll
 0000:fff7d000       .debug$S                   0000000180000000     node:node.exe
 0000:fff7d000       .debug$S                   0000000180000000     opencv_core2413:opencv_core2413.dll
 0000:fff7d000       .debug$S                   0000000180000000     opencv_core2413:opencv_core2413.dll
 0000:fff7d000       .debug$S                   0000000180000000     opencv_core2413:opencv_core2413.dll
 0000:fff7d000       .debug$S                   0000000180000000     opencv_features2d2413:opencv_features2d2413.dll
 0000:fff7d000       .debug$S                   0000000180000000     node:node.exe
 0000:fff7d000       .debug$S                   0000000180000000     kernel32:KERNEL32.dll
 0000:fff7d000       .debug$S                   0000000180000000     opencv_features2d2413:opencv_features2d2413.dll
 0000:fff7d000       .debug$S                   0000000180000000     opencv_features2d2413:opencv_features2d2413.dll
 0000:fff7d000       .debug$S                   0000000180000000     kernel32:KERNEL32.dll
 0000:fff7d000       .debug$S                   0000000180000000     opencv_features2d2413:opencv_features2d2413.dll
 0000:fff7d000       .debug$S                   0000000180000000     opencv_features2d2413:opencv_features2d2413.dll
 0000:fff7d000       .debug$S                   0000000180000000     node:node.exe
 0000:fff7d000       .debug$S                   0000000180000000     opencv_features2d2413:opencv_features2d2413.dll
 0000:fff7d000       .debug$S                   0000000180000000     opencv_highgui2413:opencv_highgui2413.dll
 0000:fff7d000       .debug$S                   0000000180000000     kernel32:KERNEL32.dll
 0000:fff7d000       .debug$S                   0000000180000000     kernel32:KERNEL32.dll
 0000:fff7d000       .debug$S                   0000000180000000     kernel32:KERNEL32.dll
 0000:fff7d000       .debug$S                   0000000180000000     opencv_highgui2413:opencv_highgui2413.dll
 0000:fff7d000       .debug$S                   0000000180000000     opencv_highgui2413:opencv_highgui2413.dll
 0000:fff7d000       .debug$S                   0000000180000000     kernel32:KERNEL32.dll
 0000:fff7d000       .debug$S                   0000000180000000     node:node.exe
 0000:fff7d000       .debug$S                   0000000180000000     kernel32:KERNEL32.dll
 0000:fff7d000       .debug$S                   0000000180000000     kernel32:KERNEL32.dll
 0000:fff7d000       .debug$S                   0000000180000000     kernel32:KERNEL32.dll
 0000:fff7d000       .debug$S                   0000000180000000     kernel32:KERNEL32.dll
 0000:fff7d000       .debug$S                   0000000180000000     kernel32:KERNEL32.dll
 0000:fff7d000       .debug$S                   0000000180000000     opencv_highgui2413:opencv_highgui2413.dll
 0000:fff7d000       .debug$S                   0000000180000000     kernel32:KERNEL32.dll
 0000:fff7d000       .debug$S                   0000000180000000     opencv_highgui2413:opencv_highgui2413.dll
 0000:fff7d000       .debug$S                   0000000180000000     kernel32:KERNEL32.dll
 0000:fff7d000       .debug$S                   0000000180000000     opencv_highgui2413:opencv_highgui2413.dll
 0000:fff7d000       .debug$S                   0000000180000000     kernel32:KERNEL32.dll
 0000:fff7d000       .debug$S                   0000000180000000     kernel32:KERNEL32.dll
 0000:fff7d000       .debug$S                   0000000180000000     kernel32:KERNEL32.dll
 0000:fff7d000       .debug$S                   0000000180000000     opencv_highgui2413:opencv_highgui2413.dll
 0000:fff7d000       .debug$S                   0000000180000000     kernel32:KERNEL32.dll
 0000:fff7d000       .debug$S                   0000000180000000     opencv_highgui2413:opencv_highgui2413.dll
 0000:fff7d000       .debug$S                   0000000180000000     opencv_highgui2413:opencv_highgui2413.dll
 0000:fff7d000       .debug$S                   0000000180000000     kernel32:KERNEL32.dll
 0000:fff7d000       .debug$S                   0000000180000000     opencv_highgui2413:opencv_highgui2413.dll
 0000:fff7d000       .debug$S                   0000000180000000     opencv_imgproc2413:opencv_imgproc2413.dll
 0000:fff7d000       .debug$S                   0000000180000000     opencv_imgproc2413:opencv_imgproc2413.dll
 0000:fff7d000       .debug$S                   0000000180000000     node:node.exe
 0000:fff7d000       .debug$S                   0000000180000000     opencv_imgproc2413:opencv_imgproc2413.dll
 0000:fff7d000       .debug$S                   0000000180000000     opencv_imgproc2413:opencv_imgproc2413.dll
 0000:fff7d000       .debug$S                   0000000180000000     opencv_imgproc2413:opencv_imgproc2413.dll
 0000:fff7d000       .debug$S                   0000000180000000     kernel32:KERNEL32.dll
 0000:fff7d000       .debug$S                   0000000180000000     opencv_imgproc2413:opencv_imgproc2413.dll
 0000:fff7d000       .debug$S                   0000000180000000     node:node.exe
 0000:fff7d000       .debug$S                   0000000180000000     kernel32:KERNEL32.dll
 0000:fff7d000       .debug$S                   0000000180000000     kernel32:KERNEL32.dll
 0000:fff7d000       .debug$S                   0000000180000000     opencv_imgproc2413:opencv_imgproc2413.dll
 0000:fff7d000       .debug$S                   0000000180000000     opencv_imgproc2413:opencv_imgproc2413.dll
 0000:fff7d000       .debug$S                   0000000180000000     opencv_imgproc2413:opencv_imgproc2413.dll
 0000:fff7d000       .debug$S                   0000000180000000     opencv_imgproc2413:opencv_imgproc2413.dll
 0000:fff7d000       .debug$S                   0000000180000000     kernel32:KERNEL32.dll
 0000:fff7d000       .debug$S                   0000000180000000     node:node.exe
 0000:fff7d000       .debug$S                   0000000180000000     kernel32:KERNEL32.dll
 0000:fff7d000       .debug$S                   0000000180000000     kernel32:KERNEL32.dll
 0000:fff7d000       .debug$S                   0000000180000000     kernel32:KERNEL32.dll
 0000:fff7d000       .debug$S                   0000000180000000     kernel32:KERNEL32.dll
 0000:fff7d000       .debug$S                   0000000180000000     opencv_imgproc2413:opencv_imgproc2413.dll
 0000:fff7d000       .debug$S                   0000000180000000     opencv_imgproc2413:opencv_imgproc2413.dll
 0000:fff7d000       .debug$S                   0000000180000000     opencv_imgproc2413:opencv_imgproc2413.dll
 0000:fff7d000       .debug$S                   0000000180000000     opencv_imgproc2413:opencv_imgproc2413.dll
 0000:fff7d000       .debug$S                   0000000180000000     opencv_imgproc2413:opencv_imgproc2413.dll
 0000:fff7d000       .debug$S                   0000000180000000     kernel32:KERNEL32.dll
 0000:fff7d000       .debug$S                   0000000180000000     opencv_imgproc2413:opencv_imgproc2413.dll
 0000:fff7d000       .debug$S                   0000000180000000     opencv_imgproc2413:opencv_imgproc2413.dll
 0000:fff7d000       .debug$S                   0000000180000000     kernel32:KERNEL32.dll
 0000:fff7d000       .debug$S                   0000000180000000     opencv_imgproc2413:opencv_imgproc2413.dll
 0000:fff7d000       .debug$S                   0000000180000000     node:node.exe
 0000:fff7d000       .debug$S                   0000000180000000     kernel32:KERNEL32.dll
 0000:fff7d000       .debug$S                   0000000180000000     kernel32:KERNEL32.dll
 0000:fff7d000       .debug$S                   0000000180000000     kernel32:KERNEL32.dll
 0000:fff7d000       .debug$S                   0000000180000000     opencv_imgproc2413:opencv_imgproc2413.dll
 0000:fff7d000       .debug$S                   0000000180000000     kernel32:KERNEL32.dll
 0000:fff7d000       .debug$S                   0000000180000000     kernel32:KERNEL32.dll
 0000:fff7d000       .debug$S                   0000000180000000     opencv_imgproc2413:opencv_imgproc2413.dll
 0000:fff7d000       .debug$S                   0000000180000000     opencv_imgproc2413:opencv_imgproc2413.dll
 0000:fff7d000       .debug$S                   0000000180000000     kernel32:KERNEL32.dll
 0000:fff7d000       .debug$S                   0000000180000000     opencv_imgproc2413:opencv_imgproc2413.dll
 0000:fff7d000       .debug$S                   0000000180000000     node:node.exe
 0000:fff7d000       .debug$S                   0000000180000000     opencv_imgproc2413:opencv_imgproc2413.dll
 0000:fff7d000       .debug$S                   0000000180000000     opencv_imgproc2413:opencv_imgproc2413.dll
 0000:fff7d000       .debug$S                   0000000180000000     opencv_imgproc2413:opencv_imgproc2413.dll
 0000:fff7d000       .debug$S                   0000000180000000     opencv_imgproc2413:opencv_imgproc2413.dll
 0000:fff7d000       .debug$S                   0000000180000000     kernel32:KERNEL32.dll
 0000:fff7d000       .debug$S                   0000000180000000     node:node.exe
 0000:fff7d000       .debug$S                   0000000180000000     opencv_imgproc2413:opencv_imgproc2413.dll
 0000:fff7d000       .debug$S                   0000000180000000     opencv_imgproc2413:opencv_imgproc2413.dll
 0000:fff7d000       .debug$S                   0000000180000000     kernel32:KERNEL32.dll
 0000:fff7d000       .debug$S                   0000000180000000     opencv_imgproc2413:opencv_imgproc2413.dll
 0000:fff7d000       .debug$S                   0000000180000000     opencv_imgproc2413:opencv_imgproc2413.dll
 0000:fff7d000       .debug$S                   0000000180000000     kernel32:KERNEL32.dll
 0000:fff7d000       .debug$S                   0000000180000000     node:node.exe
 0000:fff7d000       .debug$S                   0000000180000000     opencv_imgproc2413:opencv_imgproc2413.dll
 0000:fff7d000       .debug$S                   0000000180000000     kernel32:KERNEL32.dll
 0000:fff7d000       .debug$S                   0000000180000000     kernel32:KERNEL32.dll
 0000:fff7d000       .debug$S                   0000000180000000     opencv_imgproc2413:opencv_imgproc2413.dll
 0000:fff7d000       .debug$S                   0000000180000000     opencv_imgproc2413:opencv_imgproc2413.dll
 0000:fff7d000       .debug$S                   0000000180000000     opencv_imgproc2413:opencv_imgproc2413.dll
 0000:fff7d000       .debug$S                   0000000180000000     opencv_imgproc2413:opencv_imgproc2413.dll
 0000:fff7d000       .debug$S                   0000000180000000     kernel32:KERNEL32.dll
 0000:fff7d000       .debug$S                   0000000180000000     kernel32:KERNEL32.dll
 0000:fff7d000       .debug$S                   0000000180000000     opencv_imgproc2413:opencv_imgproc2413.dll
 0000:fff7d000       .debug$S                   0000000180000000     advapi32:ADVAPI32.dll
 0000:fff7d000       .debug$S                   0000000180000000     opencv_imgproc2413:opencv_imgproc2413.dll
 0000:fff7d000       .debug$S                   0000000180000000     opencv_imgproc2413:opencv_imgproc2413.dll
 0000:fff7d000       .debug$S                   0000000180000000     node:node.exe
 0000:fff7d000       .debug$S                   0000000180000000     node:node.exe
 0000:fff7d000       .debug$S                   0000000180000000     opencv_imgproc2413:opencv_imgproc2413.dll
 0000:fff7d000       .debug$S                   0000000180000000     opencv_imgproc2413:opencv_imgproc2413.dll
 0000:fff7d000       .debug$S                   0000000180000000     opencv_imgproc2413:opencv_imgproc2413.dll
 0000:fff7d000       .debug$S                   0000000180000000     opencv_legacy2413:opencv_legacy2413.dll
 0000:fff7d000       .debug$S                   0000000180000000     node:node.exe
 0000:fff7d000       .debug$S                   0000000180000000     node:node.exe
 0000:fff7d000       .debug$S                   0000000180000000     opencv_legacy2413:opencv_legacy2413.dll
 0000:fff7d000       .debug$S                   0000000180000000     node:node.exe
 0000:fff7d000       .debug$S                   0000000180000000     opencv_objdetect2413:opencv_objdetect2413.dll
 0000:fff7d000       .debug$S                   0000000180000000     opencv_objdetect2413:opencv_objdetect2413.dll
 0000:fff7d000       .debug$S                   0000000180000000     opencv_objdetect2413:opencv_objdetect2413.dll
 0000:fff7d000       .debug$S                   0000000180000000     node:node.exe
 0000:fff7d000       .debug$S                   0000000180000000     opencv_video2413:opencv_video2413.dll
 0000:fff7d000       .debug$S                   0000000180000000     node:node.exe
 0000:fff7d000       .debug$S                   0000000180000000     node:node.exe
 0001:000001e0       ??__E?constructor@Matrix@@2V?$Persistent@VFunctionTemplate@v8@@V?$NonCopyablePersistentTraits@VFunctionTemplate@v8@@@2@@Nan@@A@@YAXXZ 00000001800011e0 f   Matrix.obj
 0001:00000210       ??__E?constructor@CascadeClassifierWrap@@2V?$Persistent@VFunctionTemplate@v8@@V?$NonCopyablePersistentTraits@VFunctionTemplate@v8@@@2@@Nan@@A@@YAXXZ 0000000180001210 f   CascadeClassifierWrap.obj
 0001:00000240       ??__E?constructor@Contour@@2V?$Persistent@VFunctionTemplate@v8@@V?$NonCopyablePersistentTraits@VFunctionTemplate@v8@@@2@@Nan@@A@@YAXXZ 0000000180001240 f   Contours.obj
 0001:00000270       ??__E?constructor@Point@@2V?$Persistent@VFunctionTemplate@v8@@V?$NonCopyablePersistentTraits@VFunctionTemplate@v8@@@2@@Nan@@A@@YAXXZ 0000000180001270 f   Point.obj
 0001:000002a0       ??__E?constructor@VideoCaptureWrap@@2V?$Persistent@VFunctionTemplate@v8@@V?$NonCopyablePersistentTraits@VFunctionTemplate@v8@@@2@@Nan@@A@@YAXXZ 00000001800012a0 f   VideoCaptureWrap.obj
 0001:000002d0       ??__E?constructor@TrackedObject@@2V?$Persistent@VFunctionTemplate@v8@@V?$NonCopyablePersistentTraits@VFunctionTemplate@v8@@@2@@Nan@@A@@YAXXZ 00000001800012d0 f   CamShift.obj
 0001:00000300       ??__E?constructor@NamedWindow@@2V?$Persistent@VFunctionTemplate@v8@@V?$NonCopyablePersistentTraits@VFunctionTemplate@v8@@@2@@Nan@@A@@YAXXZ 0000000180001300 f   HighGUI.obj
 0001:00000330       ??__E?constructor@FaceRecognizerWrap@@2V?$Persistent@VFunctionTemplate@v8@@V?$NonCopyablePersistentTraits@VFunctionTemplate@v8@@@2@@Nan@@A@@YAXXZ 0000000180001330 f   FaceRecognizer.obj
 0001:00000360       ??__E?constructor@BackgroundSubtractorWrap@@2V?$Persistent@VFunctionTemplate@v8@@V?$NonCopyablePersistentTraits@VFunctionTemplate@v8@@@2@@Nan@@A@@YAXXZ 0000000180001360 f   BackgroundSubtractor.obj
 0001:00000390       ??__E?constructor@StereoBM@@2V?$Persistent@VFunctionTemplate@v8@@V?$NonCopyablePersistentTraits@VFunctionTemplate@v8@@@2@@Nan@@A@@YAXXZ 0000000180001390 f   Stereo.obj
 0001:000003c0       ??__E?constructor@StereoSGBM@@2V?$Persistent@VFunctionTemplate@v8@@V?$NonCopyablePersistentTraits@VFunctionTemplate@v8@@@2@@Nan@@A@@YAXXZ 00000001800013c0 f   Stereo.obj
 0001:000003f0       ??__E?constructor@StereoGC@@2V?$Persistent@VFunctionTemplate@v8@@V?$NonCopyablePersistentTraits@VFunctionTemplate@v8@@@2@@Nan@@A@@YAXXZ 00000001800013f0 f   Stereo.obj
 0001:00000420       ??__E?constructor@LDAWrap@@2V?$Persistent@VFunctionTemplate@v8@@V?$NonCopyablePersistentTraits@VFunctionTemplate@v8@@@2@@Nan@@A@@YAXXZ 0000000180001420 f   LDAWrap.obj
 0001:00000448       ??__Einitlocks@std@@YAXXZ  0000000180001448 f   libcpmt:xlock.obj
 0001:00000468       ??__E_Fac_tidy_reg@std@@YAXXZ 0000000180001468 f   libcpmt:locale0.obj
 0001:00000474       ??__Eclassic_locale@std@@YAXXZ 0000000180001474 f   libcpmt:locale0.obj
 0001:00000480       ??__Einit_atexit@@YAXXZ    0000000180001480 f   libcpmt:iosptrs.obj
 0001:0000048c       ??__Einitlocks@std@@YAXXZ  000000018000148c f   libcpmt:iosptrs.obj
 0001:00000600       _register_opencv           0000000180001600 f   init.obj
 0001:00001060       ?FunctionCallbackWrapper@imp@Nan@@YAXAEBV?$FunctionCallbackInfo@VValue@v8@@@v8@@@Z 0000000180002060 f   Matrix.obj
 0001:0001d350       ?GetterCallbackWrapper@imp@Nan@@YAXV?$Local@VName@v8@@@v8@@AEBV?$PropertyCallbackInfo@VValue@v8@@@4@@Z 000000018001e350 f   Point.obj
 0001:0001d420       ?SetterCallbackWrapper@imp@Nan@@YAXV?$Local@VName@v8@@@v8@@V?$Local@VValue@v8@@@4@AEBV?$PropertyCallbackInfo@X@4@@Z 000000018001e420 f   Point.obj
 0001:00030684       $LN1658                    0000000180031684     Stereo.obj
 0001:00031be0       ?load_exe_hook@@YAP6A_JXZIPEAUDelayLoadInfo@@@Z 0000000180032be0 f   win_delay_load_hook.obj
 0001:000324e4       ?initialize_pointers@@YAHXZ 00000001800334e4 f   libcpmt:winapisupp.obj
 0001:00032a20       $$000000                   0000000180033a20     LIBCMT:_amdsecgs_.obj
 0001:00032a5c       ?__scrt_initialize_thread_safe_statics@@YAHXZ 0000000180033a5c f   LIBCMT:thread_safe_statics.obj
 0001:00032b7c       ?__scrt_uninitialize_thread_safe_statics@@YAXXZ 0000000180033b7c f   LIBCMT:thread_safe_statics.obj
 0001:00033000       ?dllmain_crt_dispatch@@YAHQEAUHINSTANCE__@@KQEAX@Z 0000000180034000 f   LIBCMT:dll_dllmain.obj
 0001:00033050       ?dllmain_crt_process_attach@@YAHQEAUHINSTANCE__@@QEAX@Z 0000000180034050 f   LIBCMT:dll_dllmain.obj
 0001:0003317c       ?dllmain_crt_process_detach@@YAH_N@Z 000000018003417c f   LIBCMT:dll_dllmain.obj
 0001:00033200       ?dllmain_dispatch@@YAHQEAUHINSTANCE__@@KQEAX@Z 0000000180034200 f   LIBCMT:dll_dllmain.obj
 0001:0003331c       ?dllmain_raw@@YAHQEAUHINSTANCE__@@KQEAX@Z 000000018003431c f   LIBCMT:dll_dllmain.obj
 0001:000334d0       $$000000                   00000001800344d0     LIBCMT:_chkstk_.obj
 0001:000336ec       capture_current_context    00000001800346ec f   LIBCMT:gs_report.obj
 0001:0003375c       capture_previous_context   000000018003475c f   LIBCMT:gs_report.obj
 0001:00033d70       $$000000                   0000000180034d70     libvcruntime:memcpy.obj
 0001:00033e17       MoveSmall                  0000000180034e17     libvcruntime:memcpy.obj
 0001:000342dc       ?CatchIt@@YAXPEAUEHExceptionRecord@@PEA_KPEAU_CONTEXT@@PEAU_xDISPATCHER_CONTEXT@@PEBU_s_FuncInfo@@PEBU_s_HandlerType@@PEBU_s_CatchableType@@PEBU_s_TryBlockMapEntry@@H1EE@Z 00000001800352dc f   libvcruntime:frame.obj
 0001:000343a0       ?ExFilterRethrow@@YAHPEAU_EXCEPTION_POINTERS@@PEAUEHExceptionRecord@@PEAH@Z 00000001800353a0 f   libvcruntime:frame.obj
 0001:00034428       ?FindHandler@@YAXPEAUEHExceptionRecord@@PEA_KPEAU_CONTEXT@@PEAU_xDISPATCHER_CONTEXT@@PEBU_s_FuncInfo@@EH1@Z 0000000180035428 f   libvcruntime:frame.obj
 0001:000348dc       ?FindHandlerForForeignException@@YAXPEAUEHExceptionRecord@@PEA_KPEAU_CONTEXT@@PEAU_xDISPATCHER_CONTEXT@@PEBU_s_FuncInfo@@HH1@Z 00000001800358dc f   libvcruntime:frame.obj
 0001:00034b48       ?IsInExceptionSpec@@YAEPEAUEHExceptionRecord@@PEBU_s_ESTypeList@@@Z 0000000180035b48 f   libvcruntime:frame.obj
 0001:00035e50       $$000000                   0000000180036e50     libvcruntime:memset.obj
 0001:00035f3c       MsetTab                    0000000180036f3c     libvcruntime:memset.obj
 0001:00036000       $$000000                   0000000180037000     libvcruntime:memcmp.obj
 0001:000360d8       ?try_get_function@@YAPEAXW4function_id@?A0x49c8dc86@@QEBDQEBW4module_id@2@2@Z 00000001800370d8 f   libvcruntime:winapi_downlevel.obj
 0001:00036980       _TlgDefineProvider_annotation__Tlg_Microsoft_CRTProviderProv 0000000180037980 f   libvcruntime:telemetry.obj
 0001:00036f20       $$000000                   0000000180037f20     libvcruntime:handlers.obj
 0001:00036f70       $$000000                   0000000180037f70     libvcruntime:_jmpuwind_.obj
 0001:000379a4       ??R<lambda_0a64b6a4deda75c01876f29c44fc5eb3>@@QEBAHXZ 00000001800389a4 f   libucrt:output.obj
 0001:00037a94       ??R<lambda_dd75445284c072d0bd3768540cc698fa>@@QEBAHXZ 0000000180038a94 f   libucrt:output.obj
 0001:0003b2a4       ??$common_assert_to_message_box@_W@@YAXQEB_W0IQEAX@Z 000000018003c2a4 f   libucrt:assert.obj
 0001:0003b368       ??$common_assert_to_message_box_build_string@_W@@YAXQEA_W_KQEB_W2IQEAX@Z 000000018003c368 f   libucrt:assert.obj
 0001:0003bb3c       ??$common_assert_to_stderr@_W@@YAXQEB_W0I@Z 000000018003cb3c f   libucrt:assert.obj
 0001:0003bcac       ?get_assert_format@@YAPEB_W_W@Z 000000018003ccac f   libucrt:assert.obj
 0001:0003c1bc       ?x_ismbbtype_l@@YAHPEAU__crt_locale_pointers@@IHH@Z 000000018003d1bc f   libucrt:ismbbyte.obj
 0001:0003c810       $$000000                   000000018003d810     libucrt:pow.obj
 0001:0003deb0       $$000000                   000000018003eeb0     libucrt:powf.obj
 0001:0003edd0       ?internal_isupper_l@@YA_NHQEAU__crt_locale_pointers@@@Z 000000018003fdd0 f   libucrt:tolower_toupper.obj
 0001:0003f560       ?atexit_exception_filter@@YAHK@Z 0000000180040560 f   libucrt:exit.obj
 0001:0003f56c       ?common_exit@@YAXHW4_crt_exit_cleanup_mode@@W4_crt_exit_return_mode@@@Z 000000018004056c f   libucrt:exit.obj
 0001:0003f6d8       ?exit_or_terminate_process@@YAXI@Z 00000001800406d8 f   libucrt:exit.obj
 0001:0003f724       ?try_cor_exit_process@@YAXI@Z 0000000180040724 f   libucrt:exit.obj
 0001:0003f7bc       ??$parse_command_line@D@@YAXPEADPEAPEAD0PEA_K2@Z 00000001800407bc f   libucrt:argv_parsing.obj
 0001:0003fb54       ??$common_initialize_environment_nolock@D@@YAHXZ 0000000180040b54 f   libucrt:environment_initialization.obj
 0001:0003fbc0       ??$create_environment@D@@YAQEAPEADQEAD@Z 0000000180040bc0 f   libucrt:environment_initialization.obj
 0001:0003fcbc       ??$free_environment@D@@YAXQEAPEAD@Z 0000000180040cbc f   libucrt:environment_initialization.obj
 0001:0003fcbc       ??$free_environment@_W@@YAXQEAPEA_W@Z 0000000180040cbc f   libucrt:environment_initialization.obj
 0001:0003fd00       ??$uninitialize_environment_internal@D@@YAXAEAPEAPEAD@Z 0000000180040d00 f   libucrt:environment_initialization.obj
 0001:0003fd1c       ??$uninitialize_environment_internal@_W@@YAXAEAPEAPEA_W@Z 0000000180040d1c f   libucrt:environment_initialization.obj
 0001:0003ff54       ??R<lambda_4e60a939b0d047cfe11ddc22648dfba9>@@QEBAHXZ 0000000180040f54 f   libucrt:onexit.obj
 0001:00040204       initialize_global_variables 0000000180041204 f   libucrt:initialization.obj
 0001:00040218       initialize_c               0000000180041218 f   libucrt:initialization.obj
 0001:0004023c       uninitialize_environment   000000018004123c f   libucrt:initialization.obj
 0001:0004024c       initialize_environment     000000018004124c f   libucrt:initialization.obj
 0001:0004024c       uninitialize_c             000000018004124c f   libucrt:initialization.obj
 0001:0004024c       uninitialize_global_state_isolation 000000018004124c f   libucrt:initialization.obj
 0001:0004024c       initialize_global_state_isolation 000000018004124c f   libucrt:initialization.obj
 0001:0004024c       report_memory_leaks        000000018004124c f   libucrt:initialization.obj
 0001:00040250       initialize_pointers        0000000180041250 f   libucrt:initialization.obj
 0001:000402a4       uninitialize_vcruntime     00000001800412a4 f   libucrt:initialization.obj
 0001:000402ac       uninitialize_allocated_memory 00000001800412ac f   libucrt:initialization.obj
 0001:00041354       ?construct_ptd_array@@YAXQEAU__acrt_ptd@@@Z 0000000180042354 f   libucrt:per_thread_data.obj
 0001:00041424       ?destroy_fls@@YAXPEAX@Z    0000000180042424 f   libucrt:per_thread_data.obj
 0001:00041444       ?destroy_ptd_array@@YAXQEAU__acrt_ptd@@@Z 0000000180042444 f   libucrt:per_thread_data.obj
 0001:0004153c       ?replace_current_thread_locale_nolock@@YAXQEAU__acrt_ptd@@QEAU__crt_locale_data@@@Z 000000018004253c f   libucrt:per_thread_data.obj
 0001:00041b94       ?fp_format_a@@YAHQEBNPEAD_KQEAD2H_NIQEAU__crt_locale_pointers@@@Z 0000000180042b94 f   libucrt:cvt.obj
 0001:00041ef4       ?fp_format_e@@YAHQEBNQEAD_K12H_NIQEAU__crt_locale_pointers@@@Z 0000000180042ef4 f   libucrt:cvt.obj
 0001:00041fc4       ?fp_format_e_internal@@YAHQEAD_KH_NIQEAU_strflt@@2QEAU__crt_locale_pointers@@@Z 0000000180042fc4 f   libucrt:cvt.obj
 0001:000421a0       ?fp_format_f_internal@@YAHQEAD_KHQEAU_strflt@@_NQEAU__crt_locale_pointers@@@Z 00000001800431a0 f   libucrt:cvt.obj
 0001:000422e8       ?fp_format_g@@YAHQEBNQEAD_K12H_NIQEAU__crt_locale_pointers@@@Z 00000001800432e8 f   libucrt:cvt.obj
 0001:00042420       ?fp_format_nan_or_infinity@@YAHW4__acrt_fp_class@@_NPEAD_K1@Z 0000000180043420 f   libucrt:cvt.obj
 0001:00042adc       ?initialize_inherited_file_handles_nolock@@YAXXZ 0000000180043adc f   libucrt:ioinit.obj
 0001:00042bc8       ?initialize_stdio_handles_nolock@@YAXXZ 0000000180043bc8 f   libucrt:ioinit.obj
 0001:0004319c       ?try_get_function@@YAPEAXW4function_id@?A0x63058377@@QEBDQEBW4module_id@2@2@Z 000000018004419c f   libucrt:winapi_thunks.obj
 0001:00043b4c       common_flush_all           0000000180044b4c f   libucrt:fflush.obj
 0001:00043dd4       ??$common_xtox@K_W@@YAHKQEA_W_KI_N@Z 0000000180044dd4 f   libucrt:xtoa.obj
 0001:00043e80       ??$common_xtox_s@K_W@@YAHKQEA_W_KI_N@Z 0000000180044e80 f   libucrt:xtoa.obj
 0001:000440dc       ??$message_box_wait_thread@_W@@YAKQEAX@Z 00000001800450dc f   libucrt:crtmbox.obj
 0001:00044260       ??R<lambda_b721fa326cdb32351d23dfa67958c160>@@QEBAHXZ 0000000180045260 f   libucrt:setvbuf.obj
 0001:000446e4       ?__acrt_LCMapStringA_stat@@YAHPEAU__crt_locale_pointers@@PEB_WKPEBDHPEADHHH@Z 00000001800456e4 f   libucrt:lcmapstringa.obj
 0001:00044ee0       ?<helper_func_cdecl>@<lambda_2feae5270eb4d0d5532525f423405775>@@CAHPEBX0@Z 0000000180045ee0 f   libucrt:argv_wildcards.obj
 0001:00044ef4       ??$common_expand_argv_wildcards@D@@YAHQEAPEADQEAPEAPEAD@Z 0000000180045ef4 f   libucrt:argv_wildcards.obj
 0001:00045100       ??$copy_and_add_argument_to_buffer@D@@YAHQEBD0_KAEAV?$argument_list@D@?A0xca0879c4@@@Z 0000000180046100 f   libucrt:argv_wildcards.obj
 0001:00045210       ??$expand_argument_wildcards@D@@YAHQEAD0AEAV?$argument_list@D@?A0xca0879c4@@@Z 0000000180046210 f   libucrt:argv_wildcards.obj
 0001:000454c4       ??R<lambda_ad1ced32f4ac17aa236e5ef05d6b3b7c>@@QEBAXXZ 00000001800464c4 f   libucrt:mbctype.obj
 0001:000456dc       ?getSystemCP@@YAHH@Z       00000001800466dc f   libucrt:mbctype.obj
 0001:0004575c       ?setSBCS@@YAXPEAU__crt_multibyte_data@@@Z 000000018004675c f   libucrt:mbctype.obj
 0001:000457ec       ?setSBUpLow@@YAXPEAU__crt_multibyte_data@@@Z 00000001800467ec f   libucrt:mbctype.obj
 0001:000459d0       ?setmbcp_internal@@YAHH_N@Z 00000001800469d0 f   libucrt:mbctype.obj
 0001:00047a70       memcpy_s                   0000000180048a70 f   libucrt:strtod.obj
 0001:00047a70       memcpy_s                   0000000180048a70 f   libucrt:cfout.obj
 0001:00047af8       ??$write_buffer_nolock@D@@YA_NDV__crt_stdio_stream@@@Z 0000000180048af8 f   libucrt:_flsbuf.obj
 0001:00047bfc       ??$write_buffer_nolock@_W@@YA_N_WV__crt_stdio_stream@@@Z 0000000180048bfc f   libucrt:_flsbuf.obj
 0001:000480b4       ?free_crt_array_internal@@YAXQEAPEBX_K@Z 00000001800490b4 f   libucrt:inittime.obj
 0001:00048530       $$000000                   0000000180049530     libucrt:fpsr.obj
 0001:00048590       ?GetTableIndexFromLocaleName@@YAHPEB_W@Z 0000000180049590 f   libucrt:lcidtoname_downlevel.obj
 0001:0004889c       ?write_double_translated_ansi_nolock@@YA?AUwrite_result@?A0x9c548279@@HQEBDI@Z 000000018004989c f   libucrt:write.obj
 0001:00048aa4       ?write_text_ansi_nolock@@YA?AUwrite_result@?A0x9c548279@@HQEBDI@Z 0000000180049aa4 f   libucrt:write.obj
 0001:00048bac       ?write_text_utf16le_nolock@@YA?AUwrite_result@?A0x9c548279@@HQEBDI@Z 0000000180049bac f   libucrt:write.obj
 0001:00048cc8       ?write_text_utf8_nolock@@YA?AUwrite_result@?A0x9c548279@@HQEBDI@Z 0000000180049cc8 f   libucrt:write.obj
 0001:00049368       _call_matherr              000000018004a368 f   libucrt:libm_error.obj
 0001:000493d0       _exception_enabled         000000018004a3d0 f   libucrt:libm_error.obj
 0001:00049720       ?shortsort@@YAXPEAD0_KP6AHPEBX2@Z@Z 000000018004a720 f   libucrt:qsort.obj
 0001:00049c64       ?initialize_multibyte@@YAHXZ 000000018004ac64 f   libucrt:multibyte_initializer.obj
 0001:00049e40       $$000000                   000000018004ae40     libucrt:log10.obj
 0001:0004a3ec       ??$common_lseek@_J@@YA_JH_JH@Z 000000018004b3ec f   libucrt:lseek.obj
 0001:0004a4dc       ??$common_lseek_nolock@_J@@YA_JH_JH@Z 000000018004b4dc f   libucrt:lseek.obj
 0001:0004a908       common_control87           000000018004b908 f   libucrt:ieee.obj
 0001:0004abc0       _log_special_common        000000018004bbc0 f   libucrt:log_special.obj
 0001:0004b640       $$000000                   000000018004c640     libucrt:strcmp.obj
 0001:0004b6c0       $$000000                   000000018004c6c0     LIBCMT:_guard_dispatch_.obj
 0001:0004b6e0       ?dtor$0@?0???1HandleScope@Nan@@QEAA@XZ@4HA 000000018004c6e0 f   init.obj
 0001:0004b6f0       init$dtor$1                000000018004c6f0 f   init.obj
 0001:0004b6fe       init$dtor$0                000000018004c6fe f   init.obj
 0001:0004b70a       init$dtor$3                000000018004c70a f   init.obj
 0001:0004b718       init$dtor$2                000000018004c718 f   init.obj
 0001:0004b724       init$dtor$4                000000018004c724 f   init.obj
 0001:0004b732       init$dtor$5                000000018004c732 f   init.obj
 0001:0004b740       ?dtor$0@?0??clone@Mat@cv@@QEBA?AV12@XZ@4HA 000000018004c740 f   Matrix.obj
 0001:0004b770       ?dtor$0@?0???BMatExpr@cv@@QEBA?AVMat@1@XZ@4HA 000000018004c770 f   Matrix.obj
 0001:0004b770       ?dtor$0@?0???RMat@cv@@QEBA?AV01@AEBV?$Rect_@H@1@@Z@4HA 000000018004c770 f   Matrix.obj
 0001:0004b7a0       ?dtor$0@?0??GetFunction@Nan@@YA?AV?$MaybeLocal@VFunction@v8@@@v8@@V?$Local@VFunctionTemplate@v8@@@3@@Z@4HA 000000018004c7a0 f   OpenCV.obj
 0001:0004b7a0       ?dtor$0@?0??NewInstance@Nan@@YA?AV?$MaybeLocal@VObject@v8@@@v8@@V?$Local@VObjectTemplate@v8@@@3@@Z@4HA 000000018004c7a0 f   Matrix.obj
 0001:0004b7a0       ?dtor$0@?0??convert@?$ToFactory@VInteger@v8@@@imp@Nan@@SA?AV?$MaybeLocal@VInteger@v8@@@v8@@V?$Local@VValue@v8@@@5@@Z@4HA 000000018004c7a0 f   Matrix.obj
 0001:0004b7ae       ?dtor$1@?0??convert@?$ToFactory@VInteger@v8@@@imp@Nan@@SA?AV?$MaybeLocal@VInteger@v8@@@v8@@V?$Local@VValue@v8@@@5@@Z@4HA 000000018004c7ae f   Matrix.obj
 0001:0004b7ae       ?dtor$1@?0??GetFunction@Nan@@YA?AV?$MaybeLocal@VFunction@v8@@@v8@@V?$Local@VFunctionTemplate@v8@@@3@@Z@4HA 000000018004c7ae f   OpenCV.obj
 0001:0004b7ae       ?dtor$1@?0??NewInstance@Nan@@YA?AV?$MaybeLocal@VObject@v8@@@v8@@V?$Local@VObjectTemplate@v8@@@3@@Z@4HA 000000018004c7ae f   Matrix.obj
 0001:0004b7c0       ?dtor$0@?0??New@?$Factory@VFunctionTemplate@v8@@@imp@Nan@@SA?AV?$Local@VFunctionTemplate@v8@@@v8@@P6AXAEBV?$FunctionCallbackInfo@VValue@v8@@@3@@ZV?$Local@VValue@v8@@@5@V?$Local@VSignature@v8@@@5@@Z@4HA 000000018004c7c0 f   Matrix.obj
 0001:0004b7ce       ?dtor$2@?0??New@?$Factory@VFunctionTemplate@v8@@@imp@Nan@@SA?AV?$Local@VFunctionTemplate@v8@@@v8@@P6AXAEBV?$FunctionCallbackInfo@VValue@v8@@@3@@ZV?$Local@VValue@v8@@@5@V?$Local@VSignature@v8@@@5@@Z@4HA 000000018004c7ce f   Matrix.obj
 0001:0004b7e0       ?dtor$0@?0???1EscapableHandleScope@Nan@@QEAA@XZ@4HA 000000018004c7e0 f   Matrix.obj
 0001:0004b7ee       ?dtor$1@?0???1EscapableHandleScope@Nan@@QEAA@XZ@4HA 000000018004c7ee f   Matrix.obj
 0001:0004b800       ?dtor$1@?0??Init@NamedWindow@@SAXV?$Local@VObject@v8@@@v8@@@Z@4HA 000000018004c800 f   HighGUI.obj
 0001:0004b800       ?dtor$1@?0??ConvertTo@Matrix@@SAXAEBV?$FunctionCallbackInfo@VValue@v8@@@Nan@@@Z@4HA 000000018004c800 f   Matrix.obj
 0001:0004b800       ?dtor$1@?0??Init@CascadeClassifierWrap@@SAXV?$Local@VObject@v8@@@v8@@@Z@4HA 000000018004c800 f   CascadeClassifierWrap.obj
 0001:0004b800       ?dtor$1@?0??ThrowError@Nan@@YAXPEBD@Z@4HA 000000018004c800 f   Matrix.obj
 0001:0004b800       ?dtor$1@?0??Init@TrackedObject@@SAXV?$Local@VObject@v8@@@v8@@@Z@4HA 000000018004c800 f   CamShift.obj
 0001:0004b800       ?dtor$1@?0??MeanStdDev@Matrix@@SAXAEBV?$FunctionCallbackInfo@VValue@v8@@@Nan@@@Z@4HA 000000018004c800 f   Matrix.obj
 0001:0004b800       ?dtor$1@?0??Subtract@Matrix@@SAXAEBV?$FunctionCallbackInfo@VValue@v8@@@Nan@@@Z@4HA 000000018004c800 f   Matrix.obj
 0001:0004b800       ?dtor$1@?0??Canny@Matrix@@SAXAEBV?$FunctionCallbackInfo@VValue@v8@@@Nan@@@Z@4HA 000000018004c800 f   Matrix.obj
 0001:0004b800       ?dtor$1@?0??AdjustROI@Matrix@@SAXAEBV?$FunctionCallbackInfo@VValue@v8@@@Nan@@@Z@4HA 000000018004c800 f   Matrix.obj
 0001:0004b800       ?dtor$1@?0??Init@Contour@@SAXV?$Local@VObject@v8@@@v8@@@Z@4HA 000000018004c800 f   Contours.obj
 0001:0004b800       ?dtor$1@?0??Mean@Matrix@@SAXAEBV?$FunctionCallbackInfo@VValue@v8@@@Nan@@@Z@4HA 000000018004c800 f   Matrix.obj
 0001:0004b800       ?dtor$1@?0??HandleOKCallback@AsyncDetectSimilarity@@UEAAXXZ@4HA 000000018004c800 f   Features2d.obj
 0001:0004b800       ?dtor$1@?0??Init@StereoGC@@SAXV?$Local@VObject@v8@@@v8@@@Z@4HA 000000018004c800 f   Stereo.obj
 0001:0004b800       ?dtor$1@?0??Init@VideoCaptureWrap@@SAXV?$Local@VObject@v8@@@v8@@@Z@4HA 000000018004c800 f   VideoCaptureWrap.obj
 0001:0004b800       ?dtor$1@?0??HandleErrorCallback@AsyncWorker@Nan@@MEAAXXZ@4HA 000000018004c800 f   Matrix.obj
 0001:0004b800       ?dtor$1@?0??Point@Contour@@SAXAEBV?$FunctionCallbackInfo@VValue@v8@@@Nan@@@Z@4HA 000000018004c800 f   Contours.obj
 0001:0004b800       ?dtor$1@?0???0Utf8String@Nan@@QEAA@V?$Local@VValue@v8@@@v8@@@Z@4HA 000000018004c800 f   Matrix.obj
 0001:0004b800       ?dtor$1@?0??MeanWithMask@Matrix@@SAXAEBV?$FunctionCallbackInfo@VValue@v8@@@Nan@@@Z@4HA 000000018004c800 f   Matrix.obj
 0001:0004b800       ?dtor$1@?0??Init@StereoSGBM@@SAXV?$Local@VObject@v8@@@v8@@@Z@4HA 000000018004c800 f   Stereo.obj
 0001:0004b800       ?dtor$1@?0??Hierarchy@Contour@@SAXAEBV?$FunctionCallbackInfo@VValue@v8@@@Nan@@@Z@4HA 000000018004c800 f   Contours.obj
 0001:0004b800       ?dtor$1@?0??ThrowTypeError@Nan@@YAXPEBD@Z@4HA 000000018004c800 f   Matrix.obj
 0001:0004b80e       ?dtor$0@?0??Point@Contour@@SAXAEBV?$FunctionCallbackInfo@VValue@v8@@@Nan@@@Z@4HA 000000018004c80e f   Contours.obj
 0001:0004b80e       ?dtor$0@?0??Init@Contour@@SAXV?$Local@VObject@v8@@@v8@@@Z@4HA 000000018004c80e f   Contours.obj
 0001:0004b80e       ?dtor$0@?0??Init@VideoCaptureWrap@@SAXV?$Local@VObject@v8@@@v8@@@Z@4HA 000000018004c80e f   VideoCaptureWrap.obj
 0001:0004b80e       ?dtor$0@?0??Hierarchy@Contour@@SAXAEBV?$FunctionCallbackInfo@VValue@v8@@@Nan@@@Z@4HA 000000018004c80e f   Contours.obj
 0001:0004b80e       ?dtor$0@?0??ThrowTypeError@Nan@@YAXPEBD@Z@4HA 000000018004c80e f   Matrix.obj
 0001:0004b80e       ?dtor$0@?0??ThrowError@Nan@@YAXPEBD@Z@4HA 000000018004c80e f   Matrix.obj
 0001:0004b80e       ?dtor$0@?0??AdjustROI@Matrix@@SAXAEBV?$FunctionCallbackInfo@VValue@v8@@@Nan@@@Z@4HA 000000018004c80e f   Matrix.obj
 0001:0004b80e       ?dtor$0@?0??Canny@Matrix@@SAXAEBV?$FunctionCallbackInfo@VValue@v8@@@Nan@@@Z@4HA 000000018004c80e f   Matrix.obj
 0001:0004b80e       ?dtor$0@?0??ConvertTo@Matrix@@SAXAEBV?$FunctionCallbackInfo@VValue@v8@@@Nan@@@Z@4HA 000000018004c80e f   Matrix.obj
 0001:0004b80e       ?dtor$0@?0??Subtract@Matrix@@SAXAEBV?$FunctionCallbackInfo@VValue@v8@@@Nan@@@Z@4HA 000000018004c80e f   Matrix.obj
 0001:0004b80e       ?dtor$0@?0???0Utf8String@Nan@@QEAA@V?$Local@VValue@v8@@@v8@@@Z@4HA 000000018004c80e f   Matrix.obj
 0001:0004b80e       ?dtor$0@?0??Init@CascadeClassifierWrap@@SAXV?$Local@VObject@v8@@@v8@@@Z@4HA 000000018004c80e f   CascadeClassifierWrap.obj
 0001:0004b80e       ?dtor$0@?0??MeanWithMask@Matrix@@SAXAEBV?$FunctionCallbackInfo@VValue@v8@@@Nan@@@Z@4HA 000000018004c80e f   Matrix.obj
 0001:0004b80e       ?dtor$0@?0??MeanStdDev@Matrix@@SAXAEBV?$FunctionCallbackInfo@VValue@v8@@@Nan@@@Z@4HA 000000018004c80e f   Matrix.obj
 0001:0004b80e       ?dtor$0@?0??Init@TrackedObject@@SAXV?$Local@VObject@v8@@@v8@@@Z@4HA 000000018004c80e f   CamShift.obj
 0001:0004b80e       ?dtor$0@?0??Init@StereoSGBM@@SAXV?$Local@VObject@v8@@@v8@@@Z@4HA 000000018004c80e f   Stereo.obj
 0001:0004b80e       ?dtor$0@?0??Init@NamedWindow@@SAXV?$Local@VObject@v8@@@v8@@@Z@4HA 000000018004c80e f   HighGUI.obj
 0001:0004b80e       ?dtor$0@?0??Init@StereoGC@@SAXV?$Local@VObject@v8@@@v8@@@Z@4HA 000000018004c80e f   Stereo.obj
 0001:0004b80e       ?dtor$0@?0??HandleErrorCallback@AsyncWorker@Nan@@MEAAXXZ@4HA 000000018004c80e f   Matrix.obj
 0001:0004b80e       ?dtor$0@?0??Mean@Matrix@@SAXAEBV?$FunctionCallbackInfo@VValue@v8@@@Nan@@@Z@4HA 000000018004c80e f   Matrix.obj
 0001:0004b80e       ?dtor$0@?0??HandleOKCallback@AsyncDetectSimilarity@@UEAAXXZ@4HA 000000018004c80e f   Features2d.obj
 0001:0004b81a       ?dtor$2@?0??Point@Contour@@SAXAEBV?$FunctionCallbackInfo@VValue@v8@@@Nan@@@Z@4HA 000000018004c81a f   Contours.obj
 0001:0004b81a       ?dtor$2@?0??MeanStdDev@Matrix@@SAXAEBV?$FunctionCallbackInfo@VValue@v8@@@Nan@@@Z@4HA 000000018004c81a f   Matrix.obj
 0001:0004b81a       ?dtor$2@?0??MeanWithMask@Matrix@@SAXAEBV?$FunctionCallbackInfo@VValue@v8@@@Nan@@@Z@4HA 000000018004c81a f   Matrix.obj
 0001:0004b81a       ?dtor$2@?0??Init@Contour@@SAXV?$Local@VObject@v8@@@v8@@@Z@4HA 000000018004c81a f   Contours.obj
 0001:0004b81a       ?dtor$2@?0??Hierarchy@Contour@@SAXAEBV?$FunctionCallbackInfo@VValue@v8@@@Nan@@@Z@4HA 000000018004c81a f   Contours.obj
 0001:0004b81a       ?dtor$2@?0??ConvertTo@Matrix@@SAXAEBV?$FunctionCallbackInfo@VValue@v8@@@Nan@@@Z@4HA 000000018004c81a f   Matrix.obj
 0001:0004b81a       ?dtor$2@?0??Init@CascadeClassifierWrap@@SAXV?$Local@VObject@v8@@@v8@@@Z@4HA 000000018004c81a f   CascadeClassifierWrap.obj
 0001:0004b81a       ?dtor$3@?0??HandleOKCallback@AsyncDetectSimilarity@@UEAAXXZ@4HA 000000018004c81a f   Features2d.obj
 0001:0004b81a       ?dtor$2@?0??Init@TrackedObject@@SAXV?$Local@VObject@v8@@@v8@@@Z@4HA 000000018004c81a f   CamShift.obj
 0001:0004b81a       ?dtor$2@?0??Init@StereoSGBM@@SAXV?$Local@VObject@v8@@@v8@@@Z@4HA 000000018004c81a f   Stereo.obj
 0001:0004b81a       ?dtor$2@?0??Canny@Matrix@@SAXAEBV?$FunctionCallbackInfo@VValue@v8@@@Nan@@@Z@4HA 000000018004c81a f   Matrix.obj
 0001:0004b81a       ?dtor$2@?0???0Utf8String@Nan@@QEAA@V?$Local@VValue@v8@@@v8@@@Z@4HA 000000018004c81a f   Matrix.obj
 0001:0004b81a       ?dtor$2@?0??Init@StereoGC@@SAXV?$Local@VObject@v8@@@v8@@@Z@4HA 000000018004c81a f   Stereo.obj
 0001:0004b81a       ?dtor$2@?0??ThrowTypeError@Nan@@YAXPEBD@Z@4HA 000000018004c81a f   Matrix.obj
 0001:0004b81a       ?dtor$2@?0??ThrowError@Nan@@YAXPEBD@Z@4HA 000000018004c81a f   Matrix.obj
 0001:0004b81a       ?dtor$2@?0??Init@NamedWindow@@SAXV?$Local@VObject@v8@@@v8@@@Z@4HA 000000018004c81a f   HighGUI.obj
 0001:0004b81a       ?dtor$3@?0??HandleErrorCallback@AsyncWorker@Nan@@MEAAXXZ@4HA 000000018004c81a f   Matrix.obj
 0001:0004b81a       ?dtor$2@?0??AdjustROI@Matrix@@SAXAEBV?$FunctionCallbackInfo@VValue@v8@@@Nan@@@Z@4HA 000000018004c81a f   Matrix.obj
 0001:0004b81a       ?dtor$2@?0??Subtract@Matrix@@SAXAEBV?$FunctionCallbackInfo@VValue@v8@@@Nan@@@Z@4HA 000000018004c81a f   Matrix.obj
 0001:0004b81a       ?dtor$2@?0??Mean@Matrix@@SAXAEBV?$FunctionCallbackInfo@VValue@v8@@@Nan@@@Z@4HA 000000018004c81a f   Matrix.obj
 0001:0004b81a       ?dtor$2@?0??Init@VideoCaptureWrap@@SAXV?$Local@VObject@v8@@@v8@@@Z@4HA 000000018004c81a f   VideoCaptureWrap.obj
 0001:0004b830       ?dtor$0@?0??Call@Callback@Nan@@QEBA?AV?$Local@VValue@v8@@@v8@@HQEAV34@@Z@4HA 000000018004c830 f   Matrix.obj
 0001:0004b83e       ?dtor$2@?0??Call@Callback@Nan@@QEBA?AV?$Local@VValue@v8@@@v8@@HQEAV34@@Z@4HA 000000018004c83e f   Matrix.obj
 0001:0004b850       ?dtor$1@?0??Error@Nan@@YA?AV?$Local@VValue@v8@@@v8@@PEBD@Z@4HA 000000018004c850 f   OpenCV.obj
 0001:0004b850       ?dtor$1@?0??Call_@Callback@Nan@@AEBA?AV?$Local@VValue@v8@@@v8@@PEAVIsolate@4@V?$Local@VObject@v8@@@4@HQEAV34@@Z@4HA 000000018004c850 f   Matrix.obj
 0001:0004b85e       ?dtor$0@?0??Error@Nan@@YA?AV?$Local@VValue@v8@@@v8@@PEBD@Z@4HA 000000018004c85e f   OpenCV.obj
 0001:0004b85e       ?dtor$0@?0??Call_@Callback@Nan@@AEBA?AV?$Local@VValue@v8@@@v8@@PEAVIsolate@4@V?$Local@VObject@v8@@@4@HQEAV34@@Z@4HA 000000018004c85e f   Matrix.obj
 0001:0004b86a       ?dtor$2@?0??Call_@Callback@Nan@@AEBA?AV?$Local@VValue@v8@@@v8@@PEAVIsolate@4@V?$Local@VObject@v8@@@4@HQEAV34@@Z@4HA 000000018004c86a f   Matrix.obj
 0001:0004b86a       ?dtor$2@?0??Error@Nan@@YA?AV?$Local@VValue@v8@@@v8@@PEBD@Z@4HA 000000018004c86a f   OpenCV.obj
 0001:0004b878       ?dtor$3@?0??Error@Nan@@YA?AV?$Local@VValue@v8@@@v8@@PEBD@Z@4HA 000000018004c878 f   OpenCV.obj
 0001:0004b878       ?dtor$3@?0??Call_@Callback@Nan@@AEBA?AV?$Local@VValue@v8@@@v8@@PEAVIsolate@4@V?$Local@VObject@v8@@@4@HQEAV34@@Z@4HA 000000018004c878 f   Matrix.obj
 0001:0004b890       ?dtor$0@?0???1?$Persistent@VFunction@v8@@V?$NonCopyablePersistentTraits@VFunction@v8@@@2@@Nan@@QEAA@XZ@4HA 000000018004c890 f   Matrix.obj
 0001:0004b890       ?dtor$0@?0???1?$Persistent@VObject@v8@@V?$NonCopyablePersistentTraits@VObject@v8@@@2@@Nan@@QEAA@XZ@4HA 000000018004c890 f   Matrix.obj
 0001:0004b8a0       ?dtor$2@?0???0AsyncWorker@Nan@@QEAA@PEAVCallback@1@@Z@4HA 000000018004c8a0 f   Matrix.obj
 0001:0004b8ac       ?dtor$0@?0???0AsyncWorker@Nan@@QEAA@PEAVCallback@1@@Z@4HA 000000018004c8ac f   Matrix.obj
 0001:0004b8bf       ?dtor$3@?0???0AsyncWorker@Nan@@QEAA@PEAVCallback@1@@Z@4HA 000000018004c8bf f   Matrix.obj
 0001:0004b8cd       ?dtor$1@?0???0AsyncWorker@Nan@@QEAA@PEAVCallback@1@@Z@4HA 000000018004c8cd f   Matrix.obj
 0001:0004b8d9       ?dtor$4@?0???0AsyncWorker@Nan@@QEAA@PEAVCallback@1@@Z@4HA 000000018004c8d9 f   Matrix.obj
 0001:0004b8f0       ?dtor$0@?0???1AsyncWorker@Nan@@UEAA@XZ@4HA 000000018004c8f0 f   Matrix.obj
 0001:0004b903       ?dtor$2@?0???1AsyncWorker@Nan@@UEAA@XZ@4HA 000000018004c903 f   Matrix.obj
 0001:0004b911       ?dtor$1@?0???1AsyncWorker@Nan@@UEAA@XZ@4HA 000000018004c911 f   Matrix.obj
 0001:0004b91d       ?dtor$3@?0???1AsyncWorker@Nan@@UEAA@XZ@4HA 000000018004c91d f   Matrix.obj
 0001:0004b929       ?dtor$4@?0???1AsyncWorker@Nan@@UEAA@XZ@4HA 000000018004c929 f   Matrix.obj
 0001:0004b935       ?dtor$5@?0???1AsyncWorker@Nan@@UEAA@XZ@4HA 000000018004c935 f   Matrix.obj
 0001:0004b943       ?dtor$6@?0???1AsyncWorker@Nan@@UEAA@XZ@4HA 000000018004c943 f   Matrix.obj
 0001:0004b950       ?dtor$1@?0??WorkComplete@AsyncWorker@Nan@@UEAAXXZ@4HA 000000018004c950 f   Matrix.obj
 0001:0004b95e       ?dtor$0@?0??WorkComplete@AsyncWorker@Nan@@UEAAXXZ@4HA 000000018004c95e f   Matrix.obj
 0001:0004b96a       ?dtor$2@?0??WorkComplete@AsyncWorker@Nan@@UEAAXXZ@4HA 000000018004c96a f   Matrix.obj
 0001:0004b976       ?dtor$3@?0??WorkComplete@AsyncWorker@Nan@@UEAAXXZ@4HA 000000018004c976 f   Matrix.obj
 0001:0004b982       ?dtor$4@?0??WorkComplete@AsyncWorker@Nan@@UEAAXXZ@4HA 000000018004c982 f   Matrix.obj
 0001:0004b990       ?dtor$1@?0??Release@Matrix@@SAXAEBV?$FunctionCallbackInfo@VValue@v8@@@Nan@@@Z@4HA 000000018004c990 f   Matrix.obj
 0001:0004b990       ?dtor$1@?0??Set@Matrix@@SAXAEBV?$FunctionCallbackInfo@VValue@v8@@@Nan@@@Z@4HA 000000018004c990 f   Matrix.obj
 0001:0004b990       ?dtor$1@?0??Size@Matrix@@SAXAEBV?$FunctionCallbackInfo@VValue@v8@@@Nan@@@Z@4HA 000000018004c990 f   Matrix.obj
 0001:0004b990       ?dtor$1@?0??Empty@Matrix@@SAXAEBV?$FunctionCallbackInfo@VValue@v8@@@Nan@@@Z@4HA 000000018004c990 f   Matrix.obj
 0001:0004b990       ?dtor$1@?0??Flip@Matrix@@SAXAEBV?$FunctionCallbackInfo@VValue@v8@@@Nan@@@Z@4HA 000000018004c990 f   Matrix.obj
 0001:0004b990       ?dtor$1@?0??CountNonZero@Matrix@@SAXAEBV?$FunctionCallbackInfo@VValue@v8@@@Nan@@@Z@4HA 000000018004c990 f   Matrix.obj
 0001:0004b990       ?dtor$1@?0??EqualizeHist@Matrix@@SAXAEBV?$FunctionCallbackInfo@VValue@v8@@@Nan@@@Z@4HA 000000018004c990 f   Matrix.obj
 0001:0004b990       ?dtor$1@?0??Copy@Matrix@@SAXAEBV?$FunctionCallbackInfo@VValue@v8@@@Nan@@@Z@4HA 000000018004c990 f   Matrix.obj
 0001:0004b990       ?dtor$1@?0??Dot@Point@@SAXAEBV?$FunctionCallbackInfo@VValue@v8@@@Nan@@@Z@4HA 000000018004c990 f   Point.obj
 0001:0004b990       ?dtor$1@?0??ConvertGrayscale@Matrix@@SAXAEBV?$FunctionCallbackInfo@VValue@v8@@@Nan@@@Z@4HA 000000018004c990 f   Matrix.obj
 0001:0004b990       ?dtor$1@?0??Destroy@NamedWindow@@SAXAEBV?$FunctionCallbackInfo@VValue@v8@@@Nan@@@Z@4HA 000000018004c990 f   HighGUI.obj
 0001:0004b990       ?dtor$1@?0??PyrDown@Matrix@@SAXAEBV?$FunctionCallbackInfo@VValue@v8@@@Nan@@@Z@4HA 000000018004c990 f   Matrix.obj
 0001:0004b990       ?dtor$1@?0??GetFrameAt@VideoCaptureWrap@@SAXAEBV?$FunctionCallbackInfo@VValue@v8@@@Nan@@@Z@4HA 000000018004c990 f   VideoCaptureWrap.obj
 0001:0004b990       ?dtor$1@?0??Size@Contour@@SAXAEBV?$FunctionCallbackInfo@VValue@v8@@@Nan@@@Z@4HA 000000018004c990 f   Contours.obj
 0001:0004b990       ?dtor$1@?0??GetX@Point@@SAXV?$Local@VString@v8@@@v8@@AEBV?$PropertyCallbackInfo@VValue@v8@@@Nan@@@Z@4HA 000000018004c990 f   Point.obj
 0001:0004b990       ?dtor$1@?0??Channels@Matrix@@SAXAEBV?$FunctionCallbackInfo@VValue@v8@@@Nan@@@Z@4HA 000000018004c990 f   Matrix.obj
 0001:0004b990       ?dtor$1@?0??PyrUp@Matrix@@SAXAEBV?$FunctionCallbackInfo@VValue@v8@@@Nan@@@Z@4HA 000000018004c990 f   Matrix.obj
 0001:0004b990       ?dtor$1@?0??AbsDiff@Matrix@@SAXAEBV?$FunctionCallbackInfo@VValue@v8@@@Nan@@@Z@4HA 000000018004c990 f   Matrix.obj
 0001:0004b990       ?dtor$1@?0??CornerCount@Contour@@SAXAEBV?$FunctionCallbackInfo@VValue@v8@@@Nan@@@Z@4HA 000000018004c990 f   Contours.obj
 0001:0004b990       ?dtor$1@?0??PushBack@Matrix@@SAXAEBV?$FunctionCallbackInfo@VValue@v8@@@Nan@@@Z@4HA 000000018004c990 f   Matrix.obj
 0001:0004b990       ?dtor$1@?0??GetFrameCount@VideoCaptureWrap@@SAXAEBV?$FunctionCallbackInfo@VValue@v8@@@Nan@@@Z@4HA 000000018004c990 f   VideoCaptureWrap.obj
 0001:0004b990       ?dtor$1@?0??Put@Matrix@@SAXAEBV?$FunctionCallbackInfo@VValue@v8@@@Nan@@@Z@4HA 000000018004c990 f   Matrix.obj
 0001:0004b990       ?dtor$1@?0??Ptr@Matrix@@SAXAEBV?$FunctionCallbackInfo@VValue@v8@@@Nan@@@Z@4HA 000000018004c990 f   Matrix.obj
 0001:0004b990       ?dtor$1@?0??ReadSync@VideoCaptureWrap@@SAXAEBV?$FunctionCallbackInfo@VValue@v8@@@Nan@@@Z@4HA 000000018004c990 f   VideoCaptureWrap.obj
 0001:0004b990       ?dtor$1@?0??Width@Matrix@@SAXAEBV?$FunctionCallbackInfo@VValue@v8@@@Nan@@@Z@4HA 000000018004c990 f   Matrix.obj
 0001:0004b990       ?dtor$1@?0??Release@VideoCaptureWrap@@SAXAEBV?$FunctionCallbackInfo@VValue@v8@@@Nan@@@Z@4HA 000000018004c990 f   VideoCaptureWrap.obj
 0001:0004b990       ?dtor$1@?0??BlockingWaitKey@NamedWindow@@SAXAEBV?$FunctionCallbackInfo@VValue@v8@@@Nan@@@Z@4HA 000000018004c990 f   HighGUI.obj
 0001:0004b990       ?dtor$1@?0??SetHeight@VideoCaptureWrap@@SAXAEBV?$FunctionCallbackInfo@VValue@v8@@@Nan@@@Z@4HA 000000018004c990 f   VideoCaptureWrap.obj
 0001:0004b990       ?dtor$1@?0??Pixel@Matrix@@SAXAEBV?$FunctionCallbackInfo@VValue@v8@@@Nan@@@Z@4HA 000000018004c990 f   Matrix.obj
 0001:0004b990       ?dtor$1@?0??MatchTemplateByMatrix@Matrix@@SAXAEBV?$FunctionCallbackInfo@VValue@v8@@@Nan@@@Z@4HA 000000018004c990 f   Matrix.obj
 0001:0004b990       ?dtor$1@?0??LocateROI@Matrix@@SAXAEBV?$FunctionCallbackInfo@VValue@v8@@@Nan@@@Z@4HA 000000018004c990 f   Matrix.obj
 0001:0004b990       ?dtor$1@?0??Height@Matrix@@SAXAEBV?$FunctionCallbackInfo@VValue@v8@@@Nan@@@Z@4HA 000000018004c990 f   Matrix.obj
 0001:0004b990       ?dtor$1@?0??SetPosition@VideoCaptureWrap@@SAXAEBV?$FunctionCallbackInfo@VValue@v8@@@Nan@@@Z@4HA 000000018004c990 f   VideoCaptureWrap.obj
 0001:0004b990       ?dtor$1@?0??SetWidth@VideoCaptureWrap@@SAXAEBV?$FunctionCallbackInfo@VValue@v8@@@Nan@@@Z@4HA 000000018004c990 f   VideoCaptureWrap.obj
 0001:0004b990       ?dtor$1@?0??CopyWithMask@Matrix@@SAXAEBV?$FunctionCallbackInfo@VValue@v8@@@Nan@@@Z@4HA 000000018004c990 f   Matrix.obj
 0001:0004b990       ?dtor$1@?0??HandleOKCallback@AsyncWorker@Nan@@MEAAXXZ@4HA 000000018004c990 f   Matrix.obj
 0001:0004b990       ?dtor$1@?0??GetY@Point@@SAXV?$Local@VString@v8@@@v8@@AEBV?$PropertyCallbackInfo@VValue@v8@@@Nan@@@Z@4HA 000000018004c990 f   Point.obj
 0001:0004b99e       ?dtor$0@?0??HandleOKCallback@AsyncWorker@Nan@@MEAAXXZ@4HA 000000018004c99e f   Matrix.obj
 0001:0004b99e       ?dtor$0@?0??Destroy@NamedWindow@@SAXAEBV?$FunctionCallbackInfo@VValue@v8@@@Nan@@@Z@4HA 000000018004c99e f   HighGUI.obj
 0001:0004b99e       ?dtor$0@?0??LocateROI@Matrix@@SAXAEBV?$FunctionCallbackInfo@VValue@v8@@@Nan@@@Z@4HA 000000018004c99e f   Matrix.obj
 0001:0004b99e       ?dtor$0@?0??BlockingWaitKey@NamedWindow@@SAXAEBV?$FunctionCallbackInfo@VValue@v8@@@Nan@@@Z@4HA 000000018004c99e f   HighGUI.obj
 0001:0004b99e       ?dtor$0@?0??Channels@Matrix@@SAXAEBV?$FunctionCallbackInfo@VValue@v8@@@Nan@@@Z@4HA 000000018004c99e f   Matrix.obj
 0001:0004b99e       ?dtor$0@?0??SetWidth@VideoCaptureWrap@@SAXAEBV?$FunctionCallbackInfo@VValue@v8@@@Nan@@@Z@4HA 000000018004c99e f   VideoCaptureWrap.obj
 0001:0004b99e       ?dtor$0@?0??ConvertGrayscale@Matrix@@SAXAEBV?$FunctionCallbackInfo@VValue@v8@@@Nan@@@Z@4HA 000000018004c99e f   Matrix.obj
 0001:0004b99e       ?dtor$0@?0??Copy@Matrix@@SAXAEBV?$FunctionCallbackInfo@VValue@v8@@@Nan@@@Z@4HA 000000018004c99e f   Matrix.obj
 0001:0004b99e       ?dtor$0@?0??Pixel@Matrix@@SAXAEBV?$FunctionCallbackInfo@VValue@v8@@@Nan@@@Z@4HA 000000018004c99e f   Matrix.obj
 0001:0004b99e       ?dtor$0@?0??MatchTemplateByMatrix@Matrix@@SAXAEBV?$FunctionCallbackInfo@VValue@v8@@@Nan@@@Z@4HA 000000018004c99e f   Matrix.obj
 0001:0004b99e       ?dtor$0@?0??CopyWithMask@Matrix@@SAXAEBV?$FunctionCallbackInfo@VValue@v8@@@Nan@@@Z@4HA 000000018004c99e f   Matrix.obj
 0001:0004b99e       ?dtor$0@?0??CountNonZero@Matrix@@SAXAEBV?$FunctionCallbackInfo@VValue@v8@@@Nan@@@Z@4HA 000000018004c99e f   Matrix.obj
 0001:0004b99e       ?dtor$0@?0??Ptr@Matrix@@SAXAEBV?$FunctionCallbackInfo@VValue@v8@@@Nan@@@Z@4HA 000000018004c99e f   Matrix.obj
 0001:0004b99e       ?dtor$0@?0??PushBack@Matrix@@SAXAEBV?$FunctionCallbackInfo@VValue@v8@@@Nan@@@Z@4HA 000000018004c99e f   Matrix.obj
 0001:0004b99e       ?dtor$0@?0??Put@Matrix@@SAXAEBV?$FunctionCallbackInfo@VValue@v8@@@Nan@@@Z@4HA 000000018004c99e f   Matrix.obj
 0001:0004b99e       ?dtor$0@?0??GetFrameAt@VideoCaptureWrap@@SAXAEBV?$FunctionCallbackInfo@VValue@v8@@@Nan@@@Z@4HA 000000018004c99e f   VideoCaptureWrap.obj
 0001:0004b99e       ?dtor$0@?0??GetFrameCount@VideoCaptureWrap@@SAXAEBV?$FunctionCallbackInfo@VValue@v8@@@Nan@@@Z@4HA 000000018004c99e f   VideoCaptureWrap.obj
 0001:0004b99e       ?dtor$0@?0??PyrDown@Matrix@@SAXAEBV?$FunctionCallbackInfo@VValue@v8@@@Nan@@@Z@4HA 000000018004c99e f   Matrix.obj
 0001:0004b99e       ?dtor$0@?0??ReadSync@VideoCaptureWrap@@SAXAEBV?$FunctionCallbackInfo@VValue@v8@@@Nan@@@Z@4HA 000000018004c99e f   VideoCaptureWrap.obj
 0001:0004b99e       ?dtor$0@?0??Width@Matrix@@SAXAEBV?$FunctionCallbackInfo@VValue@v8@@@Nan@@@Z@4HA 000000018004c99e f   Matrix.obj
 0001:0004b99e       ?dtor$0@?0??Size@Contour@@SAXAEBV?$FunctionCallbackInfo@VValue@v8@@@Nan@@@Z@4HA 000000018004c99e f   Contours.obj
 0001:0004b99e       ?dtor$0@?0??PyrUp@Matrix@@SAXAEBV?$FunctionCallbackInfo@VValue@v8@@@Nan@@@Z@4HA 000000018004c99e f   Matrix.obj
 0001:0004b99e       ?dtor$0@?0??CornerCount@Contour@@SAXAEBV?$FunctionCallbackInfo@VValue@v8@@@Nan@@@Z@4HA 000000018004c99e f   Contours.obj
 0001:0004b99e       ?dtor$0@?0??Height@Matrix@@SAXAEBV?$FunctionCallbackInfo@VValue@v8@@@Nan@@@Z@4HA 000000018004c99e f   Matrix.obj
 0001:0004b99e       ?dtor$0@?0??Release@Matrix@@SAXAEBV?$FunctionCallbackInfo@VValue@v8@@@Nan@@@Z@4HA 000000018004c99e f   Matrix.obj
 0001:0004b99e       ?dtor$0@?0??Empty@Matrix@@SAXAEBV?$FunctionCallbackInfo@VValue@v8@@@Nan@@@Z@4HA 000000018004c99e f   Matrix.obj
 0001:0004b99e       ?dtor$0@?0??EqualizeHist@Matrix@@SAXAEBV?$FunctionCallbackInfo@VValue@v8@@@Nan@@@Z@4HA 000000018004c99e f   Matrix.obj
 0001:0004b99e       ?dtor$0@?0??Size@Matrix@@SAXAEBV?$FunctionCallbackInfo@VValue@v8@@@Nan@@@Z@4HA 000000018004c99e f   Matrix.obj
 0001:0004b99e       ?dtor$0@?0??Release@VideoCaptureWrap@@SAXAEBV?$FunctionCallbackInfo@VValue@v8@@@Nan@@@Z@4HA 000000018004c99e f   VideoCaptureWrap.obj
 0001:0004b99e       ?dtor$0@?0??Dot@Point@@SAXAEBV?$FunctionCallbackInfo@VValue@v8@@@Nan@@@Z@4HA 000000018004c99e f   Point.obj
 0001:0004b99e       ?dtor$0@?0??Set@Matrix@@SAXAEBV?$FunctionCallbackInfo@VValue@v8@@@Nan@@@Z@4HA 000000018004c99e f   Matrix.obj
 0001:0004b99e       ?dtor$0@?0??GetX@Point@@SAXV?$Local@VString@v8@@@v8@@AEBV?$PropertyCallbackInfo@VValue@v8@@@Nan@@@Z@4HA 000000018004c99e f   Point.obj
 0001:0004b99e       ?dtor$0@?0??Flip@Matrix@@SAXAEBV?$FunctionCallbackInfo@VValue@v8@@@Nan@@@Z@4HA 000000018004c99e f   Matrix.obj
 0001:0004b99e       ?dtor$0@?0??SetHeight@VideoCaptureWrap@@SAXAEBV?$FunctionCallbackInfo@VValue@v8@@@Nan@@@Z@4HA 000000018004c99e f   VideoCaptureWrap.obj
 0001:0004b99e       ?dtor$0@?0??GetY@Point@@SAXV?$Local@VString@v8@@@v8@@AEBV?$PropertyCallbackInfo@VValue@v8@@@Nan@@@Z@4HA 000000018004c99e f   Point.obj
 0001:0004b99e       ?dtor$0@?0??SetPosition@VideoCaptureWrap@@SAXAEBV?$FunctionCallbackInfo@VValue@v8@@@Nan@@@Z@4HA 000000018004c99e f   VideoCaptureWrap.obj
 0001:0004b99e       ?dtor$0@?0??AbsDiff@Matrix@@SAXAEBV?$FunctionCallbackInfo@VValue@v8@@@Nan@@@Z@4HA 000000018004c99e f   Matrix.obj
 0001:0004b9aa       ?dtor$2@?0??PyrDown@Matrix@@SAXAEBV?$FunctionCallbackInfo@VValue@v8@@@Nan@@@Z@4HA 000000018004c9aa f   Matrix.obj
 0001:0004b9aa       ?dtor$2@?0??PyrUp@Matrix@@SAXAEBV?$FunctionCallbackInfo@VValue@v8@@@Nan@@@Z@4HA 000000018004c9aa f   Matrix.obj
 0001:0004b9aa       ?dtor$2@?0??Release@Matrix@@SAXAEBV?$FunctionCallbackInfo@VValue@v8@@@Nan@@@Z@4HA 000000018004c9aa f   Matrix.obj
 0001:0004b9aa       ?dtor$2@?0??AbsDiff@Matrix@@SAXAEBV?$FunctionCallbackInfo@VValue@v8@@@Nan@@@Z@4HA 000000018004c9aa f   Matrix.obj
 0001:0004b9aa       ?dtor$2@?0??Dot@Point@@SAXAEBV?$FunctionCallbackInfo@VValue@v8@@@Nan@@@Z@4HA 000000018004c9aa f   Point.obj
 0001:0004b9aa       ?dtor$2@?0??Set@Matrix@@SAXAEBV?$FunctionCallbackInfo@VValue@v8@@@Nan@@@Z@4HA 000000018004c9aa f   Matrix.obj
 0001:0004b9aa       ?dtor$2@?0??GetY@Point@@SAXV?$Local@VString@v8@@@v8@@AEBV?$PropertyCallbackInfo@VValue@v8@@@Nan@@@Z@4HA 000000018004c9aa f   Point.obj
 0001:0004b9aa       ?dtor$2@?0??Size@Matrix@@SAXAEBV?$FunctionCallbackInfo@VValue@v8@@@Nan@@@Z@4HA 000000018004c9aa f   Matrix.obj
 0001:0004b9aa       ?dtor$2@?0??Width@Matrix@@SAXAEBV?$FunctionCallbackInfo@VValue@v8@@@Nan@@@Z@4HA 000000018004c9aa f   Matrix.obj
 0001:0004b9aa       ?dtor$2@?0??CornerCount@Contour@@SAXAEBV?$FunctionCallbackInfo@VValue@v8@@@Nan@@@Z@4HA 000000018004c9aa f   Contours.obj
 0001:0004b9aa       ?dtor$2@?0??Height@Matrix@@SAXAEBV?$FunctionCallbackInfo@VValue@v8@@@Nan@@@Z@4HA 000000018004c9aa f   Matrix.obj
 0001:0004b9aa       ?dtor$2@?0??Put@Matrix@@SAXAEBV?$FunctionCallbackInfo@VValue@v8@@@Nan@@@Z@4HA 000000018004c9aa f   Matrix.obj
 0001:0004b9aa       ?dtor$2@?0??Destroy@NamedWindow@@SAXAEBV?$FunctionCallbackInfo@VValue@v8@@@Nan@@@Z@4HA 000000018004c9aa f   HighGUI.obj
 0001:0004b9aa       ?dtor$2@?0??PushBack@Matrix@@SAXAEBV?$FunctionCallbackInfo@VValue@v8@@@Nan@@@Z@4HA 000000018004c9aa f   Matrix.obj
 0001:0004b9aa       ?dtor$2@?0??Ptr@Matrix@@SAXAEBV?$FunctionCallbackInfo@VValue@v8@@@Nan@@@Z@4HA 000000018004c9aa f   Matrix.obj
 0001:0004b9aa       ?dtor$2@?0??ReadSync@VideoCaptureWrap@@SAXAEBV?$FunctionCallbackInfo@VValue@v8@@@Nan@@@Z@4HA 000000018004c9aa f   VideoCaptureWrap.obj
 0001:0004b9aa       ?dtor$2@?0??Pixel@Matrix@@SAXAEBV?$FunctionCallbackInfo@VValue@v8@@@Nan@@@Z@4HA 000000018004c9aa f   Matrix.obj
 0001:0004b9aa       ?dtor$2@?0??ConvertGrayscale@Matrix@@SAXAEBV?$FunctionCallbackInfo@VValue@v8@@@Nan@@@Z@4HA 000000018004c9aa f   Matrix.obj
 0001:0004b9aa       ?dtor$3@?0??GetFrameAt@VideoCaptureWrap@@SAXAEBV?$FunctionCallbackInfo@VValue@v8@@@Nan@@@Z@4HA 000000018004c9aa f   VideoCaptureWrap.obj
 0001:0004b9aa       ?dtor$2@?0??Copy@Matrix@@SAXAEBV?$FunctionCallbackInfo@VValue@v8@@@Nan@@@Z@4HA 000000018004c9aa f   Matrix.obj
 0001:0004b9aa       ?dtor$2@?0??LocateROI@Matrix@@SAXAEBV?$FunctionCallbackInfo@VValue@v8@@@Nan@@@Z@4HA 000000018004c9aa f   Matrix.obj
 0001:0004b9aa       ?dtor$2@?0??CopyWithMask@Matrix@@SAXAEBV?$FunctionCallbackInfo@VValue@v8@@@Nan@@@Z@4HA 000000018004c9aa f   Matrix.obj
 0001:0004b9aa       ?dtor$3@?0??HandleOKCallback@AsyncWorker@Nan@@MEAAXXZ@4HA 000000018004c9aa f   Matrix.obj
 0001:0004b9aa       ?dtor$2@?0??Release@VideoCaptureWrap@@SAXAEBV?$FunctionCallbackInfo@VValue@v8@@@Nan@@@Z@4HA 000000018004c9aa f   VideoCaptureWrap.obj
 0001:0004b9aa       ?dtor$2@?0??Flip@Matrix@@SAXAEBV?$FunctionCallbackInfo@VValue@v8@@@Nan@@@Z@4HA 000000018004c9aa f   Matrix.obj
 0001:0004b9aa       ?dtor$2@?0??CountNonZero@Matrix@@SAXAEBV?$FunctionCallbackInfo@VValue@v8@@@Nan@@@Z@4HA 000000018004c9aa f   Matrix.obj
 0001:0004b9aa       ?dtor$3@?0??SetHeight@VideoCaptureWrap@@SAXAEBV?$FunctionCallbackInfo@VValue@v8@@@Nan@@@Z@4HA 000000018004c9aa f   VideoCaptureWrap.obj
 0001:0004b9aa       ?dtor$2@?0??Empty@Matrix@@SAXAEBV?$FunctionCallbackInfo@VValue@v8@@@Nan@@@Z@4HA 000000018004c9aa f   Matrix.obj
 0001:0004b9aa       ?dtor$2@?0??Channels@Matrix@@SAXAEBV?$FunctionCallbackInfo@VValue@v8@@@Nan@@@Z@4HA 000000018004c9aa f   Matrix.obj
 0001:0004b9aa       ?dtor$2@?0??GetFrameCount@VideoCaptureWrap@@SAXAEBV?$FunctionCallbackInfo@VValue@v8@@@Nan@@@Z@4HA 000000018004c9aa f   VideoCaptureWrap.obj
 0001:0004b9aa       ?dtor$2@?0??BlockingWaitKey@NamedWindow@@SAXAEBV?$FunctionCallbackInfo@VValue@v8@@@Nan@@@Z@4HA 000000018004c9aa f   HighGUI.obj
 0001:0004b9aa       ?dtor$3@?0??SetPosition@VideoCaptureWrap@@SAXAEBV?$FunctionCallbackInfo@VValue@v8@@@Nan@@@Z@4HA 000000018004c9aa f   VideoCaptureWrap.obj
 0001:0004b9aa       ?dtor$3@?0??SetWidth@VideoCaptureWrap@@SAXAEBV?$FunctionCallbackInfo@VValue@v8@@@Nan@@@Z@4HA 000000018004c9aa f   VideoCaptureWrap.obj
 0001:0004b9aa       ?dtor$2@?0??EqualizeHist@Matrix@@SAXAEBV?$FunctionCallbackInfo@VValue@v8@@@Nan@@@Z@4HA 000000018004c9aa f   Matrix.obj
 0001:0004b9aa       ?dtor$2@?0??MatchTemplateByMatrix@Matrix@@SAXAEBV?$FunctionCallbackInfo@VValue@v8@@@Nan@@@Z@4HA 000000018004c9aa f   Matrix.obj
 0001:0004b9aa       ?dtor$2@?0??Size@Contour@@SAXAEBV?$FunctionCallbackInfo@VValue@v8@@@Nan@@@Z@4HA 000000018004c9aa f   Contours.obj
 0001:0004b9aa       ?dtor$2@?0??GetX@Point@@SAXV?$Local@VString@v8@@@v8@@AEBV?$PropertyCallbackInfo@VValue@v8@@@Nan@@@Z@4HA 000000018004c9aa f   Point.obj
 0001:0004b9c0       ?dtor$1@?0??SetPrototypeMethod@Nan@@YAXV?$Local@VFunctionTemplate@v8@@@v8@@PEBDP6AXAEBV?$FunctionCallbackInfo@VValue@v8@@@1@@Z@Z@4HA 000000018004c9c0 f   Matrix.obj
 0001:0004b9c0       ?dtor$1@?0???$SetMethod@VFunctionTemplate@v8@@VLocal@2@@Nan@@YAXV?$Local@VFunctionTemplate@v8@@@v8@@PEBDP6AXAEBV?$FunctionCallbackInfo@VValue@v8@@@0@@Z@Z@4HA 000000018004c9c0 f   Matrix.obj
 0001:0004b9c0       ?dtor$1@?0???$SetMethod@VObject@v8@@VLocal@2@@Nan@@YAXV?$Local@VObject@v8@@@v8@@PEBDP6AXAEBV?$FunctionCallbackInfo@VValue@v8@@@0@@Z@Z@4HA 000000018004c9c0 f   OpenCV.obj
 0001:0004b9c0       ?dtor$1@?0??Init@StereoBM@@SAXV?$Local@VObject@v8@@@v8@@@Z@4HA 000000018004c9c0 f   Stereo.obj
 0001:0004b9ce       ?dtor$0@?0??SetPrototypeMethod@Nan@@YAXV?$Local@VFunctionTemplate@v8@@@v8@@PEBDP6AXAEBV?$FunctionCallbackInfo@VValue@v8@@@1@@Z@Z@4HA 000000018004c9ce f   Matrix.obj
 0001:0004b9ce       ?dtor$0@?0???$SetMethod@VFunctionTemplate@v8@@VLocal@2@@Nan@@YAXV?$Local@VFunctionTemplate@v8@@@v8@@PEBDP6AXAEBV?$FunctionCallbackInfo@VValue@v8@@@0@@Z@Z@4HA 000000018004c9ce f   Matrix.obj
 0001:0004b9ce       ?dtor$0@?0??Init@StereoBM@@SAXV?$Local@VObject@v8@@@v8@@@Z@4HA 000000018004c9ce f   Stereo.obj
 0001:0004b9ce       ?dtor$0@?0???$SetMethod@VObject@v8@@VLocal@2@@Nan@@YAXV?$Local@VObject@v8@@@v8@@PEBDP6AXAEBV?$FunctionCallbackInfo@VValue@v8@@@0@@Z@Z@4HA 000000018004c9ce f   OpenCV.obj
 0001:0004b9da       ?dtor$5@?0??Init@StereoBM@@SAXV?$Local@VObject@v8@@@v8@@@Z@4HA 000000018004c9da f   Stereo.obj
 0001:0004b9da       ?dtor$2@?0???$SetMethod@VObject@v8@@VLocal@2@@Nan@@YAXV?$Local@VObject@v8@@@v8@@PEBDP6AXAEBV?$FunctionCallbackInfo@VValue@v8@@@0@@Z@Z@4HA 000000018004c9da f   OpenCV.obj
 0001:0004b9da       ?dtor$2@?0???$SetMethod@VFunctionTemplate@v8@@VLocal@2@@Nan@@YAXV?$Local@VFunctionTemplate@v8@@@v8@@PEBDP6AXAEBV?$FunctionCallbackInfo@VValue@v8@@@0@@Z@Z@4HA 000000018004c9da f   Matrix.obj
 0001:0004b9da       ?dtor$2@?0??SetPrototypeMethod@Nan@@YAXV?$Local@VFunctionTemplate@v8@@@v8@@PEBDP6AXAEBV?$FunctionCallbackInfo@VValue@v8@@@1@@Z@Z@4HA 000000018004c9da f   Matrix.obj
 0001:0004b9f0       ?dtor$0@?0???1ObjectWrap@Nan@@UEAA@XZ@4HA 000000018004c9f0 f   Matrix.obj
 0001:0004ba00       ?dtor$1@?0???1ObjectWrap@Nan@@UEAA@XZ@4HA 000000018004ca00 f   Matrix.obj
 0001:0004ba10       ?dtor$0@?0???1Matrix@node_opencv@@UEAA@XZ@4HA 000000018004ca10 f   Matrix.obj
 0001:0004ba10       ?dtor$0@?0???_GMatrix@node_opencv@@UEAAPEAXI@Z@4HA 000000018004ca10 f   Matrix.obj
 0001:0004ba1c       ?dtor$1@?0???1Matrix@node_opencv@@UEAA@XZ@4HA 000000018004ca1c f   Matrix.obj
 0001:0004ba1c       ?dtor$1@?0???_GMatrix@node_opencv@@UEAAPEAXI@Z@4HA 000000018004ca1c f   Matrix.obj
 0001:0004ba30       ?dtor$0@?0???__F?constructor@Matrix@@2V?$Persistent@VFunctionTemplate@v8@@V?$NonCopyablePersistentTraits@VFunctionTemplate@v8@@@2@@Nan@@A@@YAXXZ@4HA 000000018004ca30 f   Matrix.obj
 0001:0004ba30       ?dtor$0@?0???__E?constructor@Matrix@@2V?$Persistent@VFunctionTemplate@v8@@V?$NonCopyablePersistentTraits@VFunctionTemplate@v8@@@2@@Nan@@A@@YAXXZ@4HA 000000018004ca30 f   Matrix.obj
 0001:0004ba40       ?dtor$1@?0??Init@FaceRecognizerWrap@@SAXV?$Local@VObject@v8@@@v8@@@Z@4HA 000000018004ca40 f   FaceRecognizer.obj
 0001:0004ba40       ?dtor$1@?0??Init@Matrix@@SAXV?$Local@VObject@v8@@@v8@@@Z@4HA 000000018004ca40 f   Matrix.obj
 0001:0004ba40       ?dtor$1@?0??Init@BackgroundSubtractorWrap@@SAXV?$Local@VObject@v8@@@v8@@@Z@4HA 000000018004ca40 f   BackgroundSubtractor.obj
 0001:0004ba40       ?dtor$1@?0??Init@LDAWrap@@SAXV?$Local@VObject@v8@@@v8@@@Z@4HA 000000018004ca40 f   LDAWrap.obj
 0001:0004ba4e       ?dtor$0@?0??Init@FaceRecognizerWrap@@SAXV?$Local@VObject@v8@@@v8@@@Z@4HA 000000018004ca4e f   FaceRecognizer.obj
 0001:0004ba4e       ?dtor$0@?0??Init@LDAWrap@@SAXV?$Local@VObject@v8@@@v8@@@Z@4HA 000000018004ca4e f   LDAWrap.obj
 0001:0004ba4e       ?dtor$0@?0??Init@BackgroundSubtractorWrap@@SAXV?$Local@VObject@v8@@@v8@@@Z@4HA 000000018004ca4e f   BackgroundSubtractor.obj
 0001:0004ba4e       ?dtor$0@?0??Init@Matrix@@SAXV?$Local@VObject@v8@@@v8@@@Z@4HA 000000018004ca4e f   Matrix.obj
 0001:0004ba5a       ?dtor$3@?0??Init@Matrix@@SAXV?$Local@VObject@v8@@@v8@@@Z@4HA 000000018004ca5a f   Matrix.obj
 0001:0004ba5a       ?dtor$3@?0??Init@BackgroundSubtractorWrap@@SAXV?$Local@VObject@v8@@@v8@@@Z@4HA 000000018004ca5a f   BackgroundSubtractor.obj
 0001:0004ba5a       ?dtor$3@?0??Init@FaceRecognizerWrap@@SAXV?$Local@VObject@v8@@@v8@@@Z@4HA 000000018004ca5a f   FaceRecognizer.obj
 0001:0004ba5a       ?dtor$3@?0??Init@LDAWrap@@SAXV?$Local@VObject@v8@@@v8@@@Z@4HA 000000018004ca5a f   LDAWrap.obj
 0001:0004ba68       ?dtor$2@?0??Init@FaceRecognizerWrap@@SAXV?$Local@VObject@v8@@@v8@@@Z@4HA 000000018004ca68 f   FaceRecognizer.obj
 0001:0004ba68       ?dtor$2@?0??Init@Matrix@@SAXV?$Local@VObject@v8@@@v8@@@Z@4HA 000000018004ca68 f   Matrix.obj
 0001:0004ba68       ?dtor$2@?0??Init@BackgroundSubtractorWrap@@SAXV?$Local@VObject@v8@@@v8@@@Z@4HA 000000018004ca68 f   BackgroundSubtractor.obj
 0001:0004ba68       ?dtor$2@?0??Init@LDAWrap@@SAXV?$Local@VObject@v8@@@v8@@@Z@4HA 000000018004ca68 f   LDAWrap.obj
 0001:0004ba74       ?dtor$4@?0??Init@FaceRecognizerWrap@@SAXV?$Local@VObject@v8@@@v8@@@Z@4HA 000000018004ca74 f   FaceRecognizer.obj
 0001:0004ba74       ?dtor$4@?0??Init@LDAWrap@@SAXV?$Local@VObject@v8@@@v8@@@Z@4HA 000000018004ca74 f   LDAWrap.obj
 0001:0004ba74       ?dtor$4@?0??Init@Matrix@@SAXV?$Local@VObject@v8@@@v8@@@Z@4HA 000000018004ca74 f   Matrix.obj
 0001:0004ba74       ?dtor$4@?0??Init@BackgroundSubtractorWrap@@SAXV?$Local@VObject@v8@@@v8@@@Z@4HA 000000018004ca74 f   BackgroundSubtractor.obj
 0001:0004ba82       ?dtor$5@?0??Init@LDAWrap@@SAXV?$Local@VObject@v8@@@v8@@@Z@4HA 000000018004ca82 f   LDAWrap.obj
 0001:0004ba82       ?dtor$5@?0??Init@FaceRecognizerWrap@@SAXV?$Local@VObject@v8@@@v8@@@Z@4HA 000000018004ca82 f   FaceRecognizer.obj
 0001:0004ba82       ?dtor$5@?0??Init@Matrix@@SAXV?$Local@VObject@v8@@@v8@@@Z@4HA 000000018004ca82 f   Matrix.obj
 0001:0004ba82       ?dtor$5@?0??Init@BackgroundSubtractorWrap@@SAXV?$Local@VObject@v8@@@v8@@@Z@4HA 000000018004ca82 f   BackgroundSubtractor.obj
 0001:0004ba90       ?dtor$7@?0??New@Matrix@@SAXAEBV?$FunctionCallbackInfo@VValue@v8@@@Nan@@@Z@4HA 000000018004ca90 f   Matrix.obj
 0001:0004ba9e       ?dtor$0@?0??New@Matrix@@SAXAEBV?$FunctionCallbackInfo@VValue@v8@@@Nan@@@Z@4HA 000000018004ca9e f   Matrix.obj
 0001:0004baaa       ?dtor$1@?0??New@Matrix@@SAXAEBV?$FunctionCallbackInfo@VValue@v8@@@Nan@@@Z@4HA 000000018004caaa f   Matrix.obj
 0001:0004baca       ?dtor$2@?0??New@Matrix@@SAXAEBV?$FunctionCallbackInfo@VValue@v8@@@Nan@@@Z@4HA 000000018004caca f   Matrix.obj
 0001:0004baea       ?dtor$3@?0??New@Matrix@@SAXAEBV?$FunctionCallbackInfo@VValue@v8@@@Nan@@@Z@4HA 000000018004caea f   Matrix.obj
 0001:0004bb0a       ?dtor$4@?0??New@Matrix@@SAXAEBV?$FunctionCallbackInfo@VValue@v8@@@Nan@@@Z@4HA 000000018004cb0a f   Matrix.obj
 0001:0004bb2a       ?dtor$5@?0??New@Matrix@@SAXAEBV?$FunctionCallbackInfo@VValue@v8@@@Nan@@@Z@4HA 000000018004cb2a f   Matrix.obj
 0001:0004bb4a       ?dtor$6@?0??New@Matrix@@SAXAEBV?$FunctionCallbackInfo@VValue@v8@@@Nan@@@Z@4HA 000000018004cb4a f   Matrix.obj
 0001:0004bb56       ?dtor$8@?0??New@Matrix@@SAXAEBV?$FunctionCallbackInfo@VValue@v8@@@Nan@@@Z@4HA 000000018004cb56 f   Matrix.obj
 0001:0004bb70       ?dtor$5@?0???0Matrix@@QEAA@XZ@4HA 000000018004cb70 f   Matrix.obj
 0001:0004bb7c       ?dtor$4@?0???0Matrix@@QEAA@XZ@4HA 000000018004cb7c f   Matrix.obj
 0001:0004bb8c       ?dtor$2@?0???0Matrix@@QEAA@XZ@4HA 000000018004cb8c f   Matrix.obj
 0001:0004bb98       ?dtor$3@?0???0Matrix@@QEAA@XZ@4HA 000000018004cb98 f   Matrix.obj
 0001:0004bba8       ?dtor$0@?0???0Matrix@@QEAA@XZ@4HA 000000018004cba8 f   Matrix.obj
 0001:0004bbb4       ?dtor$1@?0???0Matrix@@QEAA@XZ@4HA 000000018004cbb4 f   Matrix.obj
 0001:0004bbc0       ?dtor$0@?0???_GMatrix@@UEAAPEAXI@Z@4HA 000000018004cbc0 f   Matrix.obj
 0001:0004bbcc       ?dtor$1@?0???_GMatrix@@UEAAPEAXI@Z@4HA 000000018004cbcc f   Matrix.obj
 0001:0004bbd8       ?dtor$2@?0???_GMatrix@@UEAAPEAXI@Z@4HA 000000018004cbd8 f   Matrix.obj
 0001:0004bbf0       ?dtor$5@?0???0Matrix@@QEAA@HHH@Z@4HA 000000018004cbf0 f   Matrix.obj
 0001:0004bbf0       ?dtor$5@?0???0Matrix@@QEAA@HH@Z@4HA 000000018004cbf0 f   Matrix.obj
 0001:0004bbfc       ?dtor$4@?0???0Matrix@@QEAA@HHH@Z@4HA 000000018004cbfc f   Matrix.obj
 0001:0004bbfc       ?dtor$4@?0???0Matrix@@QEAA@HH@Z@4HA 000000018004cbfc f   Matrix.obj
 0001:0004bc0c       ?dtor$2@?0???0Matrix@@QEAA@HHH@Z@4HA 000000018004cc0c f   Matrix.obj
 0001:0004bc0c       ?dtor$2@?0???0Matrix@@QEAA@HH@Z@4HA 000000018004cc0c f   Matrix.obj
 0001:0004bc18       ?dtor$3@?0???0Matrix@@QEAA@HH@Z@4HA 000000018004cc18 f   Matrix.obj
 0001:0004bc18       ?dtor$3@?0???0Matrix@@QEAA@HHH@Z@4HA 000000018004cc18 f   Matrix.obj
 0001:0004bc28       ?dtor$0@?0???0Matrix@@QEAA@HH@Z@4HA 000000018004cc28 f   Matrix.obj
 0001:0004bc28       ?dtor$0@?0???0Matrix@@QEAA@HHH@Z@4HA 000000018004cc28 f   Matrix.obj
 0001:0004bc34       ?dtor$1@?0???0Matrix@@QEAA@HHH@Z@4HA 000000018004cc34 f   Matrix.obj
 0001:0004bc34       ?dtor$1@?0???0Matrix@@QEAA@HH@Z@4HA 000000018004cc34 f   Matrix.obj
 0001:0004bc40       ?dtor$0@?0???0Matrix@@QEAA@VMat@cv@@V?$Rect_@H@2@@Z@4HA 000000018004cc40 f   Matrix.obj
 0001:0004bc4c       ?dtor$6@?0???0Matrix@@QEAA@VMat@cv@@V?$Rect_@H@2@@Z@4HA 000000018004cc4c f   Matrix.obj
 0001:0004bc58       ?dtor$5@?0???0Matrix@@QEAA@VMat@cv@@V?$Rect_@H@2@@Z@4HA 000000018004cc58 f   Matrix.obj
 0001:0004bc68       ?dtor$3@?0???0Matrix@@QEAA@VMat@cv@@V?$Rect_@H@2@@Z@4HA 000000018004cc68 f   Matrix.obj
 0001:0004bc74       ?dtor$4@?0???0Matrix@@QEAA@VMat@cv@@V?$Rect_@H@2@@Z@4HA 000000018004cc74 f   Matrix.obj
 0001:0004bc84       ?dtor$1@?0???0Matrix@@QEAA@VMat@cv@@V?$Rect_@H@2@@Z@4HA 000000018004cc84 f   Matrix.obj
 0001:0004bc90       ?dtor$2@?0???0Matrix@@QEAA@VMat@cv@@V?$Rect_@H@2@@Z@4HA 000000018004cc90 f   Matrix.obj
 0001:0004bca0       ?dtor$5@?0???0Matrix@@QEAA@HHHV?$Local@VObject@v8@@@v8@@@Z@4HA 000000018004cca0 f   Matrix.obj
 0001:0004bcac       ?dtor$4@?0???0Matrix@@QEAA@HHHV?$Local@VObject@v8@@@v8@@@Z@4HA 000000018004ccac f   Matrix.obj
 0001:0004bcbc       ?dtor$2@?0???0Matrix@@QEAA@HHHV?$Local@VObject@v8@@@v8@@@Z@4HA 000000018004ccbc f   Matrix.obj
 0001:0004bcc8       ?dtor$3@?0???0Matrix@@QEAA@HHHV?$Local@VObject@v8@@@v8@@@Z@4HA 000000018004ccc8 f   Matrix.obj
 0001:0004bcd8       ?dtor$0@?0???0Matrix@@QEAA@HHHV?$Local@VObject@v8@@@v8@@@Z@4HA 000000018004ccd8 f   Matrix.obj
 0001:0004bce4       ?dtor$1@?0???0Matrix@@QEAA@HHHV?$Local@VObject@v8@@@v8@@@Z@4HA 000000018004cce4 f   Matrix.obj
 0001:0004bcf0       ?dtor$0@?0??DblGet@Matrix@@SANVMat@cv@@HH@Z@4HA 000000018004ccf0 f   Matrix.obj
 0001:0004bd00       ?dtor$2@?0??Get@Matrix@@SAXAEBV?$FunctionCallbackInfo@VValue@v8@@@Nan@@@Z@4HA 000000018004cd00 f   Matrix.obj
 0001:0004bd0e       ?dtor$0@?0??Get@Matrix@@SAXAEBV?$FunctionCallbackInfo@VValue@v8@@@Nan@@@Z@4HA 000000018004cd0e f   Matrix.obj
 0001:0004bd1a       ?dtor$1@?0??Get@Matrix@@SAXAEBV?$FunctionCallbackInfo@VValue@v8@@@Nan@@@Z@4HA 000000018004cd1a f   Matrix.obj
 0001:0004bd26       ?dtor$3@?0??Get@Matrix@@SAXAEBV?$FunctionCallbackInfo@VValue@v8@@@Nan@@@Z@4HA 000000018004cd26 f   Matrix.obj
 0001:0004bd40       ?dtor$2@?0??GetData@Matrix@@SAXAEBV?$FunctionCallbackInfo@VValue@v8@@@Nan@@@Z@4HA 000000018004cd40 f   Matrix.obj
 0001:0004bd4e       ?dtor$0@?0??GetData@Matrix@@SAXAEBV?$FunctionCallbackInfo@VValue@v8@@@Nan@@@Z@4HA 000000018004cd4e f   Matrix.obj
 0001:0004bd5a       ?dtor$1@?0??GetData@Matrix@@SAXAEBV?$FunctionCallbackInfo@VValue@v8@@@Nan@@@Z@4HA 000000018004cd5a f   Matrix.obj
 0001:0004bd66       ?dtor$5@?0??GetData@Matrix@@SAXAEBV?$FunctionCallbackInfo@VValue@v8@@@Nan@@@Z@4HA 000000018004cd66 f   Matrix.obj
 0001:0004bd80       ?dtor$10@?0??Brightness@Matrix@@SAXAEBV?$FunctionCallbackInfo@VValue@v8@@@Nan@@@Z@4HA 000000018004cd80 f   Matrix.obj
 0001:0004bd8e       ?dtor$0@?0??Brightness@Matrix@@SAXAEBV?$FunctionCallbackInfo@VValue@v8@@@Nan@@@Z@4HA 000000018004cd8e f   Matrix.obj
 0001:0004bd9a       ?dtor$1@?0??Brightness@Matrix@@SAXAEBV?$FunctionCallbackInfo@VValue@v8@@@Nan@@@Z@4HA 000000018004cd9a f   Matrix.obj
 0001:0004bda6       ?dtor$2@?0??Brightness@Matrix@@SAXAEBV?$FunctionCallbackInfo@VValue@v8@@@Nan@@@Z@4HA 000000018004cda6 f   Matrix.obj
 0001:0004bdb2       ?dtor$3@?0??Brightness@Matrix@@SAXAEBV?$FunctionCallbackInfo@VValue@v8@@@Nan@@@Z@4HA 000000018004cdb2 f   Matrix.obj
 0001:0004bdbe       ?dtor$4@?0??Brightness@Matrix@@SAXAEBV?$FunctionCallbackInfo@VValue@v8@@@Nan@@@Z@4HA 000000018004cdbe f   Matrix.obj
 0001:0004bdca       ?dtor$5@?0??Brightness@Matrix@@SAXAEBV?$FunctionCallbackInfo@VValue@v8@@@Nan@@@Z@4HA 000000018004cdca f   Matrix.obj
 0001:0004bdd6       ?dtor$11@?0??Brightness@Matrix@@SAXAEBV?$FunctionCallbackInfo@VValue@v8@@@Nan@@@Z@4HA 000000018004cdd6 f   Matrix.obj
 0001:0004bde6       ?dtor$12@?0??Brightness@Matrix@@SAXAEBV?$FunctionCallbackInfo@VValue@v8@@@Nan@@@Z@4HA 000000018004cde6 f   Matrix.obj
 0001:0004bdf6       ?dtor$13@?0??Brightness@Matrix@@SAXAEBV?$FunctionCallbackInfo@VValue@v8@@@Nan@@@Z@4HA 000000018004cdf6 f   Matrix.obj
 0001:0004be09       ?dtor$6@?0??Brightness@Matrix@@SAXAEBV?$FunctionCallbackInfo@VValue@v8@@@Nan@@@Z@4HA 000000018004ce09 f   Matrix.obj
 0001:0004be15       ?dtor$7@?0??Brightness@Matrix@@SAXAEBV?$FunctionCallbackInfo@VValue@v8@@@Nan@@@Z@4HA 000000018004ce15 f   Matrix.obj
 0001:0004be21       ?dtor$8@?0??Brightness@Matrix@@SAXAEBV?$FunctionCallbackInfo@VValue@v8@@@Nan@@@Z@4HA 000000018004ce21 f   Matrix.obj
 0001:0004be2d       ?dtor$9@?0??Brightness@Matrix@@SAXAEBV?$FunctionCallbackInfo@VValue@v8@@@Nan@@@Z@4HA 000000018004ce2d f   Matrix.obj
 0001:0004be39       ?dtor$14@?0??Brightness@Matrix@@SAXAEBV?$FunctionCallbackInfo@VValue@v8@@@Nan@@@Z@4HA 000000018004ce39 f   Matrix.obj
 0001:0004be49       ?dtor$15@?0??Brightness@Matrix@@SAXAEBV?$FunctionCallbackInfo@VValue@v8@@@Nan@@@Z@4HA 000000018004ce49 f   Matrix.obj
 0001:0004be59       ?dtor$16@?0??Brightness@Matrix@@SAXAEBV?$FunctionCallbackInfo@VValue@v8@@@Nan@@@Z@4HA 000000018004ce59 f   Matrix.obj
 0001:0004be6c       ?dtor$17@?0??Brightness@Matrix@@SAXAEBV?$FunctionCallbackInfo@VValue@v8@@@Nan@@@Z@4HA 000000018004ce6c f   Matrix.obj
 0001:0004be80       ?dtor$0@?0???1MatExpr@cv@@QEAA@XZ@4HA 000000018004ce80 f   Matrix.obj
 0001:0004be90       ?dtor$1@?0???1MatExpr@cv@@QEAA@XZ@4HA 000000018004ce90 f   Matrix.obj
 0001:0004bea0       ?dtor$2@?0???1MatExpr@cv@@QEAA@XZ@4HA 000000018004cea0 f   Matrix.obj
 0001:0004bec0       ?dtor$0@?0??Normalize@Matrix@@SAXAEBV?$FunctionCallbackInfo@VValue@v8@@@Nan@@@Z@4HA 000000018004cec0 f   Matrix.obj
 0001:0004becc       ?dtor$1@?0??Normalize@Matrix@@SAXAEBV?$FunctionCallbackInfo@VValue@v8@@@Nan@@@Z@4HA 000000018004cecc f   Matrix.obj
 0001:0004bee0       ?dtor$0@?0??Norm@Matrix@@SAXAEBV?$FunctionCallbackInfo@VValue@v8@@@Nan@@@Z@4HA 000000018004cee0 f   Matrix.obj
 0001:0004bef0       ?dtor$2@?0??GetRotationMatrix2D@Matrix@@SAXAEBV?$FunctionCallbackInfo@VValue@v8@@@Nan@@@Z@4HA 000000018004cef0 f   Matrix.obj
 0001:0004bef0       ?dtor$2@?0??Clone@Matrix@@SAXAEBV?$FunctionCallbackInfo@VValue@v8@@@Nan@@@Z@4HA 000000018004cef0 f   Matrix.obj
 0001:0004bef0       ?dtor$2@?0??Reshape@Matrix@@SAXAEBV?$FunctionCallbackInfo@VValue@v8@@@Nan@@@Z@4HA 000000018004cef0 f   Matrix.obj
 0001:0004befe       ?dtor$0@?0??GetRotationMatrix2D@Matrix@@SAXAEBV?$FunctionCallbackInfo@VValue@v8@@@Nan@@@Z@4HA 000000018004cefe f   Matrix.obj
 0001:0004befe       ?dtor$0@?0??Reshape@Matrix@@SAXAEBV?$FunctionCallbackInfo@VValue@v8@@@Nan@@@Z@4HA 000000018004cefe f   Matrix.obj
 0001:0004befe       ?dtor$0@?0??Clone@Matrix@@SAXAEBV?$FunctionCallbackInfo@VValue@v8@@@Nan@@@Z@4HA 000000018004cefe f   Matrix.obj
 0001:0004bf0a       ?dtor$1@?0??Reshape@Matrix@@SAXAEBV?$FunctionCallbackInfo@VValue@v8@@@Nan@@@Z@4HA 000000018004cf0a f   Matrix.obj
 0001:0004bf0a       ?dtor$1@?0??GetRotationMatrix2D@Matrix@@SAXAEBV?$FunctionCallbackInfo@VValue@v8@@@Nan@@@Z@4HA 000000018004cf0a f   Matrix.obj
 0001:0004bf0a       ?dtor$1@?0??Clone@Matrix@@SAXAEBV?$FunctionCallbackInfo@VValue@v8@@@Nan@@@Z@4HA 000000018004cf0a f   Matrix.obj
 0001:0004bf16       ?dtor$3@?0??Clone@Matrix@@SAXAEBV?$FunctionCallbackInfo@VValue@v8@@@Nan@@@Z@4HA 000000018004cf16 f   Matrix.obj
 0001:0004bf16       ?dtor$3@?0??Reshape@Matrix@@SAXAEBV?$FunctionCallbackInfo@VValue@v8@@@Nan@@@Z@4HA 000000018004cf16 f   Matrix.obj
 0001:0004bf16       ?dtor$3@?0??GetRotationMatrix2D@Matrix@@SAXAEBV?$FunctionCallbackInfo@VValue@v8@@@Nan@@@Z@4HA 000000018004cf16 f   Matrix.obj
 0001:0004bf30       ?dtor$2@?0??Crop@Matrix@@SAXAEBV?$FunctionCallbackInfo@VValue@v8@@@Nan@@@Z@4HA 000000018004cf30 f   Matrix.obj
 0001:0004bf3e       ?dtor$0@?0??Crop@Matrix@@SAXAEBV?$FunctionCallbackInfo@VValue@v8@@@Nan@@@Z@4HA 000000018004cf3e f   Matrix.obj
 0001:0004bf4a       ?dtor$1@?0??Crop@Matrix@@SAXAEBV?$FunctionCallbackInfo@VValue@v8@@@Nan@@@Z@4HA 000000018004cf4a f   Matrix.obj
 0001:0004bf56       ?dtor$3@?0??Crop@Matrix@@SAXAEBV?$FunctionCallbackInfo@VValue@v8@@@Nan@@@Z@4HA 000000018004cf56 f   Matrix.obj
 0001:0004bf70       ?dtor$2@?0??Col@Matrix@@SAXAEBV?$FunctionCallbackInfo@VValue@v8@@@Nan@@@Z@4HA 000000018004cf70 f   Matrix.obj
 0001:0004bf70       ?dtor$2@?0??Row@Matrix@@SAXAEBV?$FunctionCallbackInfo@VValue@v8@@@Nan@@@Z@4HA 000000018004cf70 f   Matrix.obj
 0001:0004bf7e       ?dtor$0@?0??Row@Matrix@@SAXAEBV?$FunctionCallbackInfo@VValue@v8@@@Nan@@@Z@4HA 000000018004cf7e f   Matrix.obj
 0001:0004bf7e       ?dtor$0@?0??Col@Matrix@@SAXAEBV?$FunctionCallbackInfo@VValue@v8@@@Nan@@@Z@4HA 000000018004cf7e f   Matrix.obj
 0001:0004bf8a       ?dtor$1@?0??Col@Matrix@@SAXAEBV?$FunctionCallbackInfo@VValue@v8@@@Nan@@@Z@4HA 000000018004cf8a f   Matrix.obj
 0001:0004bf8a       ?dtor$1@?0??Row@Matrix@@SAXAEBV?$FunctionCallbackInfo@VValue@v8@@@Nan@@@Z@4HA 000000018004cf8a f   Matrix.obj
 0001:0004bf96       ?dtor$3@?0??Col@Matrix@@SAXAEBV?$FunctionCallbackInfo@VValue@v8@@@Nan@@@Z@4HA 000000018004cf96 f   Matrix.obj
 0001:0004bf96       ?dtor$3@?0??Row@Matrix@@SAXAEBV?$FunctionCallbackInfo@VValue@v8@@@Nan@@@Z@4HA 000000018004cf96 f   Matrix.obj
 0001:0004bfb0       ?dtor$1@?0??PixelRow@Matrix@@SAXAEBV?$FunctionCallbackInfo@VValue@v8@@@Nan@@@Z@4HA 000000018004cfb0 f   Matrix.obj
 0001:0004bfb0       ?dtor$1@?0??PixelCol@Matrix@@SAXAEBV?$FunctionCallbackInfo@VValue@v8@@@Nan@@@Z@4HA 000000018004cfb0 f   Matrix.obj
 0001:0004bfbe       ?dtor$0@?0??PixelRow@Matrix@@SAXAEBV?$FunctionCallbackInfo@VValue@v8@@@Nan@@@Z@4HA 000000018004cfbe f   Matrix.obj
 0001:0004bfbe       ?dtor$0@?0??PixelCol@Matrix@@SAXAEBV?$FunctionCallbackInfo@VValue@v8@@@Nan@@@Z@4HA 000000018004cfbe f   Matrix.obj
 0001:0004bfca       ?dtor$2@?0??PixelRow@Matrix@@SAXAEBV?$FunctionCallbackInfo@VValue@v8@@@Nan@@@Z@4HA 000000018004cfca f   Matrix.obj
 0001:0004bfca       ?dtor$2@?0??PixelCol@Matrix@@SAXAEBV?$FunctionCallbackInfo@VValue@v8@@@Nan@@@Z@4HA 000000018004cfca f   Matrix.obj
 0001:0004bfe0       ?dtor$6@?0??ToBuffer@Matrix@@SAXAEBV?$FunctionCallbackInfo@VValue@v8@@@Nan@@@Z@4HA 000000018004cfe0 f   Matrix.obj
 0001:0004bfee       ?dtor$0@?0??ToBuffer@Matrix@@SAXAEBV?$FunctionCallbackInfo@VValue@v8@@@Nan@@@Z@4HA 000000018004cfee f   Matrix.obj
 0001:0004bffa       ?dtor$7@?0??ToBuffer@Matrix@@SAXAEBV?$FunctionCallbackInfo@VValue@v8@@@Nan@@@Z@4HA 000000018004cffa f   Matrix.obj
 0001:0004c008       ?dtor$1@?0??ToBuffer@Matrix@@SAXAEBV?$FunctionCallbackInfo@VValue@v8@@@Nan@@@Z@4HA 000000018004d008 f   Matrix.obj
 0001:0004c014       ?dtor$2@?0??ToBuffer@Matrix@@SAXAEBV?$FunctionCallbackInfo@VValue@v8@@@Nan@@@Z@4HA 000000018004d014 f   Matrix.obj
 0001:0004c020       ?dtor$3@?0??ToBuffer@Matrix@@SAXAEBV?$FunctionCallbackInfo@VValue@v8@@@Nan@@@Z@4HA 000000018004d020 f   Matrix.obj
 0001:0004c02e       ?dtor$4@?0??ToBuffer@Matrix@@SAXAEBV?$FunctionCallbackInfo@VValue@v8@@@Nan@@@Z@4HA 000000018004d02e f   Matrix.obj
 0001:0004c03a       ?dtor$5@?0??ToBuffer@Matrix@@SAXAEBV?$FunctionCallbackInfo@VValue@v8@@@Nan@@@Z@4HA 000000018004d03a f   Matrix.obj
 0001:0004c046       ?dtor$8@?0??ToBuffer@Matrix@@SAXAEBV?$FunctionCallbackInfo@VValue@v8@@@Nan@@@Z@4HA 000000018004d046 f   Matrix.obj
 0001:0004c060       ?dtor$0@?0???0AsyncToBufferWorker@@QEAA@PEAVCallback@Nan@@PEAVMatrix@@V?$basic_string@DU?$char_traits@D@std@@V?$allocator@D@2@@std@@V?$vector@HV?$allocator@H@std@@@5@@Z@4HA 000000018004d060 f   Matrix.obj
 0001:0004c06c       ?dtor$1@?0???0AsyncToBufferWorker@@QEAA@PEAVCallback@Nan@@PEAVMatrix@@V?$basic_string@DU?$char_traits@D@std@@V?$allocator@D@2@@std@@V?$vector@HV?$allocator@H@std@@@5@@Z@4HA 000000018004d06c f   Matrix.obj
 0001:0004c078       ?dtor$2@?0???0AsyncToBufferWorker@@QEAA@PEAVCallback@Nan@@PEAVMatrix@@V?$basic_string@DU?$char_traits@D@std@@V?$allocator@D@2@@std@@V?$vector@HV?$allocator@H@std@@@5@@Z@4HA 000000018004d078 f   Matrix.obj
 0001:0004c084       ?dtor$3@?0???0AsyncToBufferWorker@@QEAA@PEAVCallback@Nan@@PEAVMatrix@@V?$basic_string@DU?$char_traits@D@std@@V?$allocator@D@2@@std@@V?$vector@HV?$allocator@H@std@@@5@@Z@4HA 000000018004d084 f   Matrix.obj
 0001:0004c097       ?dtor$4@?0???0AsyncToBufferWorker@@QEAA@PEAVCallback@Nan@@PEAVMatrix@@V?$basic_string@DU?$char_traits@D@std@@V?$allocator@D@2@@std@@V?$vector@HV?$allocator@H@std@@@5@@Z@4HA 000000018004d097 f   Matrix.obj
 0001:0004c0aa       ?dtor$5@?0???0AsyncToBufferWorker@@QEAA@PEAVCallback@Nan@@PEAVMatrix@@V?$basic_string@DU?$char_traits@D@std@@V?$allocator@D@2@@std@@V?$vector@HV?$allocator@H@std@@@5@@Z@4HA 000000018004d0aa f   Matrix.obj
 0001:0004c0c0       ?dtor$0@?0???1AsyncToBufferWorker@@UEAA@XZ@4HA 000000018004d0c0 f   Matrix.obj
 0001:0004c0cc       ?dtor$1@?0???1AsyncToBufferWorker@@UEAA@XZ@4HA 000000018004d0cc f   Matrix.obj
 0001:0004c0df       ?dtor$2@?0???1AsyncToBufferWorker@@UEAA@XZ@4HA 000000018004d0df f   Matrix.obj
 0001:0004c0f2       ?dtor$3@?0???1AsyncToBufferWorker@@UEAA@XZ@4HA 000000018004d0f2 f   Matrix.obj
 0001:0004c110       ?dtor$0@?0??Execute@AsyncToBufferWorker@@UEAAXXZ@4HA 000000018004d110 f   Matrix.obj
 0001:0004c120       ?dtor$2@?0??HandleOKCallback@AsyncToBufferWorker@@UEAAXXZ@4HA 000000018004d120 f   Matrix.obj
 0001:0004c120       ?dtor$2@?0??HandleOKCallback@AsyncDetectMultiScale@@UEAAXXZ@4HA 000000018004d120 f   CascadeClassifierWrap.obj
 0001:0004c12e       ?dtor$0@?0??HandleOKCallback@AsyncDetectMultiScale@@UEAAXXZ@4HA 000000018004d12e f   CascadeClassifierWrap.obj
 0001:0004c12e       ?dtor$0@?0??HandleOKCallback@AsyncToBufferWorker@@UEAAXXZ@4HA 000000018004d12e f   Matrix.obj
 0001:0004c13a       ?dtor$5@?0??HandleOKCallback@AsyncToBufferWorker@@UEAAXXZ@4HA 000000018004d13a f   Matrix.obj
 0001:0004c13a       ?dtor$3@?0??HandleOKCallback@AsyncDetectMultiScale@@UEAAXXZ@4HA 000000018004d13a f   CascadeClassifierWrap.obj
 0001:0004c148       ?dtor$1@?0??HandleOKCallback@AsyncDetectMultiScale@@UEAAXXZ@4HA 000000018004d148 f   CascadeClassifierWrap.obj
 0001:0004c148       ?dtor$1@?0??HandleOKCallback@AsyncToBufferWorker@@UEAAXXZ@4HA 000000018004d148 f   Matrix.obj
 0001:0004c154       ?dtor$7@?0??HandleOKCallback@AsyncToBufferWorker@@UEAAXXZ@4HA 000000018004d154 f   Matrix.obj
 0001:0004c154       ?dtor$5@?0??HandleOKCallback@AsyncDetectMultiScale@@UEAAXXZ@4HA 000000018004d154 f   CascadeClassifierWrap.obj
 0001:0004c162       ?dtor$6@?0??HandleOKCallback@AsyncDetectMultiScale@@UEAAXXZ@4HA 000000018004d162 f   CascadeClassifierWrap.obj
 0001:0004c162       ?dtor$8@?0??HandleOKCallback@AsyncToBufferWorker@@UEAAXXZ@4HA 000000018004d162 f   Matrix.obj
 0001:0004c170       ?dtor$0@?0???1TryCatch@Nan@@QEAA@XZ@4HA 000000018004d170 f   Matrix.obj
 0001:0004c180       ?dtor$9@?0??ToBufferAsync@Matrix@@SAXAEBV?$FunctionCallbackInfo@VValue@v8@@@Nan@@@Z@4HA 000000018004d180 f   Matrix.obj
 0001:0004c18e       ?dtor$0@?0??ToBufferAsync@Matrix@@SAXAEBV?$FunctionCallbackInfo@VValue@v8@@@Nan@@@Z@4HA 000000018004d18e f   Matrix.obj
 0001:0004c19a       ?dtor$1@?0??ToBufferAsync@Matrix@@SAXAEBV?$FunctionCallbackInfo@VValue@v8@@@Nan@@@Z@4HA 000000018004d19a f   Matrix.obj
 0001:0004c1a6       ?dtor$2@?0??ToBufferAsync@Matrix@@SAXAEBV?$FunctionCallbackInfo@VValue@v8@@@Nan@@@Z@4HA 000000018004d1a6 f   Matrix.obj
 0001:0004c1b2       ?dtor$3@?0??ToBufferAsync@Matrix@@SAXAEBV?$FunctionCallbackInfo@VValue@v8@@@Nan@@@Z@4HA 000000018004d1b2 f   Matrix.obj
 0001:0004c1c0       ?dtor$4@?0??ToBufferAsync@Matrix@@SAXAEBV?$FunctionCallbackInfo@VValue@v8@@@Nan@@@Z@4HA 000000018004d1c0 f   Matrix.obj
 0001:0004c1cc       ?dtor$5@?0??ToBufferAsync@Matrix@@SAXAEBV?$FunctionCallbackInfo@VValue@v8@@@Nan@@@Z@4HA 000000018004d1cc f   Matrix.obj
 0001:0004c1e9       ?dtor$12@?0??ToBufferAsync@Matrix@@SAXAEBV?$FunctionCallbackInfo@VValue@v8@@@Nan@@@Z@4HA 000000018004d1e9 f   Matrix.obj
 0001:0004c1f5       ?dtor$11@?0??ToBufferAsync@Matrix@@SAXAEBV?$FunctionCallbackInfo@VValue@v8@@@Nan@@@Z@4HA 000000018004d1f5 f   Matrix.obj
 0001:0004c201       ?dtor$6@?0??ToBufferAsync@Matrix@@SAXAEBV?$FunctionCallbackInfo@VValue@v8@@@Nan@@@Z@4HA 000000018004d201 f   Matrix.obj
 0001:0004c21e       ?dtor$7@?0??ToBufferAsync@Matrix@@SAXAEBV?$FunctionCallbackInfo@VValue@v8@@@Nan@@@Z@4HA 000000018004d21e f   Matrix.obj
 0001:0004c22a       ?dtor$8@?0??ToBufferAsync@Matrix@@SAXAEBV?$FunctionCallbackInfo@VValue@v8@@@Nan@@@Z@4HA 000000018004d22a f   Matrix.obj
 0001:0004c236       ?dtor$13@?0??ToBufferAsync@Matrix@@SAXAEBV?$FunctionCallbackInfo@VValue@v8@@@Nan@@@Z@4HA 000000018004d236 f   Matrix.obj
 0001:0004c250       ?dtor$1@?0??Ellipse@Matrix@@SAXAEBV?$FunctionCallbackInfo@VValue@v8@@@Nan@@@Z@4HA 000000018004d250 f   Matrix.obj
 0001:0004c25e       ?dtor$0@?0??Ellipse@Matrix@@SAXAEBV?$FunctionCallbackInfo@VValue@v8@@@Nan@@@Z@4HA 000000018004d25e f   Matrix.obj
 0001:0004c26a       ?dtor$2@?0??Ellipse@Matrix@@SAXAEBV?$FunctionCallbackInfo@VValue@v8@@@Nan@@@Z@4HA 000000018004d26a f   Matrix.obj
 0001:0004c280       ?dtor$1@?0??Rectangle@Matrix@@SAXAEBV?$FunctionCallbackInfo@VValue@v8@@@Nan@@@Z@4HA 000000018004d280 f   Matrix.obj
 0001:0004c280       ?dtor$1@?0??Line@Matrix@@SAXAEBV?$FunctionCallbackInfo@VValue@v8@@@Nan@@@Z@4HA 000000018004d280 f   Matrix.obj
 0001:0004c280       ?dtor$1@?0??BitwiseNot@Matrix@@SAXAEBV?$FunctionCallbackInfo@VValue@v8@@@Nan@@@Z@4HA 000000018004d280 f   Matrix.obj
 0001:0004c28e       ?dtor$0@?0??Rectangle@Matrix@@SAXAEBV?$FunctionCallbackInfo@VValue@v8@@@Nan@@@Z@4HA 000000018004d28e f   Matrix.obj
 0001:0004c28e       ?dtor$0@?0??Line@Matrix@@SAXAEBV?$FunctionCallbackInfo@VValue@v8@@@Nan@@@Z@4HA 000000018004d28e f   Matrix.obj
 0001:0004c28e       ?dtor$0@?0??BitwiseNot@Matrix@@SAXAEBV?$FunctionCallbackInfo@VValue@v8@@@Nan@@@Z@4HA 000000018004d28e f   Matrix.obj
 0001:0004c29a       ?dtor$2@?0??Rectangle@Matrix@@SAXAEBV?$FunctionCallbackInfo@VValue@v8@@@Nan@@@Z@4HA 000000018004d29a f   Matrix.obj
 0001:0004c29a       ?dtor$2@?0??BitwiseNot@Matrix@@SAXAEBV?$FunctionCallbackInfo@VValue@v8@@@Nan@@@Z@4HA 000000018004d29a f   Matrix.obj
 0001:0004c29a       ?dtor$2@?0??Line@Matrix@@SAXAEBV?$FunctionCallbackInfo@VValue@v8@@@Nan@@@Z@4HA 000000018004d29a f   Matrix.obj
 0001:0004c2b0       ?dtor$2@?0??FillPoly@Matrix@@SAXAEBV?$FunctionCallbackInfo@VValue@v8@@@Nan@@@Z@4HA 000000018004d2b0 f   Matrix.obj
 0001:0004c2be       ?dtor$0@?0??FillPoly@Matrix@@SAXAEBV?$FunctionCallbackInfo@VValue@v8@@@Nan@@@Z@4HA 000000018004d2be f   Matrix.obj
 0001:0004c2ca       ?dtor$1@?0??FillPoly@Matrix@@SAXAEBV?$FunctionCallbackInfo@VValue@v8@@@Nan@@@Z@4HA 000000018004d2ca f   Matrix.obj
 0001:0004c2ff       ?dtor$3@?0??FillPoly@Matrix@@SAXAEBV?$FunctionCallbackInfo@VValue@v8@@@Nan@@@Z@4HA 000000018004d2ff f   Matrix.obj
 0001:0004c310       ?dtor$4@?0??Save@Matrix@@SAXAEBV?$FunctionCallbackInfo@VValue@v8@@@Nan@@@Z@4HA 000000018004d310 f   Matrix.obj
 0001:0004c31e       ?dtor$0@?0??Save@Matrix@@SAXAEBV?$FunctionCallbackInfo@VValue@v8@@@Nan@@@Z@4HA 000000018004d31e f   Matrix.obj
 0001:0004c32a       ?dtor$5@?0??Save@Matrix@@SAXAEBV?$FunctionCallbackInfo@VValue@v8@@@Nan@@@Z@4HA 000000018004d32a f   Matrix.obj
 0001:0004c338       ?dtor$1@?0??Save@Matrix@@SAXAEBV?$FunctionCallbackInfo@VValue@v8@@@Nan@@@Z@4HA 000000018004d338 f   Matrix.obj
 0001:0004c344       ?dtor$2@?0??Save@Matrix@@SAXAEBV?$FunctionCallbackInfo@VValue@v8@@@Nan@@@Z@4HA 000000018004d344 f   Matrix.obj
 0001:0004c350       ?dtor$3@?0??Save@Matrix@@SAXAEBV?$FunctionCallbackInfo@VValue@v8@@@Nan@@@Z@4HA 000000018004d350 f   Matrix.obj
 0001:0004c35c       ?dtor$6@?0??Save@Matrix@@SAXAEBV?$FunctionCallbackInfo@VValue@v8@@@Nan@@@Z@4HA 000000018004d35c f   Matrix.obj
 0001:0004c370       ?dtor$0@?0???0AsyncSaveWorker@@QEAA@PEAVCallback@Nan@@PEAVMatrix@@PEAD@Z@4HA 000000018004d370 f   Matrix.obj
 0001:0004c370       ?dtor$0@?0???_GAsyncSaveWorker@@UEAAPEAXI@Z@4HA 000000018004d370 f   Matrix.obj
 0001:0004c37c       ?dtor$1@?0???0AsyncSaveWorker@@QEAA@PEAVCallback@Nan@@PEAVMatrix@@PEAD@Z@4HA 000000018004d37c f   Matrix.obj
 0001:0004c37c       ?dtor$1@?0???_GAsyncSaveWorker@@UEAAPEAXI@Z@4HA 000000018004d37c f   Matrix.obj
 0001:0004c390       ?dtor$0@?0??Execute@AsyncSaveWorker@@UEAAXXZ@4HA 000000018004d390 f   Matrix.obj
 0001:0004c3a0       ?dtor$2@?0??HandleOKCallback@AsyncSaveWorker@@UEAAXXZ@4HA 000000018004d3a0 f   Matrix.obj
 0001:0004c3a0       ?dtor$2@?0??HandleOKCallback@AsyncVCWorker@@UEAAXXZ@4HA 000000018004d3a0 f   VideoCaptureWrap.obj
 0001:0004c3a0       ?dtor$2@?0??HandleOKCallback@PredictASyncWorker@@UEAAXXZ@4HA 000000018004d3a0 f   FaceRecognizer.obj
 0001:0004c3ae       ?dtor$0@?0??HandleOKCallback@AsyncSaveWorker@@UEAAXXZ@4HA 000000018004d3ae f   Matrix.obj
 0001:0004c3ae       ?dtor$0@?0??HandleOKCallback@PredictASyncWorker@@UEAAXXZ@4HA 000000018004d3ae f   FaceRecognizer.obj
 0001:0004c3ae       ?dtor$0@?0??HandleOKCallback@AsyncVCWorker@@UEAAXXZ@4HA 000000018004d3ae f   VideoCaptureWrap.obj
 0001:0004c3ba       ?dtor$3@?0??HandleOKCallback@PredictASyncWorker@@UEAAXXZ@4HA 000000018004d3ba f   FaceRecognizer.obj
 0001:0004c3ba       ?dtor$3@?0??HandleOKCallback@AsyncSaveWorker@@UEAAXXZ@4HA 000000018004d3ba f   Matrix.obj
 0001:0004c3ba       ?dtor$3@?0??HandleOKCallback@AsyncVCWorker@@UEAAXXZ@4HA 000000018004d3ba f   VideoCaptureWrap.obj
 0001:0004c3c8       ?dtor$1@?0??HandleOKCallback@AsyncVCWorker@@UEAAXXZ@4HA 000000018004d3c8 f   VideoCaptureWrap.obj
 0001:0004c3c8       ?dtor$1@?0??HandleOKCallback@AsyncSaveWorker@@UEAAXXZ@4HA 000000018004d3c8 f   Matrix.obj
 0001:0004c3c8       ?dtor$1@?0??HandleOKCallback@PredictASyncWorker@@UEAAXXZ@4HA 000000018004d3c8 f   FaceRecognizer.obj
 0001:0004c3d4       ?dtor$5@?0??HandleOKCallback@AsyncVCWorker@@UEAAXXZ@4HA 000000018004d3d4 f   VideoCaptureWrap.obj
 0001:0004c3d4       ?dtor$5@?0??HandleOKCallback@AsyncSaveWorker@@UEAAXXZ@4HA 000000018004d3d4 f   Matrix.obj
 0001:0004c3d4       ?dtor$5@?0??HandleOKCallback@PredictASyncWorker@@UEAAXXZ@4HA 000000018004d3d4 f   FaceRecognizer.obj
 0001:0004c3e2       ?dtor$6@?0??HandleOKCallback@AsyncSaveWorker@@UEAAXXZ@4HA 000000018004d3e2 f   Matrix.obj
 0001:0004c3e2       ?dtor$6@?0??HandleOKCallback@AsyncVCWorker@@UEAAXXZ@4HA 000000018004d3e2 f   VideoCaptureWrap.obj
 0001:0004c3e2       ?dtor$6@?0??HandleOKCallback@PredictASyncWorker@@UEAAXXZ@4HA 000000018004d3e2 f   FaceRecognizer.obj
 0001:0004c3f0       ?dtor$4@?0??SaveAsync@Matrix@@SAXAEBV?$FunctionCallbackInfo@VValue@v8@@@Nan@@@Z@4HA 000000018004d3f0 f   Matrix.obj
 0001:0004c3fe       ?dtor$0@?0??SaveAsync@Matrix@@SAXAEBV?$FunctionCallbackInfo@VValue@v8@@@Nan@@@Z@4HA 000000018004d3fe f   Matrix.obj
 0001:0004c40a       ?dtor$1@?0??SaveAsync@Matrix@@SAXAEBV?$FunctionCallbackInfo@VValue@v8@@@Nan@@@Z@4HA 000000018004d40a f   Matrix.obj
 0001:0004c416       ?dtor$2@?0??SaveAsync@Matrix@@SAXAEBV?$FunctionCallbackInfo@VValue@v8@@@Nan@@@Z@4HA 000000018004d416 f   Matrix.obj
 0001:0004c433       ?dtor$7@?0??SaveAsync@Matrix@@SAXAEBV?$FunctionCallbackInfo@VValue@v8@@@Nan@@@Z@4HA 000000018004d433 f   Matrix.obj
 0001:0004c43f       ?dtor$6@?0??SaveAsync@Matrix@@SAXAEBV?$FunctionCallbackInfo@VValue@v8@@@Nan@@@Z@4HA 000000018004d43f f   Matrix.obj
 0001:0004c44b       ?dtor$3@?0??SaveAsync@Matrix@@SAXAEBV?$FunctionCallbackInfo@VValue@v8@@@Nan@@@Z@4HA 000000018004d44b f   Matrix.obj
 0001:0004c468       ?dtor$8@?0??SaveAsync@Matrix@@SAXAEBV?$FunctionCallbackInfo@VValue@v8@@@Nan@@@Z@4HA 000000018004d468 f   Matrix.obj
 0001:0004c480       ?dtor$4@?0??Ones@Matrix@@SAXAEBV?$FunctionCallbackInfo@VValue@v8@@@Nan@@@Z@4HA 000000018004d480 f   Matrix.obj
 0001:0004c480       ?dtor$4@?0??Zeros@Matrix@@SAXAEBV?$FunctionCallbackInfo@VValue@v8@@@Nan@@@Z@4HA 000000018004d480 f   Matrix.obj
 0001:0004c480       ?dtor$4@?0??Eye@Matrix@@SAXAEBV?$FunctionCallbackInfo@VValue@v8@@@Nan@@@Z@4HA 000000018004d480 f   Matrix.obj
 0001:0004c48e       ?dtor$0@?0??Ones@Matrix@@SAXAEBV?$FunctionCallbackInfo@VValue@v8@@@Nan@@@Z@4HA 000000018004d48e f   Matrix.obj
 0001:0004c48e       ?dtor$0@?0??Eye@Matrix@@SAXAEBV?$FunctionCallbackInfo@VValue@v8@@@Nan@@@Z@4HA 000000018004d48e f   Matrix.obj
 0001:0004c48e       ?dtor$0@?0??Zeros@Matrix@@SAXAEBV?$FunctionCallbackInfo@VValue@v8@@@Nan@@@Z@4HA 000000018004d48e f   Matrix.obj
 0001:0004c49a       ?dtor$1@?0??Ones@Matrix@@SAXAEBV?$FunctionCallbackInfo@VValue@v8@@@Nan@@@Z@4HA 000000018004d49a f   Matrix.obj
 0001:0004c49a       ?dtor$1@?0??Eye@Matrix@@SAXAEBV?$FunctionCallbackInfo@VValue@v8@@@Nan@@@Z@4HA 000000018004d49a f   Matrix.obj
 0001:0004c49a       ?dtor$1@?0??Zeros@Matrix@@SAXAEBV?$FunctionCallbackInfo@VValue@v8@@@Nan@@@Z@4HA 000000018004d49a f   Matrix.obj
 0001:0004c4a6       ?dtor$2@?0??Ones@Matrix@@SAXAEBV?$FunctionCallbackInfo@VValue@v8@@@Nan@@@Z@4HA 000000018004d4a6 f   Matrix.obj
 0001:0004c4a6       ?dtor$2@?0??Zeros@Matrix@@SAXAEBV?$FunctionCallbackInfo@VValue@v8@@@Nan@@@Z@4HA 000000018004d4a6 f   Matrix.obj
 0001:0004c4a6       ?dtor$2@?0??Eye@Matrix@@SAXAEBV?$FunctionCallbackInfo@VValue@v8@@@Nan@@@Z@4HA 000000018004d4a6 f   Matrix.obj
 0001:0004c4b2       ?dtor$3@?0??Ones@Matrix@@SAXAEBV?$FunctionCallbackInfo@VValue@v8@@@Nan@@@Z@4HA 000000018004d4b2 f   Matrix.obj
 0001:0004c4b2       ?dtor$3@?0??Eye@Matrix@@SAXAEBV?$FunctionCallbackInfo@VValue@v8@@@Nan@@@Z@4HA 000000018004d4b2 f   Matrix.obj
 0001:0004c4b2       ?dtor$3@?0??Zeros@Matrix@@SAXAEBV?$FunctionCallbackInfo@VValue@v8@@@Nan@@@Z@4HA 000000018004d4b2 f   Matrix.obj
 0001:0004c4be       ?dtor$5@?0??Eye@Matrix@@SAXAEBV?$FunctionCallbackInfo@VValue@v8@@@Nan@@@Z@4HA 000000018004d4be f   Matrix.obj
 0001:0004c4be       ?dtor$5@?0??Zeros@Matrix@@SAXAEBV?$FunctionCallbackInfo@VValue@v8@@@Nan@@@Z@4HA 000000018004d4be f   Matrix.obj
 0001:0004c4be       ?dtor$5@?0??Ones@Matrix@@SAXAEBV?$FunctionCallbackInfo@VValue@v8@@@Nan@@@Z@4HA 000000018004d4be f   Matrix.obj
 0001:0004c4ce       ?dtor$6@?0??Eye@Matrix@@SAXAEBV?$FunctionCallbackInfo@VValue@v8@@@Nan@@@Z@4HA 000000018004d4ce f   Matrix.obj
 0001:0004c4ce       ?dtor$6@?0??Ones@Matrix@@SAXAEBV?$FunctionCallbackInfo@VValue@v8@@@Nan@@@Z@4HA 000000018004d4ce f   Matrix.obj
 0001:0004c4ce       ?dtor$6@?0??Zeros@Matrix@@SAXAEBV?$FunctionCallbackInfo@VValue@v8@@@Nan@@@Z@4HA 000000018004d4ce f   Matrix.obj
 0001:0004c4de       ?dtor$7@?0??Ones@Matrix@@SAXAEBV?$FunctionCallbackInfo@VValue@v8@@@Nan@@@Z@4HA 000000018004d4de f   Matrix.obj
 0001:0004c4de       ?dtor$7@?0??Eye@Matrix@@SAXAEBV?$FunctionCallbackInfo@VValue@v8@@@Nan@@@Z@4HA 000000018004d4de f   Matrix.obj
 0001:0004c4de       ?dtor$7@?0??Zeros@Matrix@@SAXAEBV?$FunctionCallbackInfo@VValue@v8@@@Nan@@@Z@4HA 000000018004d4de f   Matrix.obj
 0001:0004c4f1       ?dtor$8@?0??Ones@Matrix@@SAXAEBV?$FunctionCallbackInfo@VValue@v8@@@Nan@@@Z@4HA 000000018004d4f1 f   Matrix.obj
 0001:0004c4f1       ?dtor$8@?0??Eye@Matrix@@SAXAEBV?$FunctionCallbackInfo@VValue@v8@@@Nan@@@Z@4HA 000000018004d4f1 f   Matrix.obj
 0001:0004c4f1       ?dtor$8@?0??Zeros@Matrix@@SAXAEBV?$FunctionCallbackInfo@VValue@v8@@@Nan@@@Z@4HA 000000018004d4f1 f   Matrix.obj
 0001:0004c500       ?dtor$2@?0??MedianBlur@Matrix@@SAXAEBV?$FunctionCallbackInfo@VValue@v8@@@Nan@@@Z@4HA 000000018004d500 f   Matrix.obj
 0001:0004c500       ?dtor$2@?0??ConvertHSVscale@Matrix@@SAXAEBV?$FunctionCallbackInfo@VValue@v8@@@Nan@@@Z@4HA 000000018004d500 f   Matrix.obj
 0001:0004c50e       ?dtor$0@?0??MedianBlur@Matrix@@SAXAEBV?$FunctionCallbackInfo@VValue@v8@@@Nan@@@Z@4HA 000000018004d50e f   Matrix.obj
 0001:0004c50e       ?dtor$0@?0??ConvertHSVscale@Matrix@@SAXAEBV?$FunctionCallbackInfo@VValue@v8@@@Nan@@@Z@4HA 000000018004d50e f   Matrix.obj
 0001:0004c51a       ?dtor$1@?0??ConvertHSVscale@Matrix@@SAXAEBV?$FunctionCallbackInfo@VValue@v8@@@Nan@@@Z@4HA 000000018004d51a f   Matrix.obj
 0001:0004c51a       ?dtor$1@?0??MedianBlur@Matrix@@SAXAEBV?$FunctionCallbackInfo@VValue@v8@@@Nan@@@Z@4HA 000000018004d51a f   Matrix.obj
 0001:0004c526       ?dtor$3@?0??MedianBlur@Matrix@@SAXAEBV?$FunctionCallbackInfo@VValue@v8@@@Nan@@@Z@4HA 000000018004d526 f   Matrix.obj
 0001:0004c526       ?dtor$3@?0??ConvertHSVscale@Matrix@@SAXAEBV?$FunctionCallbackInfo@VValue@v8@@@Nan@@@Z@4HA 000000018004d526 f   Matrix.obj
 0001:0004c540       ?dtor$2@?0??GaussianBlur@Matrix@@SAXAEBV?$FunctionCallbackInfo@VValue@v8@@@Nan@@@Z@4HA 000000018004d540 f   Matrix.obj
 0001:0004c54e       ?dtor$0@?0??GaussianBlur@Matrix@@SAXAEBV?$FunctionCallbackInfo@VValue@v8@@@Nan@@@Z@4HA 000000018004d54e f   Matrix.obj
 0001:0004c55a       ?dtor$1@?0??GaussianBlur@Matrix@@SAXAEBV?$FunctionCallbackInfo@VValue@v8@@@Nan@@@Z@4HA 000000018004d55a f   Matrix.obj
 0001:0004c566       ?dtor$3@?0??GaussianBlur@Matrix@@SAXAEBV?$FunctionCallbackInfo@VValue@v8@@@Nan@@@Z@4HA 000000018004d566 f   Matrix.obj
 0001:0004c580       ?dtor$2@?0??BilateralFilter@Matrix@@SAXAEBV?$FunctionCallbackInfo@VValue@v8@@@Nan@@@Z@4HA 000000018004d580 f   Matrix.obj
 0001:0004c58e       ?dtor$0@?0??BilateralFilter@Matrix@@SAXAEBV?$FunctionCallbackInfo@VValue@v8@@@Nan@@@Z@4HA 000000018004d58e f   Matrix.obj
 0001:0004c59a       ?dtor$1@?0??BilateralFilter@Matrix@@SAXAEBV?$FunctionCallbackInfo@VValue@v8@@@Nan@@@Z@4HA 000000018004d59a f   Matrix.obj
 0001:0004c5a6       ?dtor$3@?0??BilateralFilter@Matrix@@SAXAEBV?$FunctionCallbackInfo@VValue@v8@@@Nan@@@Z@4HA 000000018004d5a6 f   Matrix.obj
 0001:0004c5c0       ?dtor$1@?0??SetWithMask@Matrix@@SAXAEBV?$FunctionCallbackInfo@VValue@v8@@@Nan@@@Z@4HA 000000018004d5c0 f   Matrix.obj
 0001:0004c5c0       ?dtor$1@?0??SetAccessor@Nan@@YAXV?$Local@VObjectTemplate@v8@@@v8@@V?$Local@VString@v8@@@3@P6AX1AEBV?$PropertyCallbackInfo@VValue@v8@@@1@@ZP6AX1V?$Local@VValue@v8@@@3@AEBV?$PropertyCallbackInfo@X@1@@Z4W4AccessControl@3@W4PropertyAttribute@3@V?$Local@VAccessorSignature@v8@@@3@@Z@4HA 000000018004d5c0 f   Point.obj
 0001:0004c5c0       ?dtor$1@?0??Moments@Contour@@SAXAEBV?$FunctionCallbackInfo@VValue@v8@@@Nan@@@Z@4HA 000000018004d5c0 f   Contours.obj
 0001:0004c5c0       ?dtor$1@?0??Sobel@Matrix@@SAXAEBV?$FunctionCallbackInfo@VValue@v8@@@Nan@@@Z@4HA 000000018004d5c0 f   Matrix.obj
 0001:0004c5ce       ?dtor$0@?0??SetWithMask@Matrix@@SAXAEBV?$FunctionCallbackInfo@VValue@v8@@@Nan@@@Z@4HA 000000018004d5ce f   Matrix.obj
 0001:0004c5ce       ?dtor$0@?0??Moments@Contour@@SAXAEBV?$FunctionCallbackInfo@VValue@v8@@@Nan@@@Z@4HA 000000018004d5ce f   Contours.obj
 0001:0004c5ce       ?dtor$0@?0??SetAccessor@Nan@@YAXV?$Local@VObjectTemplate@v8@@@v8@@V?$Local@VString@v8@@@3@P6AX1AEBV?$PropertyCallbackInfo@VValue@v8@@@1@@ZP6AX1V?$Local@VValue@v8@@@3@AEBV?$PropertyCallbackInfo@X@1@@Z4W4AccessControl@3@W4PropertyAttribute@3@V?$Local@VAccessorSignature@v8@@@3@@Z@4HA 000000018004d5ce f   Point.obj
 0001:0004c5ce       ?dtor$0@?0??Sobel@Matrix@@SAXAEBV?$FunctionCallbackInfo@VValue@v8@@@Nan@@@Z@4HA 000000018004d5ce f   Matrix.obj
 0001:0004c5da       ?dtor$2@?0??Sobel@Matrix@@SAXAEBV?$FunctionCallbackInfo@VValue@v8@@@Nan@@@Z@4HA 000000018004d5da f   Matrix.obj
 0001:0004c5da       ?dtor$2@?0??Moments@Contour@@SAXAEBV?$FunctionCallbackInfo@VValue@v8@@@Nan@@@Z@4HA 000000018004d5da f   Contours.obj
 0001:0004c5da       ?dtor$2@?0??SetWithMask@Matrix@@SAXAEBV?$FunctionCallbackInfo@VValue@v8@@@Nan@@@Z@4HA 000000018004d5da f   Matrix.obj
 0001:0004c5da       ?dtor$3@?0??SetAccessor@Nan@@YAXV?$Local@VObjectTemplate@v8@@@v8@@V?$Local@VString@v8@@@3@P6AX1AEBV?$PropertyCallbackInfo@VValue@v8@@@1@@ZP6AX1V?$Local@VValue@v8@@@3@AEBV?$PropertyCallbackInfo@X@1@@Z4W4AccessControl@3@W4PropertyAttribute@3@V?$Local@VAccessorSignature@v8@@@3@@Z@4HA 000000018004d5da f   Point.obj
 0001:0004c5f0       ?dtor$2@?0??ROI@Matrix@@SAXAEBV?$FunctionCallbackInfo@VValue@v8@@@Nan@@@Z@4HA 000000018004d5f0 f   Matrix.obj
 0001:0004c5fe       ?dtor$0@?0??ROI@Matrix@@SAXAEBV?$FunctionCallbackInfo@VValue@v8@@@Nan@@@Z@4HA 000000018004d5fe f   Matrix.obj
 0001:0004c60a       ?dtor$1@?0??ROI@Matrix@@SAXAEBV?$FunctionCallbackInfo@VValue@v8@@@Nan@@@Z@4HA 000000018004d60a f   Matrix.obj
 0001:0004c616       ?dtor$3@?0??ROI@Matrix@@SAXAEBV?$FunctionCallbackInfo@VValue@v8@@@Nan@@@Z@4HA 000000018004d616 f   Matrix.obj
 0001:0004c630       ?dtor$1@?0??AddWeighted@Matrix@@SAXAEBV?$FunctionCallbackInfo@VValue@v8@@@Nan@@@Z@4HA 000000018004d630 f   Matrix.obj
 0001:0004c63e       ?dtor$0@?0??AddWeighted@Matrix@@SAXAEBV?$FunctionCallbackInfo@VValue@v8@@@Nan@@@Z@4HA 000000018004d63e f   Matrix.obj
 0001:0004c64a       ?catch$0@?0??AddWeighted@Matrix@@SAXAEBV?$FunctionCallbackInfo@VValue@v8@@@Nan@@@Z@4HA 000000018004d64a f   Matrix.obj
 0001:0004c657       __catch$?AddWeighted@Matrix@@SAXAEBV?$FunctionCallbackInfo@VValue@v8@@@Nan@@@Z$0 000000018004d657 f   Matrix.obj
 0001:0004c678       ?dtor$2@?0??AddWeighted@Matrix@@SAXAEBV?$FunctionCallbackInfo@VValue@v8@@@Nan@@@Z@4HA 000000018004d678 f   Matrix.obj
 0001:0004c690       ?dtor$1@?0??BitwiseAnd@Matrix@@SAXAEBV?$FunctionCallbackInfo@VValue@v8@@@Nan@@@Z@4HA 000000018004d690 f   Matrix.obj
 0001:0004c690       ?dtor$1@?0??BitwiseXor@Matrix@@SAXAEBV?$FunctionCallbackInfo@VValue@v8@@@Nan@@@Z@4HA 000000018004d690 f   Matrix.obj
 0001:0004c69e       ?dtor$0@?0??BitwiseAnd@Matrix@@SAXAEBV?$FunctionCallbackInfo@VValue@v8@@@Nan@@@Z@4HA 000000018004d69e f   Matrix.obj
 0001:0004c69e       ?dtor$0@?0??BitwiseXor@Matrix@@SAXAEBV?$FunctionCallbackInfo@VValue@v8@@@Nan@@@Z@4HA 000000018004d69e f   Matrix.obj
 0001:0004c6aa       ?dtor$2@?0??BitwiseXor@Matrix@@SAXAEBV?$FunctionCallbackInfo@VValue@v8@@@Nan@@@Z@4HA 000000018004d6aa f   Matrix.obj
 0001:0004c6aa       ?dtor$2@?0??BitwiseAnd@Matrix@@SAXAEBV?$FunctionCallbackInfo@VValue@v8@@@Nan@@@Z@4HA 000000018004d6aa f   Matrix.obj
 0001:0004c6c0       ?dtor$1@?0??Moments@Matrix@@SAXAEBV?$FunctionCallbackInfo@VValue@v8@@@Nan@@@Z@4HA 000000018004d6c0 f   Matrix.obj
 0001:0004c6ce       ?dtor$0@?0??Moments@Matrix@@SAXAEBV?$FunctionCallbackInfo@VValue@v8@@@Nan@@@Z@4HA 000000018004d6ce f   Matrix.obj
 0001:0004c6da       ?dtor$2@?0??Moments@Matrix@@SAXAEBV?$FunctionCallbackInfo@VValue@v8@@@Nan@@@Z@4HA 000000018004d6da f   Matrix.obj
 0001:0004c6f0       ?dtor$2@?0??Dilate@Matrix@@SAXAEBV?$FunctionCallbackInfo@VValue@v8@@@Nan@@@Z@4HA 000000018004d6f0 f   Matrix.obj
 0001:0004c6f0       ?dtor$2@?0??Erode@Matrix@@SAXAEBV?$FunctionCallbackInfo@VValue@v8@@@Nan@@@Z@4HA 000000018004d6f0 f   Matrix.obj
 0001:0004c6fe       ?dtor$0@?0??Dilate@Matrix@@SAXAEBV?$FunctionCallbackInfo@VValue@v8@@@Nan@@@Z@4HA 000000018004d6fe f   Matrix.obj
 0001:0004c6fe       ?dtor$0@?0??Erode@Matrix@@SAXAEBV?$FunctionCallbackInfo@VValue@v8@@@Nan@@@Z@4HA 000000018004d6fe f   Matrix.obj
 0001:0004c70a       ?dtor$1@?0??Erode@Matrix@@SAXAEBV?$FunctionCallbackInfo@VValue@v8@@@Nan@@@Z@4HA 000000018004d70a f   Matrix.obj
 0001:0004c70a       ?dtor$1@?0??Dilate@Matrix@@SAXAEBV?$FunctionCallbackInfo@VValue@v8@@@Nan@@@Z@4HA 000000018004d70a f   Matrix.obj
 0001:0004c716       ?dtor$3@?0??Dilate@Matrix@@SAXAEBV?$FunctionCallbackInfo@VValue@v8@@@Nan@@@Z@4HA 000000018004d716 f   Matrix.obj
 0001:0004c716       ?dtor$3@?0??Erode@Matrix@@SAXAEBV?$FunctionCallbackInfo@VValue@v8@@@Nan@@@Z@4HA 000000018004d716 f   Matrix.obj
 0001:0004c730       ?dtor$1@?0??FindContours@Matrix@@SAXAEBV?$FunctionCallbackInfo@VValue@v8@@@Nan@@@Z@4HA 000000018004d730 f   Matrix.obj
 0001:0004c73e       ?dtor$0@?0??FindContours@Matrix@@SAXAEBV?$FunctionCallbackInfo@VValue@v8@@@Nan@@@Z@4HA 000000018004d73e f   Matrix.obj
 0001:0004c74a       ?dtor$2@?0??FindContours@Matrix@@SAXAEBV?$FunctionCallbackInfo@VValue@v8@@@Nan@@@Z@4HA 000000018004d74a f   Matrix.obj
 0001:0004c760       ?dtor$1@?0??DrawAllContours@Matrix@@SAXAEBV?$FunctionCallbackInfo@VValue@v8@@@Nan@@@Z@4HA 000000018004d760 f   Matrix.obj
 0001:0004c760       ?dtor$1@?0??DrawContour@Matrix@@SAXAEBV?$FunctionCallbackInfo@VValue@v8@@@Nan@@@Z@4HA 000000018004d760 f   Matrix.obj
 0001:0004c76e       ?dtor$0@?0??DrawAllContours@Matrix@@SAXAEBV?$FunctionCallbackInfo@VValue@v8@@@Nan@@@Z@4HA 000000018004d76e f   Matrix.obj
 0001:0004c76e       ?dtor$0@?0??DrawContour@Matrix@@SAXAEBV?$FunctionCallbackInfo@VValue@v8@@@Nan@@@Z@4HA 000000018004d76e f   Matrix.obj
 0001:0004c77a       ?dtor$2@?0??DrawContour@Matrix@@SAXAEBV?$FunctionCallbackInfo@VValue@v8@@@Nan@@@Z@4HA 000000018004d77a f   Matrix.obj
 0001:0004c77a       ?dtor$2@?0??DrawAllContours@Matrix@@SAXAEBV?$FunctionCallbackInfo@VValue@v8@@@Nan@@@Z@4HA 000000018004d77a f   Matrix.obj
 0001:0004c790       ?dtor$3@?0??GoodFeaturesToTrack@Matrix@@SAXAEBV?$FunctionCallbackInfo@VValue@v8@@@Nan@@@Z@4HA 000000018004d790 f   Matrix.obj
 0001:0004c79e       ?dtor$0@?0??GoodFeaturesToTrack@Matrix@@SAXAEBV?$FunctionCallbackInfo@VValue@v8@@@Nan@@@Z@4HA 000000018004d79e f   Matrix.obj
 0001:0004c7aa       ?dtor$1@?0??GoodFeaturesToTrack@Matrix@@SAXAEBV?$FunctionCallbackInfo@VValue@v8@@@Nan@@@Z@4HA 000000018004d7aa f   Matrix.obj
 0001:0004c7b6       ?dtor$2@?0??GoodFeaturesToTrack@Matrix@@SAXAEBV?$FunctionCallbackInfo@VValue@v8@@@Nan@@@Z@4HA 000000018004d7b6 f   Matrix.obj
 0001:0004c7c2       ?dtor$4@?0??GoodFeaturesToTrack@Matrix@@SAXAEBV?$FunctionCallbackInfo@VValue@v8@@@Nan@@@Z@4HA 000000018004d7c2 f   Matrix.obj
 0001:0004c7d0       ?dtor$3@?0??HoughLinesP@Matrix@@SAXAEBV?$FunctionCallbackInfo@VValue@v8@@@Nan@@@Z@4HA 000000018004d7d0 f   Matrix.obj
 0001:0004c7de       ?dtor$0@?0??HoughLinesP@Matrix@@SAXAEBV?$FunctionCallbackInfo@VValue@v8@@@Nan@@@Z@4HA 000000018004d7de f   Matrix.obj
 0001:0004c7ea       ?dtor$1@?0??HoughLinesP@Matrix@@SAXAEBV?$FunctionCallbackInfo@VValue@v8@@@Nan@@@Z@4HA 000000018004d7ea f   Matrix.obj
 0001:0004c7f6       ?dtor$2@?0??HoughLinesP@Matrix@@SAXAEBV?$FunctionCallbackInfo@VValue@v8@@@Nan@@@Z@4HA 000000018004d7f6 f   Matrix.obj
 0001:0004c802       ?dtor$4@?0??HoughLinesP@Matrix@@SAXAEBV?$FunctionCallbackInfo@VValue@v8@@@Nan@@@Z@4HA 000000018004d802 f   Matrix.obj
 0001:0004c810       ?dtor$3@?0??HoughCircles@Matrix@@SAXAEBV?$FunctionCallbackInfo@VValue@v8@@@Nan@@@Z@4HA 000000018004d810 f   Matrix.obj
 0001:0004c81e       ?dtor$0@?0??HoughCircles@Matrix@@SAXAEBV?$FunctionCallbackInfo@VValue@v8@@@Nan@@@Z@4HA 000000018004d81e f   Matrix.obj
 0001:0004c82a       ?dtor$1@?0??HoughCircles@Matrix@@SAXAEBV?$FunctionCallbackInfo@VValue@v8@@@Nan@@@Z@4HA 000000018004d82a f   Matrix.obj
 0001:0004c836       ?dtor$2@?0??HoughCircles@Matrix@@SAXAEBV?$FunctionCallbackInfo@VValue@v8@@@Nan@@@Z@4HA 000000018004d836 f   Matrix.obj
 0001:0004c842       ?dtor$4@?0??HoughCircles@Matrix@@SAXAEBV?$FunctionCallbackInfo@VValue@v8@@@Nan@@@Z@4HA 000000018004d842 f   Matrix.obj
 0001:0004c850       ?dtor$3@?0??Resize@Matrix@@SAXAEBV?$FunctionCallbackInfo@VValue@v8@@@Nan@@@Z@4HA 000000018004d850 f   Matrix.obj
 0001:0004c85e       ?dtor$0@?0??Resize@Matrix@@SAXAEBV?$FunctionCallbackInfo@VValue@v8@@@Nan@@@Z@4HA 000000018004d85e f   Matrix.obj
 0001:0004c86a       ?dtor$1@?0??Resize@Matrix@@SAXAEBV?$FunctionCallbackInfo@VValue@v8@@@Nan@@@Z@4HA 000000018004d86a f   Matrix.obj
 0001:0004c876       ?dtor$4@?0??Resize@Matrix@@SAXAEBV?$FunctionCallbackInfo@VValue@v8@@@Nan@@@Z@4HA 000000018004d876 f   Matrix.obj
 0001:0004c886       ?dtor$5@?0??Resize@Matrix@@SAXAEBV?$FunctionCallbackInfo@VValue@v8@@@Nan@@@Z@4HA 000000018004d886 f   Matrix.obj
 0001:0004c896       ?dtor$6@?0??Resize@Matrix@@SAXAEBV?$FunctionCallbackInfo@VValue@v8@@@Nan@@@Z@4HA 000000018004d896 f   Matrix.obj
 0001:0004c8a9       ?dtor$7@?0??Resize@Matrix@@SAXAEBV?$FunctionCallbackInfo@VValue@v8@@@Nan@@@Z@4HA 000000018004d8a9 f   Matrix.obj
 0001:0004c8c0       ?dtor$6@?0??Rotate@Matrix@@SAXAEBV?$FunctionCallbackInfo@VValue@v8@@@Nan@@@Z@4HA 000000018004d8c0 f   Matrix.obj
 0001:0004c8ce       ?dtor$0@?0??Rotate@Matrix@@SAXAEBV?$FunctionCallbackInfo@VValue@v8@@@Nan@@@Z@4HA 000000018004d8ce f   Matrix.obj
 0001:0004c8da       ?dtor$1@?0??Rotate@Matrix@@SAXAEBV?$FunctionCallbackInfo@VValue@v8@@@Nan@@@Z@4HA 000000018004d8da f   Matrix.obj
 0001:0004c8e6       ?dtor$2@?0??Rotate@Matrix@@SAXAEBV?$FunctionCallbackInfo@VValue@v8@@@Nan@@@Z@4HA 000000018004d8e6 f   Matrix.obj
 0001:0004c8f2       ?dtor$4@?0??Rotate@Matrix@@SAXAEBV?$FunctionCallbackInfo@VValue@v8@@@Nan@@@Z@4HA 000000018004d8f2 f   Matrix.obj
 0001:0004c8fe       ?dtor$9@?0??Rotate@Matrix@@SAXAEBV?$FunctionCallbackInfo@VValue@v8@@@Nan@@@Z@4HA 000000018004d8fe f   Matrix.obj
 0001:0004c90e       ?dtor$10@?0??Rotate@Matrix@@SAXAEBV?$FunctionCallbackInfo@VValue@v8@@@Nan@@@Z@4HA 000000018004d90e f   Matrix.obj
 0001:0004c91e       ?dtor$11@?0??Rotate@Matrix@@SAXAEBV?$FunctionCallbackInfo@VValue@v8@@@Nan@@@Z@4HA 000000018004d91e f   Matrix.obj
 0001:0004c931       ?dtor$12@?0??Rotate@Matrix@@SAXAEBV?$FunctionCallbackInfo@VValue@v8@@@Nan@@@Z@4HA 000000018004d931 f   Matrix.obj
 0001:0004c940       ?dtor$3@?0??WarpAffine@Matrix@@SAXAEBV?$FunctionCallbackInfo@VValue@v8@@@Nan@@@Z@4HA 000000018004d940 f   Matrix.obj
 0001:0004c94e       ?dtor$0@?0??WarpAffine@Matrix@@SAXAEBV?$FunctionCallbackInfo@VValue@v8@@@Nan@@@Z@4HA 000000018004d94e f   Matrix.obj
 0001:0004c95a       ?dtor$1@?0??WarpAffine@Matrix@@SAXAEBV?$FunctionCallbackInfo@VValue@v8@@@Nan@@@Z@4HA 000000018004d95a f   Matrix.obj
 0001:0004c966       ?dtor$4@?0??WarpAffine@Matrix@@SAXAEBV?$FunctionCallbackInfo@VValue@v8@@@Nan@@@Z@4HA 000000018004d966 f   Matrix.obj
 0001:0004c976       ?dtor$5@?0??WarpAffine@Matrix@@SAXAEBV?$FunctionCallbackInfo@VValue@v8@@@Nan@@@Z@4HA 000000018004d976 f   Matrix.obj
 0001:0004c986       ?dtor$6@?0??WarpAffine@Matrix@@SAXAEBV?$FunctionCallbackInfo@VValue@v8@@@Nan@@@Z@4HA 000000018004d986 f   Matrix.obj
 0001:0004c999       ?dtor$7@?0??WarpAffine@Matrix@@SAXAEBV?$FunctionCallbackInfo@VValue@v8@@@Nan@@@Z@4HA 000000018004d999 f   Matrix.obj
 0001:0004c9b0       ?dtor$2@?0??inRange@Matrix@@SAXAEBV?$FunctionCallbackInfo@VValue@v8@@@Nan@@@Z@4HA 000000018004d9b0 f   Matrix.obj
 0001:0004c9b0       ?dtor$2@?0??FitEllipse@Contour@@SAXAEBV?$FunctionCallbackInfo@VValue@v8@@@Nan@@@Z@4HA 000000018004d9b0 f   Contours.obj
 0001:0004c9be       ?dtor$0@?0??FitEllipse@Contour@@SAXAEBV?$FunctionCallbackInfo@VValue@v8@@@Nan@@@Z@4HA 000000018004d9be f   Contours.obj
 0001:0004c9be       ?dtor$0@?0??inRange@Matrix@@SAXAEBV?$FunctionCallbackInfo@VValue@v8@@@Nan@@@Z@4HA 000000018004d9be f   Matrix.obj
 0001:0004c9ca       ?dtor$1@?0??inRange@Matrix@@SAXAEBV?$FunctionCallbackInfo@VValue@v8@@@Nan@@@Z@4HA 000000018004d9ca f   Matrix.obj
 0001:0004c9ca       ?dtor$1@?0??FitEllipse@Contour@@SAXAEBV?$FunctionCallbackInfo@VValue@v8@@@Nan@@@Z@4HA 000000018004d9ca f   Contours.obj
 0001:0004c9d6       ?dtor$3@?0??inRange@Matrix@@SAXAEBV?$FunctionCallbackInfo@VValue@v8@@@Nan@@@Z@4HA 000000018004d9d6 f   Matrix.obj
 0001:0004c9d6       ?dtor$4@?0??FitEllipse@Contour@@SAXAEBV?$FunctionCallbackInfo@VValue@v8@@@Nan@@@Z@4HA 000000018004d9d6 f   Contours.obj
 0001:0004c9f0       ?dtor$3@?0??Threshold@Matrix@@SAXAEBV?$FunctionCallbackInfo@VValue@v8@@@Nan@@@Z@4HA 000000018004d9f0 f   Matrix.obj
 0001:0004c9fe       ?dtor$0@?0??Threshold@Matrix@@SAXAEBV?$FunctionCallbackInfo@VValue@v8@@@Nan@@@Z@4HA 000000018004d9fe f   Matrix.obj
 0001:0004ca0a       ?dtor$1@?0??Threshold@Matrix@@SAXAEBV?$FunctionCallbackInfo@VValue@v8@@@Nan@@@Z@4HA 000000018004da0a f   Matrix.obj
 0001:0004ca16       ?dtor$2@?0??Threshold@Matrix@@SAXAEBV?$FunctionCallbackInfo@VValue@v8@@@Nan@@@Z@4HA 000000018004da16 f   Matrix.obj
 0001:0004ca22       ?dtor$6@?0??Threshold@Matrix@@SAXAEBV?$FunctionCallbackInfo@VValue@v8@@@Nan@@@Z@4HA 000000018004da22 f   Matrix.obj
 0001:0004ca30       ?dtor$1@?0??AdaptiveThreshold@Matrix@@SAXAEBV?$FunctionCallbackInfo@VValue@v8@@@Nan@@@Z@4HA 000000018004da30 f   Matrix.obj
 0001:0004ca30       ?dtor$1@?0??Init@OpenCV@@SAXV?$Local@VObject@v8@@@v8@@@Z@4HA 000000018004da30 f   OpenCV.obj
 0001:0004ca3e       ?dtor$0@?0??AdaptiveThreshold@Matrix@@SAXAEBV?$FunctionCallbackInfo@VValue@v8@@@Nan@@@Z@4HA 000000018004da3e f   Matrix.obj
 0001:0004ca3e       ?dtor$0@?0??Init@OpenCV@@SAXV?$Local@VObject@v8@@@v8@@@Z@4HA 000000018004da3e f   OpenCV.obj
 0001:0004ca4a       ?dtor$2@?0??Init@OpenCV@@SAXV?$Local@VObject@v8@@@v8@@@Z@4HA 000000018004da4a f   OpenCV.obj
 0001:0004ca4a       ?dtor$2@?0??AdaptiveThreshold@Matrix@@SAXAEBV?$FunctionCallbackInfo@VValue@v8@@@Nan@@@Z@4HA 000000018004da4a f   Matrix.obj
 0001:0004ca60       ?dtor$2@?0??CopyTo@Matrix@@SAXAEBV?$FunctionCallbackInfo@VValue@v8@@@Nan@@@Z@4HA 000000018004da60 f   Matrix.obj
 0001:0004ca6e       ?dtor$0@?0??CopyTo@Matrix@@SAXAEBV?$FunctionCallbackInfo@VValue@v8@@@Nan@@@Z@4HA 000000018004da6e f   Matrix.obj
 0001:0004ca7a       ?dtor$1@?0??CopyTo@Matrix@@SAXAEBV?$FunctionCallbackInfo@VValue@v8@@@Nan@@@Z@4HA 000000018004da7a f   Matrix.obj
 0001:0004ca86       ?dtor$3@?0??CopyTo@Matrix@@SAXAEBV?$FunctionCallbackInfo@VValue@v8@@@Nan@@@Z@4HA 000000018004da86 f   Matrix.obj
 0001:0004caa0       ?dtor$3@?0??CvtColor@Matrix@@SAXAEBV?$FunctionCallbackInfo@VValue@v8@@@Nan@@@Z@4HA 000000018004daa0 f   Matrix.obj
 0001:0004caae       ?dtor$0@?0??CvtColor@Matrix@@SAXAEBV?$FunctionCallbackInfo@VValue@v8@@@Nan@@@Z@4HA 000000018004daae f   Matrix.obj
 0001:0004caba       ?dtor$1@?0??CvtColor@Matrix@@SAXAEBV?$FunctionCallbackInfo@VValue@v8@@@Nan@@@Z@4HA 000000018004daba f   Matrix.obj
 0001:0004cac8       ?dtor$2@?0??CvtColor@Matrix@@SAXAEBV?$FunctionCallbackInfo@VValue@v8@@@Nan@@@Z@4HA 000000018004dac8 f   Matrix.obj
 0001:0004cad4       ?dtor$4@?0??CvtColor@Matrix@@SAXAEBV?$FunctionCallbackInfo@VValue@v8@@@Nan@@@Z@4HA 000000018004dad4 f   Matrix.obj
 0001:0004caf0       ?dtor$3@?0??Split@Matrix@@SAXAEBV?$FunctionCallbackInfo@VValue@v8@@@Nan@@@Z@4HA 000000018004daf0 f   Matrix.obj
 0001:0004cafe       ?dtor$0@?0??Split@Matrix@@SAXAEBV?$FunctionCallbackInfo@VValue@v8@@@Nan@@@Z@4HA 000000018004dafe f   Matrix.obj
 0001:0004cb0a       ?dtor$1@?0??Split@Matrix@@SAXAEBV?$FunctionCallbackInfo@VValue@v8@@@Nan@@@Z@4HA 000000018004db0a f   Matrix.obj
 0001:0004cb16       ?dtor$2@?0??Split@Matrix@@SAXAEBV?$FunctionCallbackInfo@VValue@v8@@@Nan@@@Z@4HA 000000018004db16 f   Matrix.obj
 0001:0004cb22       ?dtor$4@?0??Split@Matrix@@SAXAEBV?$FunctionCallbackInfo@VValue@v8@@@Nan@@@Z@4HA 000000018004db22 f   Matrix.obj
 0001:0004cb3e       ?dtor$5@?0??Split@Matrix@@SAXAEBV?$FunctionCallbackInfo@VValue@v8@@@Nan@@@Z@4HA 000000018004db3e f   Matrix.obj
 0001:0004cb5a       ?dtor$6@?0??Split@Matrix@@SAXAEBV?$FunctionCallbackInfo@VValue@v8@@@Nan@@@Z@4HA 000000018004db5a f   Matrix.obj
 0001:0004cb70       ?dtor$2@?0??Merge@Matrix@@SAXAEBV?$FunctionCallbackInfo@VValue@v8@@@Nan@@@Z@4HA 000000018004db70 f   Matrix.obj
 0001:0004cb7e       ?dtor$0@?0??Merge@Matrix@@SAXAEBV?$FunctionCallbackInfo@VValue@v8@@@Nan@@@Z@4HA 000000018004db7e f   Matrix.obj
 0001:0004cb8a       ?dtor$1@?0??Merge@Matrix@@SAXAEBV?$FunctionCallbackInfo@VValue@v8@@@Nan@@@Z@4HA 000000018004db8a f   Matrix.obj
 0001:0004cb96       ?dtor$3@?0??Merge@Matrix@@SAXAEBV?$FunctionCallbackInfo@VValue@v8@@@Nan@@@Z@4HA 000000018004db96 f   Matrix.obj
 0001:0004cbb0       ?dtor$1@?0??FloodFill@Matrix@@SAXAEBV?$FunctionCallbackInfo@VValue@v8@@@Nan@@@Z@4HA 000000018004dbb0 f   Matrix.obj
 0001:0004cbbe       ?dtor$0@?0??FloodFill@Matrix@@SAXAEBV?$FunctionCallbackInfo@VValue@v8@@@Nan@@@Z@4HA 000000018004dbbe f   Matrix.obj
 0001:0004cbca       ?dtor$2@?0??FloodFill@Matrix@@SAXAEBV?$FunctionCallbackInfo@VValue@v8@@@Nan@@@Z@4HA 000000018004dbca f   Matrix.obj
 0001:0004cbe0       ?dtor$7@?0??TemplateMatches@Matrix@@SAXAEBV?$FunctionCallbackInfo@VValue@v8@@@Nan@@@Z@4HA 000000018004dbe0 f   Matrix.obj
 0001:0004cbee       ?dtor$0@?0??TemplateMatches@Matrix@@SAXAEBV?$FunctionCallbackInfo@VValue@v8@@@Nan@@@Z@4HA 000000018004dbee f   Matrix.obj
 0001:0004cbfa       ?dtor$8@?0??TemplateMatches@Matrix@@SAXAEBV?$FunctionCallbackInfo@VValue@v8@@@Nan@@@Z@4HA 000000018004dbfa f   Matrix.obj
 0001:0004cc06       ?dtor$1@?0??TemplateMatches@Matrix@@SAXAEBV?$FunctionCallbackInfo@VValue@v8@@@Nan@@@Z@4HA 000000018004dc06 f   Matrix.obj
 0001:0004cc12       ?dtor$2@?0??TemplateMatches@Matrix@@SAXAEBV?$FunctionCallbackInfo@VValue@v8@@@Nan@@@Z@4HA 000000018004dc12 f   Matrix.obj
 0001:0004cc1e       ?dtor$3@?0??TemplateMatches@Matrix@@SAXAEBV?$FunctionCallbackInfo@VValue@v8@@@Nan@@@Z@4HA 000000018004dc1e f   Matrix.obj
 0001:0004cc2a       ?dtor$4@?0??TemplateMatches@Matrix@@SAXAEBV?$FunctionCallbackInfo@VValue@v8@@@Nan@@@Z@4HA 000000018004dc2a f   Matrix.obj
 0001:0004cc36       ?dtor$5@?0??TemplateMatches@Matrix@@SAXAEBV?$FunctionCallbackInfo@VValue@v8@@@Nan@@@Z@4HA 000000018004dc36 f   Matrix.obj
 0001:0004cc42       ?dtor$6@?0??TemplateMatches@Matrix@@SAXAEBV?$FunctionCallbackInfo@VValue@v8@@@Nan@@@Z@4HA 000000018004dc42 f   Matrix.obj
 0001:0004cc4e       ?dtor$9@?0??TemplateMatches@Matrix@@SAXAEBV?$FunctionCallbackInfo@VValue@v8@@@Nan@@@Z@4HA 000000018004dc4e f   Matrix.obj
 0001:0004cc5e       ?dtor$10@?0??TemplateMatches@Matrix@@SAXAEBV?$FunctionCallbackInfo@VValue@v8@@@Nan@@@Z@4HA 000000018004dc5e f   Matrix.obj
 0001:0004cc6e       ?dtor$11@?0??TemplateMatches@Matrix@@SAXAEBV?$FunctionCallbackInfo@VValue@v8@@@Nan@@@Z@4HA 000000018004dc6e f   Matrix.obj
 0001:0004cc81       ?dtor$12@?0??TemplateMatches@Matrix@@SAXAEBV?$FunctionCallbackInfo@VValue@v8@@@Nan@@@Z@4HA 000000018004dc81 f   Matrix.obj
 0001:0004cc8d       ?dtor$13@?0??TemplateMatches@Matrix@@SAXAEBV?$FunctionCallbackInfo@VValue@v8@@@Nan@@@Z@4HA 000000018004dc8d f   Matrix.obj
 0001:0004cca0       ?dtor$0@?0???1?$Mat_@H@cv@@QEAA@XZ@4HA 000000018004dca0 f   Matrix.obj
 0001:0004ccb0       ?dtor$7@?0??MatchTemplate@Matrix@@SAXAEBV?$FunctionCallbackInfo@VValue@v8@@@Nan@@@Z@4HA 000000018004dcb0 f   Matrix.obj
 0001:0004ccbe       ?dtor$0@?0??MatchTemplate@Matrix@@SAXAEBV?$FunctionCallbackInfo@VValue@v8@@@Nan@@@Z@4HA 000000018004dcbe f   Matrix.obj
 0001:0004ccca       ?dtor$1@?0??MatchTemplate@Matrix@@SAXAEBV?$FunctionCallbackInfo@VValue@v8@@@Nan@@@Z@4HA 000000018004dcca f   Matrix.obj
 0001:0004ccd8       ?dtor$2@?0??MatchTemplate@Matrix@@SAXAEBV?$FunctionCallbackInfo@VValue@v8@@@Nan@@@Z@4HA 000000018004dcd8 f   Matrix.obj
 0001:0004cce4       ?dtor$3@?0??MatchTemplate@Matrix@@SAXAEBV?$FunctionCallbackInfo@VValue@v8@@@Nan@@@Z@4HA 000000018004dce4 f   Matrix.obj
 0001:0004ccf0       ?dtor$4@?0??MatchTemplate@Matrix@@SAXAEBV?$FunctionCallbackInfo@VValue@v8@@@Nan@@@Z@4HA 000000018004dcf0 f   Matrix.obj
 0001:0004ccfc       ?dtor$5@?0??MatchTemplate@Matrix@@SAXAEBV?$FunctionCallbackInfo@VValue@v8@@@Nan@@@Z@4HA 000000018004dcfc f   Matrix.obj
 0001:0004cd08       ?dtor$6@?0??MatchTemplate@Matrix@@SAXAEBV?$FunctionCallbackInfo@VValue@v8@@@Nan@@@Z@4HA 000000018004dd08 f   Matrix.obj
 0001:0004cd14       ?dtor$8@?0??MatchTemplate@Matrix@@SAXAEBV?$FunctionCallbackInfo@VValue@v8@@@Nan@@@Z@4HA 000000018004dd14 f   Matrix.obj
 0001:0004cd30       ?dtor$2@?0??MinMaxLoc@Matrix@@SAXAEBV?$FunctionCallbackInfo@VValue@v8@@@Nan@@@Z@4HA 000000018004dd30 f   Matrix.obj
 0001:0004cd3e       ?dtor$0@?0??MinMaxLoc@Matrix@@SAXAEBV?$FunctionCallbackInfo@VValue@v8@@@Nan@@@Z@4HA 000000018004dd3e f   Matrix.obj
 0001:0004cd4a       ?dtor$1@?0??MinMaxLoc@Matrix@@SAXAEBV?$FunctionCallbackInfo@VValue@v8@@@Nan@@@Z@4HA 000000018004dd4a f   Matrix.obj
 0001:0004cd56       ?dtor$3@?0??MinMaxLoc@Matrix@@SAXAEBV?$FunctionCallbackInfo@VValue@v8@@@Nan@@@Z@4HA 000000018004dd56 f   Matrix.obj
 0001:0004cd70       ?dtor$4@?0??PutText@Matrix@@SAXAEBV?$FunctionCallbackInfo@VValue@v8@@@Nan@@@Z@4HA 000000018004dd70 f   Matrix.obj
 0001:0004cd7e       ?dtor$0@?0??PutText@Matrix@@SAXAEBV?$FunctionCallbackInfo@VValue@v8@@@Nan@@@Z@4HA 000000018004dd7e f   Matrix.obj
 0001:0004cd8a       ?dtor$1@?0??PutText@Matrix@@SAXAEBV?$FunctionCallbackInfo@VValue@v8@@@Nan@@@Z@4HA 000000018004dd8a f   Matrix.obj
 0001:0004cd96       ?dtor$2@?0??PutText@Matrix@@SAXAEBV?$FunctionCallbackInfo@VValue@v8@@@Nan@@@Z@4HA 000000018004dd96 f   Matrix.obj
 0001:0004cda2       ?dtor$3@?0??PutText@Matrix@@SAXAEBV?$FunctionCallbackInfo@VValue@v8@@@Nan@@@Z@4HA 000000018004dda2 f   Matrix.obj
 0001:0004cdae       ?dtor$5@?0??PutText@Matrix@@SAXAEBV?$FunctionCallbackInfo@VValue@v8@@@Nan@@@Z@4HA 000000018004ddae f   Matrix.obj
 0001:0004cdc0       ?dtor$4@?0??GetPerspectiveTransform@Matrix@@SAXAEBV?$FunctionCallbackInfo@VValue@v8@@@Nan@@@Z@4HA 000000018004ddc0 f   Matrix.obj
 0001:0004cdce       ?dtor$0@?0??GetPerspectiveTransform@Matrix@@SAXAEBV?$FunctionCallbackInfo@VValue@v8@@@Nan@@@Z@4HA 000000018004ddce f   Matrix.obj
 0001:0004cdda       ?dtor$5@?0??GetPerspectiveTransform@Matrix@@SAXAEBV?$FunctionCallbackInfo@VValue@v8@@@Nan@@@Z@4HA 000000018004ddda f   Matrix.obj
 0001:0004cdf6       ?dtor$1@?0??GetPerspectiveTransform@Matrix@@SAXAEBV?$FunctionCallbackInfo@VValue@v8@@@Nan@@@Z@4HA 000000018004ddf6 f   Matrix.obj
 0001:0004ce02       ?dtor$6@?0??GetPerspectiveTransform@Matrix@@SAXAEBV?$FunctionCallbackInfo@VValue@v8@@@Nan@@@Z@4HA 000000018004de02 f   Matrix.obj
 0001:0004ce1e       ?dtor$2@?0??GetPerspectiveTransform@Matrix@@SAXAEBV?$FunctionCallbackInfo@VValue@v8@@@Nan@@@Z@4HA 000000018004de1e f   Matrix.obj
 0001:0004ce2a       ?dtor$3@?0??GetPerspectiveTransform@Matrix@@SAXAEBV?$FunctionCallbackInfo@VValue@v8@@@Nan@@@Z@4HA 000000018004de2a f   Matrix.obj
 0001:0004ce36       ?dtor$7@?0??GetPerspectiveTransform@Matrix@@SAXAEBV?$FunctionCallbackInfo@VValue@v8@@@Nan@@@Z@4HA 000000018004de36 f   Matrix.obj
 0001:0004ce50       ?dtor$3@?0??WarpPerspective@Matrix@@SAXAEBV?$FunctionCallbackInfo@VValue@v8@@@Nan@@@Z@4HA 000000018004de50 f   Matrix.obj
 0001:0004ce5e       ?dtor$0@?0??WarpPerspective@Matrix@@SAXAEBV?$FunctionCallbackInfo@VValue@v8@@@Nan@@@Z@4HA 000000018004de5e f   Matrix.obj
 0001:0004ce6a       ?dtor$1@?0??WarpPerspective@Matrix@@SAXAEBV?$FunctionCallbackInfo@VValue@v8@@@Nan@@@Z@4HA 000000018004de6a f   Matrix.obj
 0001:0004ce76       ?dtor$4@?0??WarpPerspective@Matrix@@SAXAEBV?$FunctionCallbackInfo@VValue@v8@@@Nan@@@Z@4HA 000000018004de76 f   Matrix.obj
 0001:0004ce86       ?dtor$5@?0??WarpPerspective@Matrix@@SAXAEBV?$FunctionCallbackInfo@VValue@v8@@@Nan@@@Z@4HA 000000018004de86 f   Matrix.obj
 0001:0004ce96       ?dtor$6@?0??WarpPerspective@Matrix@@SAXAEBV?$FunctionCallbackInfo@VValue@v8@@@Nan@@@Z@4HA 000000018004de96 f   Matrix.obj
 0001:0004cea9       ?dtor$7@?0??WarpPerspective@Matrix@@SAXAEBV?$FunctionCallbackInfo@VValue@v8@@@Nan@@@Z@4HA 000000018004dea9 f   Matrix.obj
 0001:0004cec0       ?dtor$5@?0??Shift@Matrix@@SAXAEBV?$FunctionCallbackInfo@VValue@v8@@@Nan@@@Z@4HA 000000018004dec0 f   Matrix.obj
 0001:0004cece       ?dtor$0@?0??Shift@Matrix@@SAXAEBV?$FunctionCallbackInfo@VValue@v8@@@Nan@@@Z@4HA 000000018004dece f   Matrix.obj
 0001:0004ceda       ?dtor$1@?0??Shift@Matrix@@SAXAEBV?$FunctionCallbackInfo@VValue@v8@@@Nan@@@Z@4HA 000000018004deda f   Matrix.obj
 0001:0004cee6       ?dtor$2@?0??Shift@Matrix@@SAXAEBV?$FunctionCallbackInfo@VValue@v8@@@Nan@@@Z@4HA 000000018004dee6 f   Matrix.obj
 0001:0004cef2       ?dtor$3@?0??Shift@Matrix@@SAXAEBV?$FunctionCallbackInfo@VValue@v8@@@Nan@@@Z@4HA 000000018004def2 f   Matrix.obj
 0001:0004cefe       ?dtor$6@?0??Shift@Matrix@@SAXAEBV?$FunctionCallbackInfo@VValue@v8@@@Nan@@@Z@4HA 000000018004defe f   Matrix.obj
 0001:0004cf0e       ?dtor$7@?0??Shift@Matrix@@SAXAEBV?$FunctionCallbackInfo@VValue@v8@@@Nan@@@Z@4HA 000000018004df0e f   Matrix.obj
 0001:0004cf1e       ?dtor$8@?0??Shift@Matrix@@SAXAEBV?$FunctionCallbackInfo@VValue@v8@@@Nan@@@Z@4HA 000000018004df1e f   Matrix.obj
 0001:0004cf31       ?dtor$9@?0??Shift@Matrix@@SAXAEBV?$FunctionCallbackInfo@VValue@v8@@@Nan@@@Z@4HA 000000018004df31 f   Matrix.obj
 0001:0004cf40       ?dtor$0@?0???$_Copy_unchecked1@PEAV?$vector@V?$Point_@H@cv@@V?$allocator@V?$Point_@H@cv@@@std@@@std@@PEAV12@@std@@YAPEAV?$vector@V?$Point_@H@cv@@V?$allocator@V?$Point_@H@cv@@@std@@@0@PEAV10@00U_General_ptr_iterator_tag@0@@Z@4HA 000000018004df40 f   Contours.obj
 0001:0004cf40       ?dtor$0@?0??_Reallocate@?$vector@VMat@cv@@V?$allocator@VMat@cv@@@std@@@std@@IEAAX_K@Z@4HA 000000018004df40 f   Matrix.obj
 0001:0004cf60       ?dtor$0@?0???$_Uninitialized_default_fill_n1@PEAVMat@cv@@_KV?$allocator@VMat@cv@@@std@@U?$integral_constant@_N$0A@@4@@std@@YAXPEAVMat@cv@@_KAEAU?$_Wrap_alloc@V?$allocator@VMat@cv@@@std@@@0@U?$integral_constant@_N$0A@@0@@Z@4HA 000000018004df60 f   Matrix.obj
 0001:0004cf80       ?dtor$9@?0??ReadImage@OpenCV@@SAXAEBV?$FunctionCallbackInfo@VValue@v8@@@Nan@@@Z@4HA 000000018004df80 f   OpenCV.obj
 0001:0004cf8e       ?dtor$0@?0??ReadImage@OpenCV@@SAXAEBV?$FunctionCallbackInfo@VValue@v8@@@Nan@@@Z@4HA 000000018004df8e f   OpenCV.obj
 0001:0004cf9a       ?dtor$10@?0??ReadImage@OpenCV@@SAXAEBV?$FunctionCallbackInfo@VValue@v8@@@Nan@@@Z@4HA 000000018004df9a f   OpenCV.obj
 0001:0004cfa8       ?dtor$11@?0??ReadImage@OpenCV@@SAXAEBV?$FunctionCallbackInfo@VValue@v8@@@Nan@@@Z@4HA 000000018004dfa8 f   OpenCV.obj
 0001:0004cfb6       ?dtor$1@?0??ReadImage@OpenCV@@SAXAEBV?$FunctionCallbackInfo@VValue@v8@@@Nan@@@Z@4HA 000000018004dfb6 f   OpenCV.obj
 0001:0004cfc2       ?dtor$2@?0??ReadImage@OpenCV@@SAXAEBV?$FunctionCallbackInfo@VValue@v8@@@Nan@@@Z@4HA 000000018004dfc2 f   OpenCV.obj
 0001:0004cfdf       ?dtor$3@?0??ReadImage@OpenCV@@SAXAEBV?$FunctionCallbackInfo@VValue@v8@@@Nan@@@Z@4HA 000000018004dfdf f   OpenCV.obj
 0001:0004cfeb       ?dtor$4@?0??ReadImage@OpenCV@@SAXAEBV?$FunctionCallbackInfo@VValue@v8@@@Nan@@@Z@4HA 000000018004dfeb f   OpenCV.obj
 0001:0004cff7       ?dtor$5@?0??ReadImage@OpenCV@@SAXAEBV?$FunctionCallbackInfo@VValue@v8@@@Nan@@@Z@4HA 000000018004dff7 f   OpenCV.obj
 0001:0004d003       ?dtor$6@?0??ReadImage@OpenCV@@SAXAEBV?$FunctionCallbackInfo@VValue@v8@@@Nan@@@Z@4HA 000000018004e003 f   OpenCV.obj
 0001:0004d020       ?dtor$7@?0??ReadImage@OpenCV@@SAXAEBV?$FunctionCallbackInfo@VValue@v8@@@Nan@@@Z@4HA 000000018004e020 f   OpenCV.obj
 0001:0004d02c       ?catch$0@?0??ReadImage@OpenCV@@SAXAEBV?$FunctionCallbackInfo@VValue@v8@@@Nan@@@Z@4HA 000000018004e02c f   OpenCV.obj
 0001:0004d039       __catch$?ReadImage@OpenCV@@SAXAEBV?$FunctionCallbackInfo@VValue@v8@@@Nan@@@Z$0 000000018004e039 f   OpenCV.obj
 0001:0004d075       ?dtor$12@?0??ReadImage@OpenCV@@SAXAEBV?$FunctionCallbackInfo@VValue@v8@@@Nan@@@Z@4HA 000000018004e075 f   OpenCV.obj
 0001:0004d083       ?dtor$8@?0??ReadImage@OpenCV@@SAXAEBV?$FunctionCallbackInfo@VValue@v8@@@Nan@@@Z@4HA 000000018004e083 f   OpenCV.obj
 0001:0004d08f       ?dtor$13@?0??ReadImage@OpenCV@@SAXAEBV?$FunctionCallbackInfo@VValue@v8@@@Nan@@@Z@4HA 000000018004e08f f   OpenCV.obj
